Archive member included to satisfy reference by file (symbol)

c:/users/error414/documents/stm32-tools/gcc-arm-none-eabi-10-2020-q4-major/bin/../lib/gcc/arm-none-eabi/10.2.1/../../../../arm-none-eabi/lib/thumb/v7e-m/nofp\libg.a(lib_a-ctype_.o)
                              CMakeFiles/stm32-chibios.dir/C_/Users/error414/Documents/STM32/meteo-F4/ChibiOS/os/hal/lib/streams/chscanf.c.obj (symbol from plugin) (_ctype_)
c:/users/error414/documents/stm32-tools/gcc-arm-none-eabi-10-2020-q4-major/bin/../lib/gcc/arm-none-eabi/10.2.1/../../../../arm-none-eabi/lib/thumb/v7e-m/nofp\libg.a(lib_a-memcmp.o)
                              C:\Users\error414\AppData\Local\Temp\stm32-chibios.c1tKpx.ltrans0.ltrans.o (memcmp)
c:/users/error414/documents/stm32-tools/gcc-arm-none-eabi-10-2020-q4-major/bin/../lib/gcc/arm-none-eabi/10.2.1/../../../../arm-none-eabi/lib/thumb/v7e-m/nofp\libg.a(lib_a-memcpy.o)
                              C:\Users\error414\AppData\Local\Temp\stm32-chibios.c1tKpx.ltrans0.ltrans.o (memcpy)
c:/users/error414/documents/stm32-tools/gcc-arm-none-eabi-10-2020-q4-major/bin/../lib/gcc/arm-none-eabi/10.2.1/../../../../arm-none-eabi/lib/thumb/v7e-m/nofp\libg.a(lib_a-strcpy.o)
                              C:\Users\error414\AppData\Local\Temp\stm32-chibios.c1tKpx.ltrans1.ltrans.o (strcpy)
c:/users/error414/documents/stm32-tools/gcc-arm-none-eabi-10-2020-q4-major/bin/../lib/gcc/arm-none-eabi/10.2.1/../../../../arm-none-eabi/lib/thumb/v7e-m/nofp\libg.a(lib_a-strlen.o)
                              C:\Users\error414\AppData\Local\Temp\stm32-chibios.c1tKpx.ltrans1.ltrans.o (strlen)
c:/users/error414/documents/stm32-tools/gcc-arm-none-eabi-10-2020-q4-major/bin/../lib/gcc/arm-none-eabi/10.2.1/../../../../arm-none-eabi/lib/thumb/v7e-m/nofp\libg.a(lib_a-strncpy.o)
                              C:\Users\error414\AppData\Local\Temp\stm32-chibios.c1tKpx.ltrans2.ltrans.o (strncpy)

Memory Configuration

Name             Origin             Length             Attributes
flash0           0x08000000         0x00080000         xr
flash1           0x00000000         0x00000000         xr
flash2           0x00000000         0x00000000         xr
flash3           0x00000000         0x00000000         xr
flash4           0x00000000         0x00000000         xr
flash5           0x00000000         0x00000000         xr
flash6           0x00000000         0x00000000         xr
flash7           0x00000000         0x00000000         xr
ram0             0x20000000         0x00018000         xw
ram1             0x00000000         0x00000000         xw
ram2             0x00000000         0x00000000         xw
ram3             0x00000000         0x00000000         xw
ram4             0x00000000         0x00000000         xw
ram5             0x00000000         0x00000000         xw
ram6             0x00000000         0x00000000         xw
ram7             0x00000000         0x00000000         xw
*default*        0x00000000         0xffffffff

Linker script and memory map

                0x00000190                __process_stack_size__ = 0x190
                0x00000190                __main_stack_size__ = 0x190
LOAD CMakeFiles/stm32-chibios.dir/C_/Users/error414/Documents/STM32/meteo-F4/ChibiOS/os/common/startup/ARMCMx/compilers/GCC/crt1.c.obj
LOAD C:\Users\error414\AppData\Local\Temp\stm32-chibios.c1tKpx.ltrans0.ltrans.o
LOAD C:\Users\error414\AppData\Local\Temp\stm32-chibios.c1tKpx.ltrans1.ltrans.o
LOAD C:\Users\error414\AppData\Local\Temp\stm32-chibios.c1tKpx.ltrans2.ltrans.o
LOAD C:\Users\error414\AppData\Local\Temp\stm32-chibios.c1tKpx.ltrans3.ltrans.o
LOAD C:\Users\error414\AppData\Local\Temp\ccTMTdwX.debug.temp.o
LOAD C:\Users\error414\AppData\Local\Temp\cc4XNc53.debug.temp.o
LOAD C:\Users\error414\AppData\Local\Temp\ccBKBzRa.debug.temp.o
LOAD C:\Users\error414\AppData\Local\Temp\ccs3IMMh.debug.temp.o
LOAD C:\Users\error414\AppData\Local\Temp\ccfSnk2n.debug.temp.o
LOAD C:\Users\error414\AppData\Local\Temp\ccSdgPHt.debug.temp.o
LOAD C:\Users\error414\AppData\Local\Temp\ccNM8uvC.debug.temp.o
LOAD C:\Users\error414\AppData\Local\Temp\ccABnNzL.debug.temp.o
LOAD C:\Users\error414\AppData\Local\Temp\ccDwFXWU.debug.temp.o
LOAD C:\Users\error414\AppData\Local\Temp\ccgmlOm3.debug.temp.o
LOAD C:\Users\error414\AppData\Local\Temp\ccf7SgUb.debug.temp.o
LOAD C:\Users\error414\AppData\Local\Temp\ccCwB7Ek.debug.temp.o
LOAD C:\Users\error414\AppData\Local\Temp\ccfYmjps.debug.temp.o
LOAD C:\Users\error414\AppData\Local\Temp\ccM04ECD.debug.temp.o
LOAD C:\Users\error414\AppData\Local\Temp\ccfT0fJN.debug.temp.o
LOAD C:\Users\error414\AppData\Local\Temp\cca0862X.debug.temp.o
LOAD C:\Users\error414\AppData\Local\Temp\cclpQHu8.debug.temp.o
LOAD C:\Users\error414\AppData\Local\Temp\ccuhVuUh.debug.temp.o
LOAD C:\Users\error414\AppData\Local\Temp\cchAH0Mv.debug.temp.o
LOAD C:\Users\error414\AppData\Local\Temp\cca4hI7I.debug.temp.o
LOAD C:\Users\error414\AppData\Local\Temp\cctnEYEV.debug.temp.o
LOAD C:\Users\error414\AppData\Local\Temp\cc87oZj8.debug.temp.o
LOAD C:\Users\error414\AppData\Local\Temp\ccZeGmcl.debug.temp.o
LOAD C:\Users\error414\AppData\Local\Temp\cccxP53w.debug.temp.o
LOAD C:\Users\error414\AppData\Local\Temp\ccXIIEVM.debug.temp.o
LOAD C:\Users\error414\AppData\Local\Temp\ccY2Dgy2.debug.temp.o
LOAD C:\Users\error414\AppData\Local\Temp\cczrIsnh.debug.temp.o
LOAD C:\Users\error414\AppData\Local\Temp\ccsbDokw.debug.temp.o
LOAD C:\Users\error414\AppData\Local\Temp\ccZVBdqL.debug.temp.o
LOAD C:\Users\error414\AppData\Local\Temp\ccuVCzI3.debug.temp.o
LOAD C:\Users\error414\AppData\Local\Temp\ccFyvmll.debug.temp.o
LOAD C:\Users\error414\AppData\Local\Temp\ccEFk6nC.debug.temp.o
LOAD C:\Users\error414\AppData\Local\Temp\ccfa6OLT.debug.temp.o
LOAD C:\Users\error414\AppData\Local\Temp\ccWtQoda.debug.temp.o
LOAD C:\Users\error414\AppData\Local\Temp\ccL3ykSq.debug.temp.o
LOAD C:\Users\error414\AppData\Local\Temp\ccsJCYPL.debug.temp.o
LOAD C:\Users\error414\AppData\Local\Temp\ccLIC4O5.debug.temp.o
LOAD C:\Users\error414\AppData\Local\Temp\ccSbz7dp.debug.temp.o
LOAD C:\Users\error414\AppData\Local\Temp\cclmIu6H.debug.temp.o
LOAD C:\Users\error414\AppData\Local\Temp\ccCGFtf1.debug.temp.o
LOAD C:\Users\error414\AppData\Local\Temp\ccvOorzo.debug.temp.o
LOAD C:\Users\error414\AppData\Local\Temp\ccIk7WUK.debug.temp.o
LOAD C:\Users\error414\AppData\Local\Temp\ccDBqRu7.debug.temp.o
LOAD C:\Users\error414\AppData\Local\Temp\ccEB5jgt.debug.temp.o
LOAD C:\Users\error414\AppData\Local\Temp\ccpRWCqO.debug.temp.o
LOAD C:\Users\error414\AppData\Local\Temp\ccGVLNJ9.debug.temp.o
LOAD C:\Users\error414\AppData\Local\Temp\cc5Xlkhz.debug.temp.o
LOAD C:\Users\error414\AppData\Local\Temp\ccuq5W0Y.debug.temp.o
LOAD C:\Users\error414\AppData\Local\Temp\ccXeba6n.debug.temp.o
LOAD C:\Users\error414\AppData\Local\Temp\ccuzQhhM.debug.temp.o
LOAD C:\Users\error414\AppData\Local\Temp\cc5F15Z9.debug.temp.o
LOAD C:\Users\error414\AppData\Local\Temp\ccqcqaCB.debug.temp.o
LOAD C:\Users\error414\AppData\Local\Temp\ccjA36m3.debug.temp.o
LOAD C:\Users\error414\AppData\Local\Temp\ccCDPUgv.debug.temp.o
LOAD C:\Users\error414\AppData\Local\Temp\cch8ZsiX.debug.temp.o
LOAD C:\Users\error414\AppData\Local\Temp\ccuuhHmo.debug.temp.o
LOAD C:\Users\error414\AppData\Local\Temp\ccrEqkFP.debug.temp.o
LOAD C:\Users\error414\AppData\Local\Temp\ccUCxP6g.debug.temp.o
LOAD C:\Users\error414\AppData\Local\Temp\ccRe1TzH.debug.temp.o
LOAD C:\Users\error414\AppData\Local\Temp\cc4M2cg8.debug.temp.o
LOAD C:\Users\error414\AppData\Local\Temp\cc3Fqw6y.debug.temp.o
LOAD C:\Users\error414\AppData\Local\Temp\ccKFixZY.debug.temp.o
LOAD C:\Users\error414\AppData\Local\Temp\ccN6yi0o.debug.temp.o
LOAD C:\Users\error414\AppData\Local\Temp\cckjwV9O.debug.temp.o
LOAD C:\Users\error414\AppData\Local\Temp\ccpnIqsf.debug.temp.o
LOAD C:\Users\error414\AppData\Local\Temp\ccyNMivJ.debug.temp.o
LOAD C:\Users\error414\AppData\Local\Temp\ccz92ggc.debug.temp.o
LOAD C:\Users\error414\AppData\Local\Temp\ccaqP79E.debug.temp.o
LOAD C:\Users\error414\AppData\Local\Temp\ccFn5hAa.debug.temp.o
LOAD C:\Users\error414\AppData\Local\Temp\ccuTXPdG.debug.temp.o
LOAD C:\Users\error414\AppData\Local\Temp\ccP3aqOa.debug.temp.o
LOAD C:\Users\error414\AppData\Local\Temp\ccUnhUxF.debug.temp.o
LOAD C:\Users\error414\AppData\Local\Temp\ccvwlgqa.debug.temp.o
LOAD C:\Users\error414\AppData\Local\Temp\ccuFdjwI.debug.temp.o
LOAD C:\Users\error414\AppData\Local\Temp\ccJKDAPg.debug.temp.o
LOAD C:\Users\error414\AppData\Local\Temp\ccc5lBgP.debug.temp.o
LOAD C:\Users\error414\AppData\Local\Temp\ccHYZOFm.debug.temp.o
LOAD C:\Users\error414\AppData\Local\Temp\ccQCJ6uT.debug.temp.o
LOAD C:\Users\error414\AppData\Local\Temp\ccvF5ZKq.debug.temp.o
LOAD C:\Users\error414\AppData\Local\Temp\ccQfgE9X.debug.temp.o
LOAD C:\Users\error414\AppData\Local\Temp\ccfykadz.debug.temp.o
LOAD C:\Users\error414\AppData\Local\Temp\ccujiSS9.debug.temp.o
LOAD C:\Users\error414\AppData\Local\Temp\ccBOPNKK.debug.temp.o
LOAD C:\Users\error414\AppData\Local\Temp\ccSInsGk.debug.temp.o
LOAD C:\Users\error414\AppData\Local\Temp\cc10tPTU.debug.temp.o
LOAD C:\Users\error414\AppData\Local\Temp\cc2uWh4t.debug.temp.o
LOAD C:\Users\error414\AppData\Local\Temp\cchSFYr3.debug.temp.o
LOAD C:\Users\error414\AppData\Local\Temp\ccUxyy8C.debug.temp.o
LOAD C:\Users\error414\AppData\Local\Temp\ccFrMQBg.debug.temp.o
LOAD C:\Users\error414\AppData\Local\Temp\ccuFbosU.debug.temp.o
LOAD C:\Users\error414\AppData\Local\Temp\cc32lDlx.debug.temp.o
LOAD C:\Users\error414\AppData\Local\Temp\ccK2LZqa.debug.temp.o
LOAD C:\Users\error414\AppData\Local\Temp\cc1WHeFN.debug.temp.o
LOAD C:\Users\error414\AppData\Local\Temp\cci1gbXp.debug.temp.o
LOAD C:\Users\error414\AppData\Local\Temp\ccHlOts2.debug.temp.o
LOAD C:\Users\error414\AppData\Local\Temp\ccs7Jw5E.debug.temp.o
LOAD C:\Users\error414\AppData\Local\Temp\ccXwU8Kg.debug.temp.o
LOAD C:\Users\error414\AppData\Local\Temp\ccAUP6EW.debug.temp.o
LOAD C:\Users\error414\AppData\Local\Temp\ccNmMANC.debug.temp.o
LOAD C:\Users\error414\AppData\Local\Temp\ccOyvEYh.debug.temp.o
LOAD C:\Users\error414\AppData\Local\Temp\cc1WfrhX.debug.temp.o
LOAD C:\Users\error414\AppData\Local\Temp\ccKP7VMB.debug.temp.o
LOAD C:\Users\error414\AppData\Local\Temp\cc55VpDg.debug.temp.o
LOAD C:\Users\error414\AppData\Local\Temp\ccQ1SKCV.debug.temp.o
LOAD C:\Users\error414\AppData\Local\Temp\ccBtuiAz.debug.temp.o
LOAD C:\Users\error414\AppData\Local\Temp\ccajJQHd.debug.temp.o
LOAD C:\Users\error414\AppData\Local\Temp\cc3GAM2R.debug.temp.o
LOAD C:\Users\error414\AppData\Local\Temp\ccMjes1z.debug.temp.o
LOAD C:\Users\error414\AppData\Local\Temp\cczsFfTg.debug.temp.o
LOAD C:\Users\error414\AppData\Local\Temp\ccQit95X.debug.temp.o
LOAD C:\Users\error414\AppData\Local\Temp\ccRMvClE.debug.temp.o
LOAD C:\Users\error414\AppData\Local\Temp\ccaqSXTk.debug.temp.o
LOAD C:\Users\error414\AppData\Local\Temp\ccZRcbB1.debug.temp.o
LOAD C:\Users\error414\AppData\Local\Temp\cci3AC0L.debug.temp.o
LOAD C:\Users\error414\AppData\Local\Temp\cczns81v.debug.temp.o
LOAD C:\Users\error414\AppData\Local\Temp\cciqJvcg.debug.temp.o
LOAD C:\Users\error414\AppData\Local\Temp\ccNj15uZ.debug.temp.o
LOAD C:\Users\error414\AppData\Local\Temp\ccgCuj4I.debug.temp.o
LOAD C:\Users\error414\AppData\Local\Temp\ccDhNIBr.debug.temp.o
LOAD C:\Users\error414\AppData\Local\Temp\ccMhs8ia.debug.temp.o
LOAD C:\Users\error414\AppData\Local\Temp\cc7DDUdT.debug.temp.o
LOAD C:\Users\error414\AppData\Local\Temp\ccIioqgC.debug.temp.o
LOAD C:\Users\error414\AppData\Local\Temp\ccrLAOXo.debug.temp.o
LOAD C:\Users\error414\AppData\Local\Temp\ccCAbzTb.debug.temp.o
LOAD C:\Users\error414\AppData\Local\Temp\ccvwodYY.debug.temp.o
LOAD C:\Users\error414\AppData\Local\Temp\cc4vOy5K.debug.temp.o
LOAD C:\Users\error414\AppData\Local\Temp\ccNEYCkx.debug.temp.o
LOAD C:\Users\error414\AppData\Local\Temp\cc2B6yIj.debug.temp.o
LOAD C:\Users\error414\AppData\Local\Temp\ccJr9Zk6.debug.temp.o
LOAD C:\Users\error414\AppData\Local\Temp\ccKFrf3R.debug.temp.o
LOAD C:\Users\error414\AppData\Local\Temp\cc3o5RYD.debug.temp.o
LOAD C:\Users\error414\AppData\Local\Temp\ccoHEHSo.debug.temp.o
LOAD C:\Users\error414\AppData\Local\Temp\ccdpTT09.debug.temp.o
LOAD C:\Users\error414\AppData\Local\Temp\ccyV5XhV.debug.temp.o
LOAD C:\Users\error414\AppData\Local\Temp\ccjBAElK.debug.temp.o
LOAD C:\Users\error414\AppData\Local\Temp\ccWKgmzz.debug.temp.o
LOAD C:\Users\error414\AppData\Local\Temp\ccTqgUVo.debug.temp.o
LOAD C:\Users\error414\AppData\Local\Temp\ccUSL8Pd.debug.temp.o
LOAD C:\Users\error414\AppData\Local\Temp\ccHXsbZ1.debug.temp.o
LOAD C:\Users\error414\AppData\Local\Temp\cc2zyWkP.debug.temp.o
LOAD C:\Users\error414\AppData\Local\Temp\ccV3SzPC.debug.temp.o
LOAD C:\Users\error414\AppData\Local\Temp\ccOXmjwq.debug.temp.o
LOAD C:\Users\error414\AppData\Local\Temp\ccft3flh.debug.temp.o
LOAD C:\Users\error414\AppData\Local\Temp\cc6DS3i8.debug.temp.o
LOAD C:\Users\error414\AppData\Local\Temp\ccRVGqCY.debug.temp.o
LOAD C:\Users\error414\AppData\Local\Temp\ccsAd7fO.debug.temp.o
LOAD C:\Users\error414\AppData\Local\Temp\ccjbi26D.debug.temp.o
LOAD C:\Users\error414\AppData\Local\Temp\ccgRRcau.debug.temp.o
LOAD C:\Users\error414\AppData\Local\Temp\ccTGlJWn.debug.temp.o
LOAD C:\Users\error414\AppData\Local\Temp\ccu5DA3g.debug.temp.o
LOAD C:\Users\error414\AppData\Local\Temp\cc5JyRZ9.debug.temp.o
LOAD C:\Users\error414\AppData\Local\Temp\ccsful41.debug.temp.o
LOAD C:\Users\error414\AppData\Local\Temp\ccDUdrpU.debug.temp.o
LOAD C:\Users\error414\AppData\Local\Temp\ccwq7nzQ.debug.temp.o
LOAD C:\Users\error414\AppData\Local\Temp\ccr1gwbM.debug.temp.o
LOAD C:\Users\error414\AppData\Local\Temp\ccw5qUaI.debug.temp.o
LOAD C:\Users\error414\AppData\Local\Temp\ccjQJJuD.debug.temp.o
LOAD C:\Users\error414\AppData\Local\Temp\ccavGv5B.debug.temp.o
LOAD C:\Users\error414\AppData\Local\Temp\cclGW7OA.debug.temp.o
LOAD C:\Users\error414\AppData\Local\Temp\ccKurbDA.debug.temp.o
LOAD C:\Users\error414\AppData\Local\Temp\ccXmxV8z.debug.temp.o
LOAD C:\Users\error414\AppData\Local\Temp\cc07nUnD.debug.temp.o
LOAD C:\Users\error414\AppData\Local\Temp\ccnhmDKG.debug.temp.o
LOAD C:\Users\error414\AppData\Local\Temp\cca8DyeJ.debug.temp.o
LOAD C:\Users\error414\AppData\Local\Temp\cczAHRWL.debug.temp.o
LOAD C:\Users\error414\AppData\Local\Temp\ccuRI2NO.debug.temp.o
LOAD C:\Users\error414\AppData\Local\Temp\cc91aXlT.debug.temp.o
LOAD C:\Users\error414\AppData\Local\Temp\cco78J2X.debug.temp.o
LOAD C:\Users\error414\AppData\Local\Temp\ccjk2zS4.debug.temp.o
LOAD C:\Users\error414\AppData\Local\Temp\ccACiFVb.debug.temp.o
LOAD C:\Users\error414\AppData\Local\Temp\cc59qeVl.debug.temp.o
LOAD C:\Users\error414\AppData\Local\Temp\cclbZe3n.debug.temp.o
LOAD C:\Users\error414\AppData\Local\Temp\ccnpzXdp.debug.temp.o
LOAD C:\Users\error414\AppData\Local\Temp\ccPWg2Cq.debug.temp.o
LOAD C:\Users\error414\AppData\Local\Temp\ccJIU6as.debug.temp.o
LOAD C:\Users\error414\AppData\Local\Temp\ccPcmjVt.debug.temp.o
LOAD C:\Users\error414\AppData\Local\Temp\ccP3CHDu.debug.temp.o
LOAD C:\Users\error414\AppData\Local\Temp\ccfKxAAv.debug.temp.o
LOAD C:\Users\error414\AppData\Local\Temp\ccpQFBiy.debug.temp.o
LOAD C:\Users\error414\AppData\Local\Temp\ccPSlRdB.debug.temp.o
LOAD C:\Users\error414\AppData\Local\Temp\ccNKDlRH.debug.temp.o
LOAD C:\Users\error414\AppData\Local\Temp\cc9eNGDO.debug.temp.o
LOAD C:\Users\error414\AppData\Local\Temp\ccduxqEV.debug.temp.o
LOAD C:\Users\error414\AppData\Local\Temp\ccL0CeM1.debug.temp.o
LOAD C:\Users\error414\AppData\Local\Temp\cctG2vQa.debug.temp.o
LOAD C:\Users\error414\AppData\Local\Temp\ccNjfG3j.debug.temp.o
LOAD C:\Users\error414\AppData\Local\Temp\cc30wxks.debug.temp.o
LOAD C:\Users\error414\AppData\Local\Temp\ccPC5c0z.debug.temp.o
LOAD C:\Users\error414\AppData\Local\Temp\ccb99KOH.debug.temp.o
LOAD C:\Users\error414\AppData\Local\Temp\ccL41FQP.debug.temp.o
LOAD C:\Users\error414\AppData\Local\Temp\ccHril0X.debug.temp.o
LOAD C:\Users\error414\AppData\Local\Temp\ccnsNzc5.debug.temp.o
LOAD C:\Users\error414\AppData\Local\Temp\ccDPCRPf.debug.temp.o
LOAD C:\Users\error414\AppData\Local\Temp\cc9u1SAq.debug.temp.o
LOAD C:\Users\error414\AppData\Local\Temp\ccZcw9yB.debug.temp.o
LOAD C:\Users\error414\AppData\Local\Temp\ccx9OpHM.debug.temp.o
LOAD C:\Users\error414\AppData\Local\Temp\ccL9knSW.debug.temp.o
LOAD C:\Users\error414\AppData\Local\Temp\ccFdcec7.debug.temp.o
LOAD C:\Users\error414\AppData\Local\Temp\ccvBEaIh.debug.temp.o
LOAD C:\Users\error414\AppData\Local\Temp\ccrEAkcr.debug.temp.o
LOAD C:\Users\error414\AppData\Local\Temp\ccTFZZUA.debug.temp.o
LOAD C:\Users\error414\AppData\Local\Temp\cch1ZKPK.debug.temp.o
LOAD C:\Users\error414\AppData\Local\Temp\ccnzbStY.debug.temp.o
LOAD C:\Users\error414\AppData\Local\Temp\cc5Ewqle.debug.temp.o
LOAD C:\Users\error414\AppData\Local\Temp\ccbp2mqu.debug.temp.o
LOAD C:\Users\error414\AppData\Local\Temp\ccRbgiFK.debug.temp.o
LOAD C:\Users\error414\AppData\Local\Temp\cct03kv2.debug.temp.o
LOAD C:\Users\error414\AppData\Local\Temp\cczK3Szk.debug.temp.o
LOAD C:\Users\error414\AppData\Local\Temp\ccvh70GB.debug.temp.o
LOAD C:\Users\error414\AppData\Local\Temp\ccF3sSVS.debug.temp.o
LOAD C:\Users\error414\AppData\Local\Temp\cc9nr7na.debug.temp.o
LOAD C:\Users\error414\AppData\Local\Temp\ccPEUGPq.debug.temp.o
LOAD CMakeFiles/stm32-chibios.dir/C_/Users/error414/Documents/STM32/meteo-F4/ChibiOS/os/hal/src/hal.c.obj
LOAD CMakeFiles/stm32-chibios.dir/C_/Users/error414/Documents/STM32/meteo-F4/ChibiOS/os/hal/src/hal_st.c.obj
LOAD CMakeFiles/stm32-chibios.dir/C_/Users/error414/Documents/STM32/meteo-F4/ChibiOS/os/hal/src/hal_buffers.c.obj
LOAD CMakeFiles/stm32-chibios.dir/C_/Users/error414/Documents/STM32/meteo-F4/ChibiOS/os/hal/src/hal_queues.c.obj
LOAD CMakeFiles/stm32-chibios.dir/C_/Users/error414/Documents/STM32/meteo-F4/ChibiOS/os/hal/src/hal_flash.c.obj
LOAD CMakeFiles/stm32-chibios.dir/C_/Users/error414/Documents/STM32/meteo-F4/ChibiOS/os/hal/src/hal_mmcsd.c.obj
LOAD CMakeFiles/stm32-chibios.dir/C_/Users/error414/Documents/STM32/meteo-F4/ChibiOS/os/hal/src/hal_i2c.c.obj
LOAD CMakeFiles/stm32-chibios.dir/C_/Users/error414/Documents/STM32/meteo-F4/ChibiOS/os/hal/src/hal_pal.c.obj
LOAD CMakeFiles/stm32-chibios.dir/C_/Users/error414/Documents/STM32/meteo-F4/ChibiOS/os/hal/src/hal_pwm.c.obj
LOAD CMakeFiles/stm32-chibios.dir/C_/Users/error414/Documents/STM32/meteo-F4/ChibiOS/os/hal/src/hal_serial.c.obj
LOAD CMakeFiles/stm32-chibios.dir/C_/Users/error414/Documents/STM32/meteo-F4/ChibiOS/os/hal/src/hal_spi.c.obj
LOAD CMakeFiles/stm32-chibios.dir/C_/Users/error414/Documents/STM32/meteo-F4/ChibiOS/os/hal/ports/common/ARMCMx/nvic.c.obj
LOAD CMakeFiles/stm32-chibios.dir/C_/Users/error414/Documents/STM32/meteo-F4/ChibiOS/os/hal/ports/STM32/STM32F4xx/stm32_isr.c.obj
LOAD CMakeFiles/stm32-chibios.dir/C_/Users/error414/Documents/STM32/meteo-F4/ChibiOS/os/hal/ports/STM32/STM32F4xx/hal_lld.c.obj
LOAD CMakeFiles/stm32-chibios.dir/C_/Users/error414/Documents/STM32/meteo-F4/ChibiOS/os/hal/ports/STM32/STM32F4xx/hal_efl_lld.c.obj
LOAD CMakeFiles/stm32-chibios.dir/C_/Users/error414/Documents/STM32/meteo-F4/ChibiOS/os/hal/ports/STM32/LLD/DMAv2/stm32_dma.c.obj
LOAD CMakeFiles/stm32-chibios.dir/C_/Users/error414/Documents/STM32/meteo-F4/ChibiOS/os/hal/ports/STM32/LLD/EXTIv1/stm32_exti.c.obj
LOAD CMakeFiles/stm32-chibios.dir/C_/Users/error414/Documents/STM32/meteo-F4/ChibiOS/os/hal/ports/STM32/LLD/GPIOv2/hal_pal_lld.c.obj
LOAD CMakeFiles/stm32-chibios.dir/C_/Users/error414/Documents/STM32/meteo-F4/ChibiOS/os/hal/ports/STM32/LLD/I2Cv1/hal_i2c_lld.c.obj
LOAD CMakeFiles/stm32-chibios.dir/C_/Users/error414/Documents/STM32/meteo-F4/ChibiOS/os/hal/ports/STM32/LLD/SPIv1/hal_spi_lld.c.obj
LOAD CMakeFiles/stm32-chibios.dir/C_/Users/error414/Documents/STM32/meteo-F4/ChibiOS/os/hal/ports/STM32/LLD/TIMv1/hal_st_lld.c.obj
LOAD CMakeFiles/stm32-chibios.dir/C_/Users/error414/Documents/STM32/meteo-F4/ChibiOS/os/hal/ports/STM32/LLD/TIMv1/hal_pwm_lld.c.obj
LOAD CMakeFiles/stm32-chibios.dir/C_/Users/error414/Documents/STM32/meteo-F4/ChibiOS/os/hal/ports/STM32/LLD/USARTv1/hal_serial_lld.c.obj
LOAD CMakeFiles/stm32-chibios.dir/C_/Users/error414/Documents/STM32/meteo-F4/ChibiOS/os/hal/osal/rt-nil/osal.c.obj
LOAD CMakeFiles/stm32-chibios.dir/C_/Users/error414/Documents/STM32/meteo-F4/ChibiOS/os/rt/src/chsys.c.obj
LOAD CMakeFiles/stm32-chibios.dir/C_/Users/error414/Documents/STM32/meteo-F4/ChibiOS/os/rt/src/chdebug.c.obj
LOAD CMakeFiles/stm32-chibios.dir/C_/Users/error414/Documents/STM32/meteo-F4/ChibiOS/os/rt/src/chtrace.c.obj
LOAD CMakeFiles/stm32-chibios.dir/C_/Users/error414/Documents/STM32/meteo-F4/ChibiOS/os/rt/src/chvt.c.obj
LOAD CMakeFiles/stm32-chibios.dir/C_/Users/error414/Documents/STM32/meteo-F4/ChibiOS/os/rt/src/chschd.c.obj
LOAD CMakeFiles/stm32-chibios.dir/C_/Users/error414/Documents/STM32/meteo-F4/ChibiOS/os/rt/src/chinstances.c.obj
LOAD CMakeFiles/stm32-chibios.dir/C_/Users/error414/Documents/STM32/meteo-F4/ChibiOS/os/rt/src/chthreads.c.obj
LOAD CMakeFiles/stm32-chibios.dir/C_/Users/error414/Documents/STM32/meteo-F4/ChibiOS/os/rt/src/chtm.c.obj
LOAD CMakeFiles/stm32-chibios.dir/C_/Users/error414/Documents/STM32/meteo-F4/ChibiOS/os/rt/src/chregistry.c.obj
LOAD CMakeFiles/stm32-chibios.dir/C_/Users/error414/Documents/STM32/meteo-F4/ChibiOS/os/rt/src/chsem.c.obj
LOAD CMakeFiles/stm32-chibios.dir/C_/Users/error414/Documents/STM32/meteo-F4/ChibiOS/os/rt/src/chmtx.c.obj
LOAD CMakeFiles/stm32-chibios.dir/C_/Users/error414/Documents/STM32/meteo-F4/ChibiOS/os/rt/src/chcond.c.obj
LOAD CMakeFiles/stm32-chibios.dir/C_/Users/error414/Documents/STM32/meteo-F4/ChibiOS/os/rt/src/chevents.c.obj
LOAD CMakeFiles/stm32-chibios.dir/C_/Users/error414/Documents/STM32/meteo-F4/ChibiOS/os/rt/src/chmsg.c.obj
LOAD CMakeFiles/stm32-chibios.dir/C_/Users/error414/Documents/STM32/meteo-F4/ChibiOS/os/rt/src/chdynamic.c.obj
LOAD CMakeFiles/stm32-chibios.dir/C_/Users/error414/Documents/STM32/meteo-F4/ChibiOS/os/oslib/src/chmboxes.c.obj
LOAD CMakeFiles/stm32-chibios.dir/C_/Users/error414/Documents/STM32/meteo-F4/ChibiOS/os/oslib/src/chmemcore.c.obj
LOAD CMakeFiles/stm32-chibios.dir/C_/Users/error414/Documents/STM32/meteo-F4/ChibiOS/os/oslib/src/chmemheaps.c.obj
LOAD CMakeFiles/stm32-chibios.dir/C_/Users/error414/Documents/STM32/meteo-F4/ChibiOS/os/oslib/src/chmempools.c.obj
LOAD CMakeFiles/stm32-chibios.dir/C_/Users/error414/Documents/STM32/meteo-F4/ChibiOS/os/oslib/src/chpipes.c.obj
LOAD CMakeFiles/stm32-chibios.dir/C_/Users/error414/Documents/STM32/meteo-F4/ChibiOS/os/oslib/src/chobjcaches.c.obj
LOAD CMakeFiles/stm32-chibios.dir/C_/Users/error414/Documents/STM32/meteo-F4/ChibiOS/os/oslib/src/chdelegates.c.obj
LOAD CMakeFiles/stm32-chibios.dir/C_/Users/error414/Documents/STM32/meteo-F4/ChibiOS/os/oslib/src/chfactory.c.obj
LOAD CMakeFiles/stm32-chibios.dir/C_/Users/error414/Documents/STM32/meteo-F4/ChibiOS/os/common/ports/ARMv7-M/chcore.c.obj
LOAD CMakeFiles/stm32-chibios.dir/C_/Users/error414/Documents/STM32/meteo-F4/ChibiOS/os/hal/lib/streams/chprintf.c.obj
LOAD CMakeFiles/stm32-chibios.dir/C_/Users/error414/Documents/STM32/meteo-F4/ChibiOS/os/hal/lib/streams/chscanf.c.obj
LOAD CMakeFiles/stm32-chibios.dir/C_/Users/error414/Documents/STM32/meteo-F4/ChibiOS/os/hal/lib/streams/memstreams.c.obj
LOAD CMakeFiles/stm32-chibios.dir/C_/Users/error414/Documents/STM32/meteo-F4/ChibiOS/os/hal/lib/streams/nullstreams.c.obj
LOAD CMakeFiles/stm32-chibios.dir/C_/Users/error414/Documents/STM32/meteo-F4/ChibiOS/os/hal/lib/streams/bufstreams.c.obj
LOAD CMakeFiles/stm32-chibios.dir/C_/Users/error414/Documents/STM32/meteo-F4/ChibiOS/os/common/startup/ARMCMx/compilers/GCC/crt0_v7m.S.obj
LOAD CMakeFiles/stm32-chibios.dir/C_/Users/error414/Documents/STM32/meteo-F4/ChibiOS/os/common/startup/ARMCMx/compilers/GCC/vectors.S.obj
LOAD CMakeFiles/stm32-chibios.dir/C_/Users/error414/Documents/STM32/meteo-F4/ChibiOS/os/common/ports/ARMv7-M/compilers/GCC/chcoreasm.S.obj
LOAD CMakeFiles/stm32-chibios.dir/C_/Users/error414/Documents/STM32/meteo-F4/lvgl/src/lv_core/lv_disp.c.obj
LOAD CMakeFiles/stm32-chibios.dir/C_/Users/error414/Documents/STM32/meteo-F4/lvgl/src/lv_core/lv_group.c.obj
LOAD CMakeFiles/stm32-chibios.dir/C_/Users/error414/Documents/STM32/meteo-F4/lvgl/src/lv_core/lv_indev.c.obj
LOAD CMakeFiles/stm32-chibios.dir/C_/Users/error414/Documents/STM32/meteo-F4/lvgl/src/lv_core/lv_obj.c.obj
LOAD CMakeFiles/stm32-chibios.dir/C_/Users/error414/Documents/STM32/meteo-F4/lvgl/src/lv_core/lv_refr.c.obj
LOAD CMakeFiles/stm32-chibios.dir/C_/Users/error414/Documents/STM32/meteo-F4/lvgl/src/lv_core/lv_style.c.obj
LOAD CMakeFiles/stm32-chibios.dir/C_/Users/error414/Documents/STM32/meteo-F4/lvgl/src/lv_draw/lv_draw_arc.c.obj
LOAD CMakeFiles/stm32-chibios.dir/C_/Users/error414/Documents/STM32/meteo-F4/lvgl/src/lv_draw/lv_draw_blend.c.obj
LOAD CMakeFiles/stm32-chibios.dir/C_/Users/error414/Documents/STM32/meteo-F4/lvgl/src/lv_draw/lv_draw_img.c.obj
LOAD CMakeFiles/stm32-chibios.dir/C_/Users/error414/Documents/STM32/meteo-F4/lvgl/src/lv_draw/lv_draw_label.c.obj
LOAD CMakeFiles/stm32-chibios.dir/C_/Users/error414/Documents/STM32/meteo-F4/lvgl/src/lv_draw/lv_draw_line.c.obj
LOAD CMakeFiles/stm32-chibios.dir/C_/Users/error414/Documents/STM32/meteo-F4/lvgl/src/lv_draw/lv_draw_mask.c.obj
LOAD CMakeFiles/stm32-chibios.dir/C_/Users/error414/Documents/STM32/meteo-F4/lvgl/src/lv_draw/lv_draw_rect.c.obj
LOAD CMakeFiles/stm32-chibios.dir/C_/Users/error414/Documents/STM32/meteo-F4/lvgl/src/lv_draw/lv_draw_triangle.c.obj
LOAD CMakeFiles/stm32-chibios.dir/C_/Users/error414/Documents/STM32/meteo-F4/lvgl/src/lv_draw/lv_img_buf.c.obj
LOAD CMakeFiles/stm32-chibios.dir/C_/Users/error414/Documents/STM32/meteo-F4/lvgl/src/lv_draw/lv_img_cache.c.obj
LOAD CMakeFiles/stm32-chibios.dir/C_/Users/error414/Documents/STM32/meteo-F4/lvgl/src/lv_draw/lv_img_decoder.c.obj
LOAD CMakeFiles/stm32-chibios.dir/C_/Users/error414/Documents/STM32/meteo-F4/lvgl/src/lv_font/lv_font.c.obj
LOAD CMakeFiles/stm32-chibios.dir/C_/Users/error414/Documents/STM32/meteo-F4/lvgl/src/lv_font/lv_font_dejavu_16_persian_hebrew.c.obj
LOAD CMakeFiles/stm32-chibios.dir/C_/Users/error414/Documents/STM32/meteo-F4/lvgl/src/lv_font/lv_font_fmt_txt.c.obj
LOAD CMakeFiles/stm32-chibios.dir/C_/Users/error414/Documents/STM32/meteo-F4/lvgl/src/lv_font/lv_font_loader.c.obj
LOAD CMakeFiles/stm32-chibios.dir/C_/Users/error414/Documents/STM32/meteo-F4/lvgl/src/lv_font/lv_font_montserrat_10.c.obj
LOAD CMakeFiles/stm32-chibios.dir/C_/Users/error414/Documents/STM32/meteo-F4/lvgl/src/lv_font/lv_font_montserrat_12.c.obj
LOAD CMakeFiles/stm32-chibios.dir/C_/Users/error414/Documents/STM32/meteo-F4/lvgl/src/lv_font/lv_font_montserrat_12_subpx.c.obj
LOAD CMakeFiles/stm32-chibios.dir/C_/Users/error414/Documents/STM32/meteo-F4/lvgl/src/lv_font/lv_font_montserrat_14.c.obj
LOAD CMakeFiles/stm32-chibios.dir/C_/Users/error414/Documents/STM32/meteo-F4/lvgl/src/lv_font/lv_font_montserrat_16.c.obj
LOAD CMakeFiles/stm32-chibios.dir/C_/Users/error414/Documents/STM32/meteo-F4/lvgl/src/lv_font/lv_font_montserrat_18.c.obj
LOAD CMakeFiles/stm32-chibios.dir/C_/Users/error414/Documents/STM32/meteo-F4/lvgl/src/lv_font/lv_font_montserrat_20.c.obj
LOAD CMakeFiles/stm32-chibios.dir/C_/Users/error414/Documents/STM32/meteo-F4/lvgl/src/lv_font/lv_font_montserrat_22.c.obj
LOAD CMakeFiles/stm32-chibios.dir/C_/Users/error414/Documents/STM32/meteo-F4/lvgl/src/lv_font/lv_font_montserrat_24.c.obj
LOAD CMakeFiles/stm32-chibios.dir/C_/Users/error414/Documents/STM32/meteo-F4/lvgl/src/lv_font/lv_font_montserrat_26.c.obj
LOAD CMakeFiles/stm32-chibios.dir/C_/Users/error414/Documents/STM32/meteo-F4/lvgl/src/lv_font/lv_font_montserrat_28.c.obj
LOAD CMakeFiles/stm32-chibios.dir/C_/Users/error414/Documents/STM32/meteo-F4/lvgl/src/lv_font/lv_font_montserrat_28_compressed.c.obj
LOAD CMakeFiles/stm32-chibios.dir/C_/Users/error414/Documents/STM32/meteo-F4/lvgl/src/lv_font/lv_font_montserrat_30.c.obj
LOAD CMakeFiles/stm32-chibios.dir/C_/Users/error414/Documents/STM32/meteo-F4/lvgl/src/lv_font/lv_font_montserrat_32.c.obj
LOAD CMakeFiles/stm32-chibios.dir/C_/Users/error414/Documents/STM32/meteo-F4/lvgl/src/lv_font/lv_font_montserrat_34.c.obj
LOAD CMakeFiles/stm32-chibios.dir/C_/Users/error414/Documents/STM32/meteo-F4/lvgl/src/lv_font/lv_font_montserrat_36.c.obj
LOAD CMakeFiles/stm32-chibios.dir/C_/Users/error414/Documents/STM32/meteo-F4/lvgl/src/lv_font/lv_font_montserrat_38.c.obj
LOAD CMakeFiles/stm32-chibios.dir/C_/Users/error414/Documents/STM32/meteo-F4/lvgl/src/lv_font/lv_font_montserrat_40.c.obj
LOAD CMakeFiles/stm32-chibios.dir/C_/Users/error414/Documents/STM32/meteo-F4/lvgl/src/lv_font/lv_font_montserrat_42.c.obj
LOAD CMakeFiles/stm32-chibios.dir/C_/Users/error414/Documents/STM32/meteo-F4/lvgl/src/lv_font/lv_font_montserrat_44.c.obj
LOAD CMakeFiles/stm32-chibios.dir/C_/Users/error414/Documents/STM32/meteo-F4/lvgl/src/lv_font/lv_font_montserrat_46.c.obj
LOAD CMakeFiles/stm32-chibios.dir/C_/Users/error414/Documents/STM32/meteo-F4/lvgl/src/lv_font/lv_font_montserrat_48.c.obj
LOAD CMakeFiles/stm32-chibios.dir/C_/Users/error414/Documents/STM32/meteo-F4/lvgl/src/lv_font/lv_font_montserrat_8.c.obj
LOAD CMakeFiles/stm32-chibios.dir/C_/Users/error414/Documents/STM32/meteo-F4/lvgl/src/lv_font/lv_font_simsun_16_cjk.c.obj
LOAD CMakeFiles/stm32-chibios.dir/C_/Users/error414/Documents/STM32/meteo-F4/lvgl/src/lv_font/lv_font_unscii_16.c.obj
LOAD CMakeFiles/stm32-chibios.dir/C_/Users/error414/Documents/STM32/meteo-F4/lvgl/src/lv_font/lv_font_unscii_8.c.obj
LOAD CMakeFiles/stm32-chibios.dir/C_/Users/error414/Documents/STM32/meteo-F4/lvgl/src/lv_font/montserrat_10medium_1bp.c.obj
LOAD CMakeFiles/stm32-chibios.dir/C_/Users/error414/Documents/STM32/meteo-F4/lvgl/src/lv_font/montserrat_12medium_1bp.c.obj
LOAD CMakeFiles/stm32-chibios.dir/C_/Users/error414/Documents/STM32/meteo-F4/lvgl/src/lv_font/montserrat_12medium_4bp.c.obj
LOAD CMakeFiles/stm32-chibios.dir/C_/Users/error414/Documents/STM32/meteo-F4/lvgl/src/lv_font/montserrat_14medium_1bp.c.obj
LOAD CMakeFiles/stm32-chibios.dir/C_/Users/error414/Documents/STM32/meteo-F4/lvgl/src/lv_font/montserrat_14medium_4bp.c.obj
LOAD CMakeFiles/stm32-chibios.dir/C_/Users/error414/Documents/STM32/meteo-F4/lvgl/src/lv_gpu/lv_gpu_nxp_pxp.c.obj
LOAD CMakeFiles/stm32-chibios.dir/C_/Users/error414/Documents/STM32/meteo-F4/lvgl/src/lv_gpu/lv_gpu_nxp_pxp_osa.c.obj
LOAD CMakeFiles/stm32-chibios.dir/C_/Users/error414/Documents/STM32/meteo-F4/lvgl/src/lv_gpu/lv_gpu_nxp_vglite.c.obj
LOAD CMakeFiles/stm32-chibios.dir/C_/Users/error414/Documents/STM32/meteo-F4/lvgl/src/lv_gpu/lv_gpu_stm32_dma2d.c.obj
LOAD CMakeFiles/stm32-chibios.dir/C_/Users/error414/Documents/STM32/meteo-F4/lvgl/src/lv_hal/lv_hal_disp.c.obj
LOAD CMakeFiles/stm32-chibios.dir/C_/Users/error414/Documents/STM32/meteo-F4/lvgl/src/lv_hal/lv_hal_indev.c.obj
LOAD CMakeFiles/stm32-chibios.dir/C_/Users/error414/Documents/STM32/meteo-F4/lvgl/src/lv_hal/lv_hal_tick.c.obj
LOAD CMakeFiles/stm32-chibios.dir/C_/Users/error414/Documents/STM32/meteo-F4/lvgl/src/lv_misc/lv_anim.c.obj
LOAD CMakeFiles/stm32-chibios.dir/C_/Users/error414/Documents/STM32/meteo-F4/lvgl/src/lv_misc/lv_area.c.obj
LOAD CMakeFiles/stm32-chibios.dir/C_/Users/error414/Documents/STM32/meteo-F4/lvgl/src/lv_misc/lv_async.c.obj
LOAD CMakeFiles/stm32-chibios.dir/C_/Users/error414/Documents/STM32/meteo-F4/lvgl/src/lv_misc/lv_bidi.c.obj
LOAD CMakeFiles/stm32-chibios.dir/C_/Users/error414/Documents/STM32/meteo-F4/lvgl/src/lv_misc/lv_color.c.obj
LOAD CMakeFiles/stm32-chibios.dir/C_/Users/error414/Documents/STM32/meteo-F4/lvgl/src/lv_misc/lv_debug.c.obj
LOAD CMakeFiles/stm32-chibios.dir/C_/Users/error414/Documents/STM32/meteo-F4/lvgl/src/lv_misc/lv_fs.c.obj
LOAD CMakeFiles/stm32-chibios.dir/C_/Users/error414/Documents/STM32/meteo-F4/lvgl/src/lv_misc/lv_gc.c.obj
LOAD CMakeFiles/stm32-chibios.dir/C_/Users/error414/Documents/STM32/meteo-F4/lvgl/src/lv_misc/lv_ll.c.obj
LOAD CMakeFiles/stm32-chibios.dir/C_/Users/error414/Documents/STM32/meteo-F4/lvgl/src/lv_misc/lv_log.c.obj
LOAD CMakeFiles/stm32-chibios.dir/C_/Users/error414/Documents/STM32/meteo-F4/lvgl/src/lv_misc/lv_math.c.obj
LOAD CMakeFiles/stm32-chibios.dir/C_/Users/error414/Documents/STM32/meteo-F4/lvgl/src/lv_misc/lv_mem.c.obj
LOAD CMakeFiles/stm32-chibios.dir/C_/Users/error414/Documents/STM32/meteo-F4/lvgl/src/lv_misc/lv_printf.c.obj
LOAD CMakeFiles/stm32-chibios.dir/C_/Users/error414/Documents/STM32/meteo-F4/lvgl/src/lv_misc/lv_task.c.obj
LOAD CMakeFiles/stm32-chibios.dir/C_/Users/error414/Documents/STM32/meteo-F4/lvgl/src/lv_misc/lv_templ.c.obj
LOAD CMakeFiles/stm32-chibios.dir/C_/Users/error414/Documents/STM32/meteo-F4/lvgl/src/lv_misc/lv_txt.c.obj
LOAD CMakeFiles/stm32-chibios.dir/C_/Users/error414/Documents/STM32/meteo-F4/lvgl/src/lv_misc/lv_txt_ap.c.obj
LOAD CMakeFiles/stm32-chibios.dir/C_/Users/error414/Documents/STM32/meteo-F4/lvgl/src/lv_misc/lv_utils.c.obj
LOAD CMakeFiles/stm32-chibios.dir/C_/Users/error414/Documents/STM32/meteo-F4/lvgl/src/lv_themes/lv_theme.c.obj
LOAD CMakeFiles/stm32-chibios.dir/C_/Users/error414/Documents/STM32/meteo-F4/lvgl/src/lv_themes/lv_theme_empty.c.obj
LOAD CMakeFiles/stm32-chibios.dir/C_/Users/error414/Documents/STM32/meteo-F4/lvgl/src/lv_themes/lv_theme_material.c.obj
LOAD CMakeFiles/stm32-chibios.dir/C_/Users/error414/Documents/STM32/meteo-F4/lvgl/src/lv_themes/lv_theme_mono.c.obj
LOAD CMakeFiles/stm32-chibios.dir/C_/Users/error414/Documents/STM32/meteo-F4/lvgl/src/lv_themes/lv_theme_template.c.obj
LOAD CMakeFiles/stm32-chibios.dir/C_/Users/error414/Documents/STM32/meteo-F4/lvgl/src/lv_widgets/lv_arc.c.obj
LOAD CMakeFiles/stm32-chibios.dir/C_/Users/error414/Documents/STM32/meteo-F4/lvgl/src/lv_widgets/lv_bar.c.obj
LOAD CMakeFiles/stm32-chibios.dir/C_/Users/error414/Documents/STM32/meteo-F4/lvgl/src/lv_widgets/lv_btn.c.obj
LOAD CMakeFiles/stm32-chibios.dir/C_/Users/error414/Documents/STM32/meteo-F4/lvgl/src/lv_widgets/lv_btnmatrix.c.obj
LOAD CMakeFiles/stm32-chibios.dir/C_/Users/error414/Documents/STM32/meteo-F4/lvgl/src/lv_widgets/lv_calendar.c.obj
LOAD CMakeFiles/stm32-chibios.dir/C_/Users/error414/Documents/STM32/meteo-F4/lvgl/src/lv_widgets/lv_canvas.c.obj
LOAD CMakeFiles/stm32-chibios.dir/C_/Users/error414/Documents/STM32/meteo-F4/lvgl/src/lv_widgets/lv_chart.c.obj
LOAD CMakeFiles/stm32-chibios.dir/C_/Users/error414/Documents/STM32/meteo-F4/lvgl/src/lv_widgets/lv_checkbox.c.obj
LOAD CMakeFiles/stm32-chibios.dir/C_/Users/error414/Documents/STM32/meteo-F4/lvgl/src/lv_widgets/lv_cont.c.obj
LOAD CMakeFiles/stm32-chibios.dir/C_/Users/error414/Documents/STM32/meteo-F4/lvgl/src/lv_widgets/lv_cpicker.c.obj
LOAD CMakeFiles/stm32-chibios.dir/C_/Users/error414/Documents/STM32/meteo-F4/lvgl/src/lv_widgets/lv_dropdown.c.obj
LOAD CMakeFiles/stm32-chibios.dir/C_/Users/error414/Documents/STM32/meteo-F4/lvgl/src/lv_widgets/lv_gauge.c.obj
LOAD CMakeFiles/stm32-chibios.dir/C_/Users/error414/Documents/STM32/meteo-F4/lvgl/src/lv_widgets/lv_img.c.obj
LOAD CMakeFiles/stm32-chibios.dir/C_/Users/error414/Documents/STM32/meteo-F4/lvgl/src/lv_widgets/lv_imgbtn.c.obj
LOAD CMakeFiles/stm32-chibios.dir/C_/Users/error414/Documents/STM32/meteo-F4/lvgl/src/lv_widgets/lv_keyboard.c.obj
LOAD CMakeFiles/stm32-chibios.dir/C_/Users/error414/Documents/STM32/meteo-F4/lvgl/src/lv_widgets/lv_label.c.obj
LOAD CMakeFiles/stm32-chibios.dir/C_/Users/error414/Documents/STM32/meteo-F4/lvgl/src/lv_widgets/lv_led.c.obj
LOAD CMakeFiles/stm32-chibios.dir/C_/Users/error414/Documents/STM32/meteo-F4/lvgl/src/lv_widgets/lv_line.c.obj
LOAD CMakeFiles/stm32-chibios.dir/C_/Users/error414/Documents/STM32/meteo-F4/lvgl/src/lv_widgets/lv_linemeter.c.obj
LOAD CMakeFiles/stm32-chibios.dir/C_/Users/error414/Documents/STM32/meteo-F4/lvgl/src/lv_widgets/lv_list.c.obj
LOAD CMakeFiles/stm32-chibios.dir/C_/Users/error414/Documents/STM32/meteo-F4/lvgl/src/lv_widgets/lv_msgbox.c.obj
LOAD CMakeFiles/stm32-chibios.dir/C_/Users/error414/Documents/STM32/meteo-F4/lvgl/src/lv_widgets/lv_objmask.c.obj
LOAD CMakeFiles/stm32-chibios.dir/C_/Users/error414/Documents/STM32/meteo-F4/lvgl/src/lv_widgets/lv_objx_templ.c.obj
LOAD CMakeFiles/stm32-chibios.dir/C_/Users/error414/Documents/STM32/meteo-F4/lvgl/src/lv_widgets/lv_page.c.obj
LOAD CMakeFiles/stm32-chibios.dir/C_/Users/error414/Documents/STM32/meteo-F4/lvgl/src/lv_widgets/lv_roller.c.obj
LOAD CMakeFiles/stm32-chibios.dir/C_/Users/error414/Documents/STM32/meteo-F4/lvgl/src/lv_widgets/lv_slider.c.obj
LOAD CMakeFiles/stm32-chibios.dir/C_/Users/error414/Documents/STM32/meteo-F4/lvgl/src/lv_widgets/lv_spinbox.c.obj
LOAD CMakeFiles/stm32-chibios.dir/C_/Users/error414/Documents/STM32/meteo-F4/lvgl/src/lv_widgets/lv_spinner.c.obj
LOAD CMakeFiles/stm32-chibios.dir/C_/Users/error414/Documents/STM32/meteo-F4/lvgl/src/lv_widgets/lv_switch.c.obj
LOAD CMakeFiles/stm32-chibios.dir/C_/Users/error414/Documents/STM32/meteo-F4/lvgl/src/lv_widgets/lv_table.c.obj
LOAD CMakeFiles/stm32-chibios.dir/C_/Users/error414/Documents/STM32/meteo-F4/lvgl/src/lv_widgets/lv_tabview.c.obj
LOAD CMakeFiles/stm32-chibios.dir/C_/Users/error414/Documents/STM32/meteo-F4/lvgl/src/lv_widgets/lv_textarea.c.obj
LOAD CMakeFiles/stm32-chibios.dir/C_/Users/error414/Documents/STM32/meteo-F4/lvgl/src/lv_widgets/lv_tileview.c.obj
LOAD CMakeFiles/stm32-chibios.dir/C_/Users/error414/Documents/STM32/meteo-F4/lvgl/src/lv_widgets/lv_win.c.obj
LOAD CMakeFiles/stm32-chibios.dir/main.c.obj
LOAD CMakeFiles/stm32-chibios.dir/shell/shell.c.obj
LOAD CMakeFiles/stm32-chibios.dir/shell/shellCmd.c.obj
LOAD CMakeFiles/stm32-chibios.dir/cfg/board.c.obj
LOAD CMakeFiles/stm32-chibios.dir/cfg/hw.c.obj
LOAD CMakeFiles/stm32-chibios.dir/images/fc_cloud.c.obj
LOAD CMakeFiles/stm32-chibios.dir/images/fc_part_clound.c.obj
LOAD CMakeFiles/stm32-chibios.dir/images/fc_rain.c.obj
LOAD CMakeFiles/stm32-chibios.dir/images/fc_snow.c.obj
LOAD CMakeFiles/stm32-chibios.dir/images/humidity36.c.obj
LOAD CMakeFiles/stm32-chibios.dir/images/pressure36.c.obj
LOAD CMakeFiles/stm32-chibios.dir/images/rain36.c.obj
LOAD CMakeFiles/stm32-chibios.dir/images/sun36.c.obj
LOAD CMakeFiles/stm32-chibios.dir/images/temp.c.obj
LOAD CMakeFiles/stm32-chibios.dir/images/uv36.c.obj
LOAD CMakeFiles/stm32-chibios.dir/images/wind36.c.obj
LOAD CMakeFiles/stm32-chibios.dir/font/digital_16.c.obj
LOAD CMakeFiles/stm32-chibios.dir/font/digital_20.c.obj
LOAD CMakeFiles/stm32-chibios.dir/font/digital_48.c.obj
LOAD CMakeFiles/stm32-chibios.dir/font/dogica12.c.obj
LOAD CMakeFiles/stm32-chibios.dir/font/omega12.c.obj
LOAD CMakeFiles/stm32-chibios.dir/font/omega16.c.obj
LOAD CMakeFiles/stm32-chibios.dir/font/omega20.c.obj
LOAD CMakeFiles/stm32-chibios.dir/font/press12.c.obj
LOAD CMakeFiles/stm32-chibios.dir/font/press14.c.obj
LOAD CMakeFiles/stm32-chibios.dir/font/press16.c.obj
LOAD CMakeFiles/stm32-chibios.dir/font/retro12.c.obj
LOAD CMakeFiles/stm32-chibios.dir/font/retro20.c.obj
LOAD CMakeFiles/stm32-chibios.dir/font/upheaval16.c.obj
LOAD CMakeFiles/stm32-chibios.dir/font/upheaval20.c.obj
LOAD CMakeFiles/stm32-chibios.dir/font/upheaval30.c.obj
LOAD CMakeFiles/stm32-chibios.dir/font/upheaval48.c.obj
LOAD CMakeFiles/stm32-chibios.dir/gui/guHeader.c.obj
LOAD CMakeFiles/stm32-chibios.dir/gui/guiForecast.c.obj
LOAD CMakeFiles/stm32-chibios.dir/gui/guiMain.c.obj
LOAD CMakeFiles/stm32-chibios.dir/gui/guiOutside.c.obj
LOAD CMakeFiles/stm32-chibios.dir/drivers/EPD_7in5_HD.c.obj
LOAD CMakeFiles/stm32-chibios.dir/drivers/msp.c.obj
LOAD CMakeFiles/stm32-chibios.dir/threads/guiThread.c.obj
LOAD CMakeFiles/stm32-chibios.dir/threads/hc12Thread.c.obj
LOAD CMakeFiles/stm32-chibios.dir/threads/mspRxThread.c.obj
LOAD CMakeFiles/stm32-chibios.dir/threads/pools.c.obj
LOAD c:/users/error414/documents/stm32-tools/gcc-arm-none-eabi-10-2020-q4-major/bin/../lib/gcc/arm-none-eabi/10.2.1/../../../../arm-none-eabi/lib/thumb/v7e-m/nofp\libm.a
LOAD c:/users/error414/documents/stm32-tools/gcc-arm-none-eabi-10-2020-q4-major/bin/../lib/gcc/arm-none-eabi/10.2.1/../../../../arm-none-eabi/lib/thumb/v7e-m/nofp\libnosys.a
START GROUP
LOAD c:/users/error414/documents/stm32-tools/gcc-arm-none-eabi-10-2020-q4-major/bin/../lib/gcc/arm-none-eabi/10.2.1/thumb/v7e-m/nofp\libgcc.a
LOAD c:/users/error414/documents/stm32-tools/gcc-arm-none-eabi-10-2020-q4-major/bin/../lib/gcc/arm-none-eabi/10.2.1/../../../../arm-none-eabi/lib/thumb/v7e-m/nofp\libg.a
LOAD c:/users/error414/documents/stm32-tools/gcc-arm-none-eabi-10-2020-q4-major/bin/../lib/gcc/arm-none-eabi/10.2.1/../../../../arm-none-eabi/lib/thumb/v7e-m/nofp\libc.a
END GROUP

.mstack         0x20000000      0x190
                0x20000000                . = ALIGN (0x8)
                0x20000000                __main_stack_base__ = .
                0x20000190                . = (. + __main_stack_size__)
 *fill*         0x20000000      0x190 
                0x20000190                . = ALIGN (0x8)
                0x20000190                __main_stack_end__ = .

.pstack         0x20000190      0x190
                0x20000190                . = ALIGN (0x8)
                0x20000190                __process_stack_base__ = .
                0x20000190                __main_thread_stack_base__ = .
                0x20000320                . = (. + __process_stack_size__)
 *fill*         0x20000190      0x190 
                0x20000320                . = ALIGN (0x8)
                0x20000320                __process_stack_end__ = .
                0x20000320                __main_thread_stack_end__ = .

.vectors        0x08000000      0x1e0
 *(.vectors)
 .vectors       0x08000000      0x1e0 CMakeFiles/stm32-chibios.dir/C_/Users/error414/Documents/STM32/meteo-F4/ChibiOS/os/common/startup/ARMCMx/compilers/GCC/vectors.S.obj
                0x08000000                _vectors

.xtors          0x080001e0        0x0
                0x080001e0                __init_array_base__ = .
 *(SORT_BY_NAME(.init_array.*))
 *(.init_array)
                0x080001e0                __init_array_end__ = .
                0x080001e0                __fini_array_base__ = .
 *(.fini_array)
 *(SORT_BY_NAME(.fini_array.*))
                0x080001e0                __fini_array_end__ = .

.text           0x08000200    0x18544
                0x08000200                __text_base__ = .
 *(.text)
 .text          0x08000200        0x0 C:\Users\error414\AppData\Local\Temp\stm32-chibios.c1tKpx.ltrans0.ltrans.o
 .text          0x08000200        0x0 C:\Users\error414\AppData\Local\Temp\stm32-chibios.c1tKpx.ltrans1.ltrans.o
 .text          0x08000200        0x0 C:\Users\error414\AppData\Local\Temp\stm32-chibios.c1tKpx.ltrans2.ltrans.o
 .text          0x08000200        0x0 C:\Users\error414\AppData\Local\Temp\stm32-chibios.c1tKpx.ltrans3.ltrans.o
 .text          0x08000200      0x120 CMakeFiles/stm32-chibios.dir/C_/Users/error414/Documents/STM32/meteo-F4/ChibiOS/os/common/startup/ARMCMx/compilers/GCC/crt0_v7m.S.obj
                0x08000200                _crt0_entry
 .text          0x08000320        0x8 CMakeFiles/stm32-chibios.dir/C_/Users/error414/Documents/STM32/meteo-F4/ChibiOS/os/common/startup/ARMCMx/compilers/GCC/vectors.S.obj
                0x08000320                Reset_Handler
                0x08000322                DebugMon_Handler
                0x08000322                Vector1A0
                0x08000322                Vector11C
                0x08000322                HardFault_Handler
                0x08000322                Vector1B8
                0x08000322                Vector19C
                0x08000322                Vector8C
                0x08000322                SysTick_Handler
                0x08000322                VectorDC
                0x08000322                PendSV_Handler
                0x08000322                Vector168
                0x08000322                NMI_Handler
                0x08000322                Vector110
                0x08000322                Vector1D8
                0x08000322                VectorC8
                0x08000322                Vector94
                0x08000322                Vector160
                0x08000322                Vector1B0
                0x08000322                UsageFault_Handler
                0x08000322                VectorEC
                0x08000322                Vector40
                0x08000322                VectorF8
                0x08000322                Vector108
                0x08000322                Vector190
                0x08000322                Vector1C4
                0x08000322                Vector1CC
                0x08000322                Vector148
                0x08000322                Vector188
                0x08000322                Vector198
                0x08000322                Vector118
                0x08000322                VectorE8
                0x08000322                VectorCC
                0x08000322                Vector54
                0x08000322                Vector98
                0x08000322                Vector138
                0x08000322                Vector24
                0x08000322                Vector1AC
                0x08000322                Vector178
                0x08000322                SecureFault_Handler
                0x08000322                Vector1A4
                0x08000322                VectorD0
                0x08000322                Vector1B4
                0x08000322                Vector140
                0x08000322                VectorE4
                0x08000322                Vector1C0
                0x08000322                Vector134
                0x08000322                Vector1D0
                0x08000322                VectorF0
                0x08000322                Vector13C
                0x08000322                Vector100
                0x08000322                VectorF4
                0x08000322                MemManage_Handler
                0x08000322                VectorC4
                0x08000322                Vector180
                0x08000322                Vector90
                0x08000322                Vector114
                0x08000322                Vector164
                0x08000322                Vector1BC
                0x08000322                Vector1D4
                0x08000322                Vector17C
                0x08000322                Vector48
                0x08000322                Vector1A8
                0x08000322                Vector16C
                0x08000322                VectorD4
                0x08000322                Vector4C
                0x08000322                Vector144
                0x08000322                Vector15C
                0x08000322                Vector18C
                0x08000322                Vector170
                0x08000322                Vector88
                0x08000322                Vector104
                0x08000322                Vector184
                0x08000322                Vector10C
                0x08000322                Vector14C
                0x08000322                BusFault_Handler
                0x08000322                Vector50
                0x08000322                Vector1C8
                0x08000322                Vector194
                0x08000322                Vector1DC
                0x08000322                Vector44
                0x08000322                Vector28
                0x08000322                VectorB8
                0x08000322                Vector34
                0x08000322                Vector20
                0x08000322                Vector174
                0x08000326                _unhandled_exception
 .text          0x08000328       0x3e CMakeFiles/stm32-chibios.dir/C_/Users/error414/Documents/STM32/meteo-F4/ChibiOS/os/common/ports/ARMv7-M/compilers/GCC/chcoreasm.S.obj
                0x08000328                __port_switch
                0x08000340                __port_thread_start
                0x08000356                __port_switch_from_isr
                0x08000362                __port_exit_from_isr
 .text          0x08000366        0x0 c:/users/error414/documents/stm32-tools/gcc-arm-none-eabi-10-2020-q4-major/bin/../lib/gcc/arm-none-eabi/10.2.1/../../../../arm-none-eabi/lib/thumb/v7e-m/nofp\libg.a(lib_a-ctype_.o)
 .text          0x08000366        0x0 c:/users/error414/documents/stm32-tools/gcc-arm-none-eabi-10-2020-q4-major/bin/../lib/gcc/arm-none-eabi/10.2.1/../../../../arm-none-eabi/lib/thumb/v7e-m/nofp\libg.a(lib_a-memcmp.o)
 *fill*         0x08000366        0x2 
 .text          0x08000368      0x134 c:/users/error414/documents/stm32-tools/gcc-arm-none-eabi-10-2020-q4-major/bin/../lib/gcc/arm-none-eabi/10.2.1/../../../../arm-none-eabi/lib/thumb/v7e-m/nofp\libg.a(lib_a-memcpy.o)
                0x08000368                memcpy
 .text          0x0800049c        0x0 c:/users/error414/documents/stm32-tools/gcc-arm-none-eabi-10-2020-q4-major/bin/../lib/gcc/arm-none-eabi/10.2.1/../../../../arm-none-eabi/lib/thumb/v7e-m/nofp\libg.a(lib_a-strcpy.o)
 *fill*         0x0800049c       0x24 
 .text          0x080004c0       0xdc c:/users/error414/documents/stm32-tools/gcc-arm-none-eabi-10-2020-q4-major/bin/../lib/gcc/arm-none-eabi/10.2.1/../../../../arm-none-eabi/lib/thumb/v7e-m/nofp\libg.a(lib_a-strlen.o)
                0x080004c0                strlen
 .text          0x0800059c        0x0 c:/users/error414/documents/stm32-tools/gcc-arm-none-eabi-10-2020-q4-major/bin/../lib/gcc/arm-none-eabi/10.2.1/../../../../arm-none-eabi/lib/thumb/v7e-m/nofp\libg.a(lib_a-strncpy.o)
 *(.text.*)
 *fill*         0x0800059c        0x4 
 .text.stGetCounter
                0x080005a0        0x8 C:\Users\error414\AppData\Local\Temp\stm32-chibios.c1tKpx.ltrans0.ltrans.o
 *fill*         0x080005a8        0x8 
 .text.stStopAlarm
                0x080005b0        0xc C:\Users\error414\AppData\Local\Temp\stm32-chibios.c1tKpx.ltrans0.ltrans.o
 *fill*         0x080005bc        0x4 
 .text.stIsAlarmActive
                0x080005c0        0xc C:\Users\error414\AppData\Local\Temp\stm32-chibios.c1tKpx.ltrans0.ltrans.o
 *fill*         0x080005cc        0x4 
 .text.iqObjectInit
                0x080005d0       0x20 C:\Users\error414\AppData\Local\Temp\stm32-chibios.c1tKpx.ltrans0.ltrans.o
 .text.oqObjectInit
                0x080005f0       0x18 C:\Users\error414\AppData\Local\Temp\stm32-chibios.c1tKpx.ltrans0.ltrans.o
 *fill*         0x08000608        0x8 
 .text.pwmObjectInit
                0x08000610       0x10 C:\Users\error414\AppData\Local\Temp\stm32-chibios.c1tKpx.ltrans0.ltrans.o
 .text.sdObjectInit
                0x08000620       0x40 C:\Users\error414\AppData\Local\Temp\stm32-chibios.c1tKpx.ltrans0.ltrans.o
 .text.nvicEnableVector
                0x08000660       0x28 C:\Users\error414\AppData\Local\Temp\stm32-chibios.c1tKpx.ltrans0.ltrans.o
 *fill*         0x08000688        0x8 
 .text.irqInit  0x08000690       0x74 C:\Users\error414\AppData\Local\Temp\stm32-chibios.c1tKpx.ltrans0.ltrans.o
 *fill*         0x08000704        0xc 
 .text.hal_lld_backup_domain_init
                0x08000710       0x38 C:\Users\error414\AppData\Local\Temp\stm32-chibios.c1tKpx.ltrans0.ltrans.o
 *fill*         0x08000748        0x8 
 .text.dmaInit  0x08000750       0x44 C:\Users\error414\AppData\Local\Temp\stm32-chibios.c1tKpx.ltrans0.ltrans.o
 *fill*         0x08000794        0xc 
 .text.hal_lld_init
                0x080007a0       0x68 C:\Users\error414\AppData\Local\Temp\stm32-chibios.c1tKpx.ltrans0.ltrans.o
 *fill*         0x08000808        0x8 
 .text._pal_lld_init
                0x08000810       0x20 C:\Users\error414\AppData\Local\Temp\stm32-chibios.c1tKpx.ltrans0.ltrans.o
 .text.i2c_lld_abort_operation
                0x08000830       0x58 C:\Users\error414\AppData\Local\Temp\stm32-chibios.c1tKpx.ltrans0.ltrans.o
 *fill*         0x08000888        0x8 
 .text.st_lld_init
                0x08000890       0x48 C:\Users\error414\AppData\Local\Temp\stm32-chibios.c1tKpx.ltrans0.ltrans.o
 *fill*         0x080008d8        0x8 
 .text.stInit   0x080008e0        0x8 C:\Users\error414\AppData\Local\Temp\stm32-chibios.c1tKpx.ltrans0.ltrans.o
 *fill*         0x080008e8        0x8 
 .text.pwm_lld_init
                0x080008f0       0x34 C:\Users\error414\AppData\Local\Temp\stm32-chibios.c1tKpx.ltrans0.ltrans.o
 *fill*         0x08000924        0xc 
 .text.pwmInit  0x08000930        0x8 C:\Users\error414\AppData\Local\Temp\stm32-chibios.c1tKpx.ltrans0.ltrans.o
 *fill*         0x08000938        0x8 
 .text.pwm_lld_serve_interrupt
                0x08000940       0x64 C:\Users\error414\AppData\Local\Temp\stm32-chibios.c1tKpx.ltrans0.ltrans.o
 *fill*         0x080009a4        0xc 
 .text.notify2  0x080009b0       0x10 C:\Users\error414\AppData\Local\Temp\stm32-chibios.c1tKpx.ltrans0.ltrans.o
 .text.sd_lld_init
                0x080009c0       0x28 C:\Users\error414\AppData\Local\Temp\stm32-chibios.c1tKpx.ltrans0.ltrans.o
 *fill*         0x080009e8        0x8 
 .text.sdInit   0x080009f0        0x8 C:\Users\error414\AppData\Local\Temp\stm32-chibios.c1tKpx.ltrans0.ltrans.o
 *fill*         0x080009f8        0x8 
 .text.vt_list_compress
                0x08000a00       0x24 C:\Users\error414\AppData\Local\Temp\stm32-chibios.c1tKpx.ltrans0.ltrans.o
 *fill*         0x08000a24        0xc 
 .text.chSchIsPreemptionRequired
                0x08000a30       0x18 C:\Users\error414\AppData\Local\Temp\stm32-chibios.c1tKpx.ltrans0.ltrans.o
 *fill*         0x08000a48        0x8 
 .text.__idle_thread
                0x08000a50        0x4 C:\Users\error414\AppData\Local\Temp\stm32-chibios.c1tKpx.ltrans0.ltrans.o
 *fill*         0x08000a54        0xc 
 .text.__thd_object_init
                0x08000a60       0x48 C:\Users\error414\AppData\Local\Temp\stm32-chibios.c1tKpx.ltrans0.ltrans.o
 *fill*         0x08000aa8        0x8 
 .text.__thd_memfill
                0x08000ab0        0xc C:\Users\error414\AppData\Local\Temp\stm32-chibios.c1tKpx.ltrans0.ltrans.o
 *fill*         0x08000abc        0x4 
 .text.chTMObjectInit
                0x08000ac0       0x18 C:\Users\error414\AppData\Local\Temp\stm32-chibios.c1tKpx.ltrans0.ltrans.o
 *fill*         0x08000ad8        0x8 
 .text.chTMStartMeasurementX
                0x08000ae0        0xc C:\Users\error414\AppData\Local\Temp\stm32-chibios.c1tKpx.ltrans0.ltrans.o
 *fill*         0x08000aec        0x4 
 .text.chTMStopMeasurementX
                0x08000af0       0x40 C:\Users\error414\AppData\Local\Temp\stm32-chibios.c1tKpx.ltrans0.ltrans.o
 .text.__core_init
                0x08000b30       0x18 C:\Users\error414\AppData\Local\Temp\stm32-chibios.c1tKpx.ltrans0.ltrans.o
 *fill*         0x08000b48        0x8 
 .text.port_init
                0x08000b50       0x48 C:\Users\error414\AppData\Local\Temp\stm32-chibios.c1tKpx.ltrans0.ltrans.o
 *fill*         0x08000b98        0x8 
 .text.__port_irq_epilogue
                0x08000ba0       0x54 C:\Users\error414\AppData\Local\Temp\stm32-chibios.c1tKpx.ltrans0.ltrans.o
 *fill*         0x08000bf4        0xc 
 .text.lv_group_get_focused
                0x08000c00        0xc C:\Users\error414\AppData\Local\Temp\stm32-chibios.c1tKpx.ltrans0.ltrans.o
 *fill*         0x08000c0c        0x4 
 .text.lv_group_get_editing
                0x08000c10       0x10 C:\Users\error414\AppData\Local\Temp\stm32-chibios.c1tKpx.ltrans0.ltrans.o
 .text.lv_indev_get_act
                0x08000c20        0x4 C:\Users\error414\AppData\Local\Temp\stm32-chibios.c1tKpx.ltrans0.ltrans.o
 *fill*         0x08000c24        0xc 
 .text.lv_indev_get_obj_act
                0x08000c30        0xc C:\Users\error414\AppData\Local\Temp\stm32-chibios.c1tKpx.ltrans0.ltrans.o
 *fill*         0x08000c3c        0x4 
 .text.lv_event_send_func
                0x08000c40       0x94 C:\Users\error414\AppData\Local\Temp\stm32-chibios.c1tKpx.ltrans0.ltrans.o
 *fill*         0x08000cd4        0xc 
 .text.lv_event_send
                0x08000ce0       0x18 C:\Users\error414\AppData\Local\Temp\stm32-chibios.c1tKpx.ltrans0.ltrans.o
 *fill*         0x08000cf8        0x8 
 .text.lv_signal_send
                0x08000d00       0x14 C:\Users\error414\AppData\Local\Temp\stm32-chibios.c1tKpx.ltrans0.ltrans.o
 *fill*         0x08000d14        0xc 
 .text.lv_obj_get_focus_parent
                0x08000d20        0xc C:\Users\error414\AppData\Local\Temp\stm32-chibios.c1tKpx.ltrans0.ltrans.o
 *fill*         0x08000d2c        0x4 
 .text.lv_obj_get_state
                0x08000d30       0x2c C:\Users\error414\AppData\Local\Temp\stm32-chibios.c1tKpx.ltrans0.ltrans.o
 *fill*         0x08000d5c        0x4 
 .text.lv_obj_get_group
                0x08000d60        0x4 C:\Users\error414\AppData\Local\Temp\stm32-chibios.c1tKpx.ltrans0.ltrans.o
 *fill*         0x08000d64        0xc 
 .text.lv_obj_is_focused
                0x08000d70       0x1c C:\Users\error414\AppData\Local\Temp\stm32-chibios.c1tKpx.ltrans0.ltrans.o
 *fill*         0x08000d8c        0x4 
 .text.refresh_children_position
                0x08000d90       0x4c C:\Users\error414\AppData\Local\Temp\stm32-chibios.c1tKpx.ltrans0.ltrans.o
 *fill*         0x08000ddc        0x4 
 .text.lv_event_mark_deleted
                0x08000de0       0x1c C:\Users\error414\AppData\Local\Temp\stm32-chibios.c1tKpx.ltrans0.ltrans.o
 *fill*         0x08000dfc        0x4 
 .text.style_prop_is_cacheble
                0x08000e00      0x120 C:\Users\error414\AppData\Local\Temp\stm32-chibios.c1tKpx.ltrans0.ltrans.o
 .text._lv_refr_init
                0x08000f20        0x4 C:\Users\error414\AppData\Local\Temp\stm32-chibios.c1tKpx.ltrans0.ltrans.o
 *fill*         0x08000f24        0xc 
 .text._lv_style_get_mem_size
                0x08000f30       0x4c C:\Users\error414\AppData\Local\Temp\stm32-chibios.c1tKpx.ltrans0.ltrans.o
 *fill*         0x08000f7c        0x4 
 .text.get_property_index
                0x08000f80       0xa0 C:\Users\error414\AppData\Local\Temp\stm32-chibios.c1tKpx.ltrans0.ltrans.o
 .text._lv_style_get_int
                0x08001020      0x104 C:\Users\error414\AppData\Local\Temp\stm32-chibios.c1tKpx.ltrans0.ltrans.o
 *fill*         0x08001124        0xc 
 .text._lv_style_get_opa
                0x08001130      0x104 C:\Users\error414\AppData\Local\Temp\stm32-chibios.c1tKpx.ltrans0.ltrans.o
 *fill*         0x08001234        0xc 
 .text._lv_style_get_color
                0x08001240      0x104 C:\Users\error414\AppData\Local\Temp\stm32-chibios.c1tKpx.ltrans0.ltrans.o
 *fill*         0x08001344        0xc 
 .text._lv_style_get_ptr
                0x08001350      0x104 C:\Users\error414\AppData\Local\Temp\stm32-chibios.c1tKpx.ltrans0.ltrans.o
 *fill*         0x08001454        0xc 
 .text.lv_style_list_get_local_style
                0x08001460       0x20 C:\Users\error414\AppData\Local\Temp\stm32-chibios.c1tKpx.ltrans0.ltrans.o
 .text._lv_style_list_get_transition_style
                0x08001480       0x14 C:\Users\error414\AppData\Local\Temp\stm32-chibios.c1tKpx.ltrans0.ltrans.o
 *fill*         0x08001494        0xc 
 .text._lv_style_list_get_int
                0x080014a0       0xcc C:\Users\error414\AppData\Local\Temp\stm32-chibios.c1tKpx.ltrans0.ltrans.o
 *fill*         0x0800156c        0x4 
 .text._lv_style_list_get_color
                0x08001570       0xc8 C:\Users\error414\AppData\Local\Temp\stm32-chibios.c1tKpx.ltrans0.ltrans.o
 *fill*         0x08001638        0x8 
 .text._lv_style_list_get_opa
                0x08001640       0xcc C:\Users\error414\AppData\Local\Temp\stm32-chibios.c1tKpx.ltrans0.ltrans.o
 *fill*         0x0800170c        0x4 
 .text._lv_style_list_get_ptr
                0x08001710       0xc0 C:\Users\error414\AppData\Local\Temp\stm32-chibios.c1tKpx.ltrans0.ltrans.o
 .text.lv_disp_get_scr_prev
                0x080017d0       0x18 C:\Users\error414\AppData\Local\Temp\stm32-chibios.c1tKpx.ltrans0.ltrans.o
 *fill*         0x080017e8        0x8 
 .text.lv_disp_get_layer_top
                0x080017f0       0x18 C:\Users\error414\AppData\Local\Temp\stm32-chibios.c1tKpx.ltrans0.ltrans.o
 *fill*         0x08001808        0x8 
 .text.lv_disp_get_layer_sys
                0x08001810       0x18 C:\Users\error414\AppData\Local\Temp\stm32-chibios.c1tKpx.ltrans0.ltrans.o
 *fill*         0x08001828        0x8 
 .text._lv_group_init
                0x08001830       0x10 C:\Users\error414\AppData\Local\Temp\stm32-chibios.c1tKpx.ltrans0.ltrans.o
 .text.lv_indev_reset
                0x08001840       0x68 C:\Users\error414\AppData\Local\Temp\stm32-chibios.c1tKpx.ltrans0.ltrans.o
 *fill*         0x080018a8        0x8 
 .text._lv_indev_init
                0x080018b0        0xc C:\Users\error414\AppData\Local\Temp\stm32-chibios.c1tKpx.ltrans0.ltrans.o
 *fill*         0x080018bc        0x4 
 .text.style_snapshot_compare
                0x080018c0      0x15c C:\Users\error414\AppData\Local\Temp\stm32-chibios.c1tKpx.ltrans0.ltrans.o
 *fill*         0x08001a1c        0x4 
 .text.lv_refr_join_area
                0x08001a20       0xe0 C:\Users\error414\AppData\Local\Temp\stm32-chibios.c1tKpx.ltrans0.ltrans.o
 .text.lv_style_copy
                0x08001b00       0x28 C:\Users\error414\AppData\Local\Temp\stm32-chibios.c1tKpx.ltrans0.ltrans.o
 *fill*         0x08001b28        0x8 
 .text._lv_style_list_remove_style
                0x08001b30       0xa0 C:\Users\error414\AppData\Local\Temp\stm32-chibios.c1tKpx.ltrans0.ltrans.o
 .text.__cpu_init
                0x08001bd0        0x4 C:\Users\error414\AppData\Local\Temp\stm32-chibios.c1tKpx.ltrans0.ltrans.o
                0x08001bd0                __cpu_init
 *fill*         0x08001bd4        0xc 
 .text.__late_init
                0x08001be0        0x4 C:\Users\error414\AppData\Local\Temp\stm32-chibios.c1tKpx.ltrans0.ltrans.o
                0x08001be0                __late_init
 *fill*         0x08001be4        0xc 
 .text.__default_exit
                0x08001bf0        0x4 C:\Users\error414\AppData\Local\Temp\stm32-chibios.c1tKpx.ltrans0.ltrans.o
                0x08001bf0                __default_exit
 *fill*         0x08001bf4        0xc 
 .text.__init_ram_areas
                0x08001c00       0x38 C:\Users\error414\AppData\Local\Temp\stm32-chibios.c1tKpx.ltrans0.ltrans.o
                0x08001c00                __init_ram_areas
 *fill*         0x08001c38        0x8 
 .text.stm32_clock_init
                0x08001c40      0x11c C:\Users\error414\AppData\Local\Temp\stm32-chibios.c1tKpx.ltrans0.ltrans.o
                0x08001c40                stm32_clock_init
 *fill*         0x08001d5c        0x4 
 .text._pal_lld_setgroupmode
                0x08001d60       0xd8 C:\Users\error414\AppData\Local\Temp\stm32-chibios.c1tKpx.ltrans0.ltrans.o
                0x08001d60                _pal_lld_setgroupmode
 *fill*         0x08001e38        0x8 
 .text.chSysHalt
                0x08001e40       0x18 C:\Users\error414\AppData\Local\Temp\stm32-chibios.c1tKpx.ltrans0.ltrans.o
                0x08001e40                chSysHalt
 *fill*         0x08001e58        0x8 
 .text.stStartAlarm
                0x08001e60       0x24 C:\Users\error414\AppData\Local\Temp\stm32-chibios.c1tKpx.ltrans0.ltrans.o
 *fill*         0x08001e84        0xc 
 .text.stSetAlarm
                0x08001e90       0x1c C:\Users\error414\AppData\Local\Temp\stm32-chibios.c1tKpx.ltrans0.ltrans.o
 *fill*         0x08001eac        0x4 
 .text.iq_read  0x08001eb0       0x74 C:\Users\error414\AppData\Local\Temp\stm32-chibios.c1tKpx.ltrans0.ltrans.o
 *fill*         0x08001f24        0xc 
 .text.oq_write
                0x08001f30       0x74 C:\Users\error414\AppData\Local\Temp\stm32-chibios.c1tKpx.ltrans0.ltrans.o
 *fill*         0x08001fa4        0xc 
 .text._ctl     0x08001fb0       0x28 C:\Users\error414\AppData\Local\Temp\stm32-chibios.c1tKpx.ltrans0.ltrans.o
 *fill*         0x08001fd8        0x8 
 .text.spi_lld_serve_tx_interrupt
                0x08001fe0       0x14 C:\Users\error414\AppData\Local\Temp\stm32-chibios.c1tKpx.ltrans0.ltrans.o
 *fill*         0x08001ff4        0xc 
 .text.spi_lld_send
                0x08002000       0x60 C:\Users\error414\AppData\Local\Temp\stm32-chibios.c1tKpx.ltrans0.ltrans.o
 .text.usart_init
                0x08002060       0x78 C:\Users\error414\AppData\Local\Temp\stm32-chibios.c1tKpx.ltrans0.ltrans.o
 *fill*         0x080020d8        0x8 
 .text.sd_lld_start
                0x080020e0       0x3c C:\Users\error414\AppData\Local\Temp\stm32-chibios.c1tKpx.ltrans0.ltrans.o
 *fill*         0x0800211c        0x4 
 .text.__dbg_check_lock_from_isr
                0x08002120       0x2c C:\Users\error414\AppData\Local\Temp\stm32-chibios.c1tKpx.ltrans0.ltrans.o
 *fill*         0x0800214c        0x4 
 .text.__dbg_check_unlock_from_isr
                0x08002150       0x30 C:\Users\error414\AppData\Local\Temp\stm32-chibios.c1tKpx.ltrans0.ltrans.o
 .text.__dbg_check_enter_isr
                0x08002180       0x3c C:\Users\error414\AppData\Local\Temp\stm32-chibios.c1tKpx.ltrans0.ltrans.o
 *fill*         0x080021bc        0x4 
 .text.__dbg_check_leave_isr
                0x080021c0       0x3c C:\Users\error414\AppData\Local\Temp\stm32-chibios.c1tKpx.ltrans0.ltrans.o
 *fill*         0x080021fc        0x4 
 .text.Vector58
                0x08002200       0x30 C:\Users\error414\AppData\Local\Temp\stm32-chibios.c1tKpx.ltrans0.ltrans.o
                0x08002200                Vector58
 .text.Vector5C
                0x08002230       0x30 C:\Users\error414\AppData\Local\Temp\stm32-chibios.c1tKpx.ltrans0.ltrans.o
                0x08002230                Vector5C
 .text.Vector60
                0x08002260       0x30 C:\Users\error414\AppData\Local\Temp\stm32-chibios.c1tKpx.ltrans0.ltrans.o
                0x08002260                Vector60
 .text.Vector64
                0x08002290       0x30 C:\Users\error414\AppData\Local\Temp\stm32-chibios.c1tKpx.ltrans0.ltrans.o
                0x08002290                Vector64
 .text.Vector68
                0x080022c0       0x30 C:\Users\error414\AppData\Local\Temp\stm32-chibios.c1tKpx.ltrans0.ltrans.o
                0x080022c0                Vector68
 .text.Vector9C
                0x080022f0       0x7c C:\Users\error414\AppData\Local\Temp\stm32-chibios.c1tKpx.ltrans0.ltrans.o
                0x080022f0                Vector9C
 *fill*         0x0800236c        0x4 
 .text.VectorE0
                0x08002370       0x90 C:\Users\error414\AppData\Local\Temp\stm32-chibios.c1tKpx.ltrans0.ltrans.o
                0x08002370                VectorE0
 .text.VectorA0
                0x08002400       0x10 C:\Users\error414\AppData\Local\Temp\stm32-chibios.c1tKpx.ltrans0.ltrans.o
                0x08002400                VectorA0
 .text.VectorA4
                0x08002410       0x1c C:\Users\error414\AppData\Local\Temp\stm32-chibios.c1tKpx.ltrans0.ltrans.o
                0x08002410                VectorA4
 *fill*         0x0800242c        0x4 
 .text.VectorA8
                0x08002430       0x10 C:\Users\error414\AppData\Local\Temp\stm32-chibios.c1tKpx.ltrans0.ltrans.o
                0x08002430                VectorA8
 .text.VectorAC
                0x08002440       0x1c C:\Users\error414\AppData\Local\Temp\stm32-chibios.c1tKpx.ltrans0.ltrans.o
                0x08002440                VectorAC
 *fill*         0x0800245c        0x4 
 .text.VectorB4
                0x08002460       0x1c C:\Users\error414\AppData\Local\Temp\stm32-chibios.c1tKpx.ltrans0.ltrans.o
                0x08002460                VectorB4
 *fill*         0x0800247c        0x4 
 .text.Vector6C
                0x08002480       0x30 C:\Users\error414\AppData\Local\Temp\stm32-chibios.c1tKpx.ltrans0.ltrans.o
                0x08002480                Vector6C
 .text.Vector70
                0x080024b0       0x34 C:\Users\error414\AppData\Local\Temp\stm32-chibios.c1tKpx.ltrans0.ltrans.o
                0x080024b0                Vector70
 *fill*         0x080024e4        0xc 
 .text.Vector74
                0x080024f0       0x34 C:\Users\error414\AppData\Local\Temp\stm32-chibios.c1tKpx.ltrans0.ltrans.o
                0x080024f0                Vector74
 *fill*         0x08002524        0xc 
 .text.Vector78
                0x08002530       0x34 C:\Users\error414\AppData\Local\Temp\stm32-chibios.c1tKpx.ltrans0.ltrans.o
                0x08002530                Vector78
 *fill*         0x08002564        0xc 
 .text.Vector7C
                0x08002570       0x30 C:\Users\error414\AppData\Local\Temp\stm32-chibios.c1tKpx.ltrans0.ltrans.o
                0x08002570                Vector7C
 .text.Vector80
                0x080025a0       0x34 C:\Users\error414\AppData\Local\Temp\stm32-chibios.c1tKpx.ltrans0.ltrans.o
                0x080025a0                Vector80
 *fill*         0x080025d4        0xc 
 .text.Vector84
                0x080025e0       0x34 C:\Users\error414\AppData\Local\Temp\stm32-chibios.c1tKpx.ltrans0.ltrans.o
                0x080025e0                Vector84
 *fill*         0x08002614        0xc 
 .text.VectorFC
                0x08002620       0x34 C:\Users\error414\AppData\Local\Temp\stm32-chibios.c1tKpx.ltrans0.ltrans.o
                0x08002620                VectorFC
 *fill*         0x08002654        0xc 
 .text.Vector120
                0x08002660       0x30 C:\Users\error414\AppData\Local\Temp\stm32-chibios.c1tKpx.ltrans0.ltrans.o
                0x08002660                Vector120
 .text.Vector124
                0x08002690       0x34 C:\Users\error414\AppData\Local\Temp\stm32-chibios.c1tKpx.ltrans0.ltrans.o
                0x08002690                Vector124
 *fill*         0x080026c4        0xc 
 .text.Vector128
                0x080026d0       0x34 C:\Users\error414\AppData\Local\Temp\stm32-chibios.c1tKpx.ltrans0.ltrans.o
                0x080026d0                Vector128
 *fill*         0x08002704        0xc 
 .text.Vector12C
                0x08002710       0x34 C:\Users\error414\AppData\Local\Temp\stm32-chibios.c1tKpx.ltrans0.ltrans.o
                0x08002710                Vector12C
 *fill*         0x08002744        0xc 
 .text.Vector130
                0x08002750       0x30 C:\Users\error414\AppData\Local\Temp\stm32-chibios.c1tKpx.ltrans0.ltrans.o
                0x08002750                Vector130
 .text.Vector150
                0x08002780       0x34 C:\Users\error414\AppData\Local\Temp\stm32-chibios.c1tKpx.ltrans0.ltrans.o
                0x08002780                Vector150
 *fill*         0x080027b4        0xc 
 .text.Vector154
                0x080027c0       0x34 C:\Users\error414\AppData\Local\Temp\stm32-chibios.c1tKpx.ltrans0.ltrans.o
                0x080027c0                Vector154
 *fill*         0x080027f4        0xc 
 .text.Vector158
                0x08002800       0x34 C:\Users\error414\AppData\Local\Temp\stm32-chibios.c1tKpx.ltrans0.ltrans.o
                0x08002800                Vector158
 *fill*         0x08002834        0xc 
 .text.chDbgCheckClassS
                0x08002840       0x24 C:\Users\error414\AppData\Local\Temp\stm32-chibios.c1tKpx.ltrans0.ltrans.o
 *fill*         0x08002864        0xc 
 .text.__sch_ready_behind
                0x08002870       0x34 C:\Users\error414\AppData\Local\Temp\stm32-chibios.c1tKpx.ltrans0.ltrans.o
 *fill*         0x080028a4        0xc 
 .text.__sch_ready_ahead
                0x080028b0       0x34 C:\Users\error414\AppData\Local\Temp\stm32-chibios.c1tKpx.ltrans0.ltrans.o
 *fill*         0x080028e4        0xc 
 .text.__sch_reschedule_ahead
                0x080028f0       0x40 C:\Users\error414\AppData\Local\Temp\stm32-chibios.c1tKpx.ltrans0.ltrans.o
 .text.chSchGoSleepS
                0x08002930       0x64 C:\Users\error414\AppData\Local\Temp\stm32-chibios.c1tKpx.ltrans0.ltrans.o
 *fill*         0x08002994        0xc 
 .text.chSchWakeupS
                0x080029a0       0x70 C:\Users\error414\AppData\Local\Temp\stm32-chibios.c1tKpx.ltrans0.ltrans.o
 .text.chMtxObjectInit
                0x08002a10       0x18 C:\Users\error414\AppData\Local\Temp\stm32-chibios.c1tKpx.ltrans0.ltrans.o
 *fill*         0x08002a28        0x8 
 .text.i2cObjectInit
                0x08002a30       0x14 C:\Users\error414\AppData\Local\Temp\stm32-chibios.c1tKpx.ltrans0.ltrans.o
 *fill*         0x08002a44        0xc 
 .text.i2c_lld_init
                0x08002a50       0x20 C:\Users\error414\AppData\Local\Temp\stm32-chibios.c1tKpx.ltrans0.ltrans.o
 .text.i2cInit  0x08002a70        0x8 C:\Users\error414\AppData\Local\Temp\stm32-chibios.c1tKpx.ltrans0.ltrans.o
 *fill*         0x08002a78        0x8 
 .text.spiObjectInit
                0x08002a80       0x14 C:\Users\error414\AppData\Local\Temp\stm32-chibios.c1tKpx.ltrans0.ltrans.o
 *fill*         0x08002a94        0xc 
 .text.spi_lld_init
                0x08002aa0       0x50 C:\Users\error414\AppData\Local\Temp\stm32-chibios.c1tKpx.ltrans0.ltrans.o
 .text.spiInit  0x08002af0        0x8 C:\Users\error414\AppData\Local\Temp\stm32-chibios.c1tKpx.ltrans0.ltrans.o
 *fill*         0x08002af8        0x8 
 .text.halInit  0x08002b00       0x20 C:\Users\error414\AppData\Local\Temp\stm32-chibios.c1tKpx.ltrans0.ltrans.o
                0x08002b00                halInit
 .text.__heap_init
                0x08002b20       0x20 C:\Users\error414\AppData\Local\Temp\stm32-chibios.c1tKpx.ltrans0.ltrans.o
 .text.__dbg_check_lock
                0x08002b40       0x2c C:\Users\error414\AppData\Local\Temp\stm32-chibios.c1tKpx.ltrans0.ltrans.o
                0x08002b40                __dbg_check_lock
 *fill*         0x08002b6c        0x4 
 .text.__dbg_check_unlock
                0x08002b70       0x2c C:\Users\error414\AppData\Local\Temp\stm32-chibios.c1tKpx.ltrans0.ltrans.o
                0x08002b70                __dbg_check_unlock
 *fill*         0x08002b9c        0x4 
 .text.sdStart  0x08002ba0       0x64 C:\Users\error414\AppData\Local\Temp\stm32-chibios.c1tKpx.ltrans0.ltrans.o
                0x08002ba0                sdStart
 *fill*         0x08002c04        0xc 
 .text.chSysUnlock.lto_priv.2
                0x08002c10       0x30 C:\Users\error414\AppData\Local\Temp\stm32-chibios.c1tKpx.ltrans0.ltrans.o
 .text.chSysUnlock.lto_priv.4
                0x08002c40       0x30 C:\Users\error414\AppData\Local\Temp\stm32-chibios.c1tKpx.ltrans0.ltrans.o
 .text.chSysUnlock.lto_priv.5
                0x08002c70       0x30 C:\Users\error414\AppData\Local\Temp\stm32-chibios.c1tKpx.ltrans0.ltrans.o
 .text.chRegFirstThread
                0x08002ca0       0x28 C:\Users\error414\AppData\Local\Temp\stm32-chibios.c1tKpx.ltrans0.ltrans.o
 *fill*         0x08002cc8        0x8 
 .text.chDbgCheckClassI
                0x08002cd0       0x28 C:\Users\error414\AppData\Local\Temp\stm32-chibios.c1tKpx.ltrans0.ltrans.o
                0x08002cd0                chDbgCheckClassI
 *fill*         0x08002cf8        0x8 
 .text.dmaStreamAllocI
                0x08002d00       0xe4 C:\Users\error414\AppData\Local\Temp\stm32-chibios.c1tKpx.ltrans0.ltrans.o
 *fill*         0x08002de4        0xc 
 .text.spi_lld_start
                0x08002df0      0x154 C:\Users\error414\AppData\Local\Temp\stm32-chibios.c1tKpx.ltrans0.ltrans.o
 *fill*         0x08002f44        0xc 
 .text.spiStart
                0x08002f50       0x40 C:\Users\error414\AppData\Local\Temp\stm32-chibios.c1tKpx.ltrans0.ltrans.o
                0x08002f50                spiStart
 .text.chVTDoSetI
                0x08002f90       0xb8 C:\Users\error414\AppData\Local\Temp\stm32-chibios.c1tKpx.ltrans0.ltrans.o
 *fill*         0x08003048        0x8 
 .text.chVTDoResetI
                0x08003050       0x9c C:\Users\error414\AppData\Local\Temp\stm32-chibios.c1tKpx.ltrans0.ltrans.o
 *fill*         0x080030ec        0x4 
 .text.chVTDoTickI
                0x080030f0       0xb8 C:\Users\error414\AppData\Local\Temp\stm32-chibios.c1tKpx.ltrans0.ltrans.o
 *fill*         0x080031a8        0x8 
 .text.chSysTimerHandlerI
                0x080031b0        0xc C:\Users\error414\AppData\Local\Temp\stm32-chibios.c1tKpx.ltrans0.ltrans.o
 *fill*         0x080031bc        0x4 
 .text.st_lld_serve_interrupt
                0x080031c0       0x34 C:\Users\error414\AppData\Local\Temp\stm32-chibios.c1tKpx.ltrans0.ltrans.o
 *fill*         0x080031f4        0xc 
 .text.VectorB0
                0x08003200       0x14 C:\Users\error414\AppData\Local\Temp\stm32-chibios.c1tKpx.ltrans0.ltrans.o
                0x08003200                VectorB0
 *fill*         0x08003214        0xc 
 .text.__sch_wakeup
                0x08003220       0x64 C:\Users\error414\AppData\Local\Temp\stm32-chibios.c1tKpx.ltrans0.ltrans.o
 *fill*         0x08003284        0xc 
 .text.chSchReadyI
                0x08003290       0x1c C:\Users\error414\AppData\Local\Temp\stm32-chibios.c1tKpx.ltrans0.ltrans.o
 *fill*         0x080032ac        0x4 
 .text.chThdExitS
                0x080032b0       0x4c C:\Users\error414\AppData\Local\Temp\stm32-chibios.c1tKpx.ltrans0.ltrans.o
 *fill*         0x080032fc        0x4 
 .text.chThdResumeI
                0x08003300       0x28 C:\Users\error414\AppData\Local\Temp\stm32-chibios.c1tKpx.ltrans0.ltrans.o
 *fill*         0x08003328        0x8 
 .text.i2c_lld_serve_event_interrupt
                0x08003330      0x12c C:\Users\error414\AppData\Local\Temp\stm32-chibios.c1tKpx.ltrans0.ltrans.o
 *fill*         0x0800345c        0x4 
 .text.VectorBC
                0x08003460       0x1c C:\Users\error414\AppData\Local\Temp\stm32-chibios.c1tKpx.ltrans0.ltrans.o
                0x08003460                VectorBC
 *fill*         0x0800347c        0x4 
 .text.i2c_lld_serve_error_interrupt
                0x08003480       0xe8 C:\Users\error414\AppData\Local\Temp\stm32-chibios.c1tKpx.ltrans0.ltrans.o
 *fill*         0x08003568        0x8 
 .text.VectorC0
                0x08003570       0x30 C:\Users\error414\AppData\Local\Temp\stm32-chibios.c1tKpx.ltrans0.ltrans.o
                0x08003570                VectorC0
 .text.spi_lld_serve_rx_interrupt
                0x080035a0       0xd4 C:\Users\error414\AppData\Local\Temp\stm32-chibios.c1tKpx.ltrans0.ltrans.o
 *fill*         0x08003674        0xc 
 .text.chThdDequeueNextI
                0x08003680       0x34 C:\Users\error414\AppData\Local\Temp\stm32-chibios.c1tKpx.ltrans0.ltrans.o
 *fill*         0x080036b4        0xc 
 .text.iqPutI   0x080036c0       0x4c C:\Users\error414\AppData\Local\Temp\stm32-chibios.c1tKpx.ltrans0.ltrans.o
 *fill*         0x0800370c        0x4 
 .text.oqGetI   0x08003710       0x48 C:\Users\error414\AppData\Local\Temp\stm32-chibios.c1tKpx.ltrans0.ltrans.o
 *fill*         0x08003758        0x8 
 .text.chMtxLockS
                0x08003760       0xf0 C:\Users\error414\AppData\Local\Temp\stm32-chibios.c1tKpx.ltrans0.ltrans.o
 .text.chMtxLock
                0x08003850       0x40 C:\Users\error414\AppData\Local\Temp\stm32-chibios.c1tKpx.ltrans0.ltrans.o
 .text.spiAcquireBus
                0x08003890       0x18 C:\Users\error414\AppData\Local\Temp\stm32-chibios.c1tKpx.ltrans0.ltrans.o
                0x08003890                spiAcquireBus
 *fill*         0x080038a8        0x8 
 .text.chSchGoSleepTimeoutS
                0x080038b0       0x4c C:\Users\error414\AppData\Local\Temp\stm32-chibios.c1tKpx.ltrans0.ltrans.o
 *fill*         0x080038fc        0x4 
 .text.chThdSuspendTimeoutS
                0x08003900       0x2c C:\Users\error414\AppData\Local\Temp\stm32-chibios.c1tKpx.ltrans0.ltrans.o
 *fill*         0x0800392c        0x4 
 .text.spiSend  0x08003930       0x88 C:\Users\error414\AppData\Local\Temp\stm32-chibios.c1tKpx.ltrans0.ltrans.o
                0x08003930                spiSend
 *fill*         0x080039b8        0x8 
 .text.chThdEnqueueTimeoutS
                0x080039c0       0x24 C:\Users\error414\AppData\Local\Temp\stm32-chibios.c1tKpx.ltrans0.ltrans.o
 *fill*         0x080039e4        0xc 
 .text.iqGetTimeout
                0x080039f0       0x94 C:\Users\error414\AppData\Local\Temp\stm32-chibios.c1tKpx.ltrans0.ltrans.o
 *fill*         0x08003a84        0xc 
 .text._get     0x08003a90       0x10 C:\Users\error414\AppData\Local\Temp\stm32-chibios.c1tKpx.ltrans0.ltrans.o
 .text._gett    0x08003aa0        0xc C:\Users\error414\AppData\Local\Temp\stm32-chibios.c1tKpx.ltrans0.ltrans.o
 *fill*         0x08003aac        0x4 
 .text.iqReadTimeout
                0x08003ab0       0xb4 C:\Users\error414\AppData\Local\Temp\stm32-chibios.c1tKpx.ltrans0.ltrans.o
                0x08003ab0                iqReadTimeout
 *fill*         0x08003b64        0xc 
 .text._read    0x08003b70       0x10 C:\Users\error414\AppData\Local\Temp\stm32-chibios.c1tKpx.ltrans0.ltrans.o
 .text._readt   0x08003b80        0xc C:\Users\error414\AppData\Local\Temp\stm32-chibios.c1tKpx.ltrans0.ltrans.o
 *fill*         0x08003b8c        0x4 
 .text.oqPutTimeout
                0x08003b90       0x98 C:\Users\error414\AppData\Local\Temp\stm32-chibios.c1tKpx.ltrans0.ltrans.o
 *fill*         0x08003c28        0x8 
 .text._put     0x08003c30       0x10 C:\Users\error414\AppData\Local\Temp\stm32-chibios.c1tKpx.ltrans0.ltrans.o
 .text._putt    0x08003c40        0xc C:\Users\error414\AppData\Local\Temp\stm32-chibios.c1tKpx.ltrans0.ltrans.o
 *fill*         0x08003c4c        0x4 
 .text.oqWriteTimeout
                0x08003c50       0xb4 C:\Users\error414\AppData\Local\Temp\stm32-chibios.c1tKpx.ltrans0.ltrans.o
 *fill*         0x08003d04        0xc 
 .text._write   0x08003d10       0x10 C:\Users\error414\AppData\Local\Temp\stm32-chibios.c1tKpx.ltrans0.ltrans.o
 .text._writet  0x08003d20        0xc C:\Users\error414\AppData\Local\Temp\stm32-chibios.c1tKpx.ltrans0.ltrans.o
 *fill*         0x08003d2c        0x4 
 .text.chSemWaitTimeoutS
                0x08003d30       0x68 C:\Users\error414\AppData\Local\Temp\stm32-chibios.c1tKpx.ltrans0.ltrans.o
 *fill*         0x08003d98        0x8 
 .text.chThdCreateSuspendedI
                0x08003da0       0x80 C:\Users\error414\AppData\Local\Temp\stm32-chibios.c1tKpx.ltrans0.ltrans.o
 .text.chThdCreateI
                0x08003e20        0xc C:\Users\error414\AppData\Local\Temp\stm32-chibios.c1tKpx.ltrans0.ltrans.o
 *fill*         0x08003e2c        0x4 
 .text.chInstanceObjectInit
                0x08003e30       0xac C:\Users\error414\AppData\Local\Temp\stm32-chibios.c1tKpx.ltrans0.ltrans.o
 *fill*         0x08003edc        0x4 
 .text.chEvtSignalI
                0x08003ee0       0x44 C:\Users\error414\AppData\Local\Temp\stm32-chibios.c1tKpx.ltrans0.ltrans.o
 *fill*         0x08003f24        0xc 
 .text.chEvtBroadcastFlagsI
                0x08003f30       0x3c C:\Users\error414\AppData\Local\Temp\stm32-chibios.c1tKpx.ltrans0.ltrans.o
 *fill*         0x08003f6c        0x4 
 .text.sdIncomingDataI
                0x08003f70       0x40 C:\Users\error414\AppData\Local\Temp\stm32-chibios.c1tKpx.ltrans0.ltrans.o
 .text.set_error
                0x08003fb0       0x38 C:\Users\error414\AppData\Local\Temp\stm32-chibios.c1tKpx.ltrans0.ltrans.o
 *fill*         0x08003fe8        0x8 
 .text.sd_lld_serve_interrupt
                0x08003ff0      0x110 C:\Users\error414\AppData\Local\Temp\stm32-chibios.c1tKpx.ltrans0.ltrans.o
 .text.VectorD8
                0x08004100       0x1c C:\Users\error414\AppData\Local\Temp\stm32-chibios.c1tKpx.ltrans0.ltrans.o
                0x08004100                VectorD8
 *fill*         0x0800411c        0x4 
 .text.chCoreAllocFromTopI
                0x08004120       0x48 C:\Users\error414\AppData\Local\Temp\stm32-chibios.c1tKpx.ltrans0.ltrans.o
 *fill*         0x08004168        0x8 
 .text.chCoreAllocFromTop
                0x08004170       0x4c C:\Users\error414\AppData\Local\Temp\stm32-chibios.c1tKpx.ltrans0.ltrans.o
 *fill*         0x080041bc        0x4 
 .text.chCoreAllocAlignedI
                0x080041c0        0xc C:\Users\error414\AppData\Local\Temp\stm32-chibios.c1tKpx.ltrans0.ltrans.o
 *fill*         0x080041cc        0x4 
 .text.chPoolAllocI
                0x080041d0       0x38 C:\Users\error414\AppData\Local\Temp\stm32-chibios.c1tKpx.ltrans0.ltrans.o
 *fill*         0x08004208        0x8 
 .text.chPoolFreeI
                0x08004210       0x28 C:\Users\error414\AppData\Local\Temp\stm32-chibios.c1tKpx.ltrans0.ltrans.o
 *fill*         0x08004238        0x8 
 .text.chSchRescheduleS
                0x08004240       0x20 C:\Users\error414\AppData\Local\Temp\stm32-chibios.c1tKpx.ltrans0.ltrans.o
                0x08004240                chSchRescheduleS
 .text.chMtxUnlock
                0x08004260       0xbc C:\Users\error414\AppData\Local\Temp\stm32-chibios.c1tKpx.ltrans0.ltrans.o
 *fill*         0x0800431c        0x4 
 .text.spiReleaseBus
                0x08004320       0x18 C:\Users\error414\AppData\Local\Temp\stm32-chibios.c1tKpx.ltrans0.ltrans.o
                0x08004320                spiReleaseBus
 *fill*         0x08004338        0x8 
 .text.chHeapFree
                0x08004340       0xb0 C:\Users\error414\AppData\Local\Temp\stm32-chibios.c1tKpx.ltrans0.ltrans.o
 .text.chMBPostTimeoutS
                0x080043f0       0x78 C:\Users\error414\AppData\Local\Temp\stm32-chibios.c1tKpx.ltrans0.ltrans.o
 *fill*         0x08004468        0x8 
 .text.chMBFetchTimeoutS
                0x08004470       0x70 C:\Users\error414\AppData\Local\Temp\stm32-chibios.c1tKpx.ltrans0.ltrans.o
 .text.chSchDoPreemption
                0x080044e0       0x40 C:\Users\error414\AppData\Local\Temp\stm32-chibios.c1tKpx.ltrans0.ltrans.o
                0x080044e0                chSchDoPreemption
 .text.chThdExit
                0x08004520       0x14 C:\Users\error414\AppData\Local\Temp\stm32-chibios.c1tKpx.ltrans0.ltrans.o
                0x08004520                chThdExit
 *fill*         0x08004534        0xc 
 .text.chThdSleep
                0x08004540       0x50 C:\Users\error414\AppData\Local\Temp\stm32-chibios.c1tKpx.ltrans0.ltrans.o
                0x08004540                chThdSleep
 .text.chSemObjectInit
                0x08004590       0x1c C:\Users\error414\AppData\Local\Temp\stm32-chibios.c1tKpx.ltrans0.ltrans.o
                0x08004590                chSemObjectInit
 *fill*         0x080045ac        0x4 
 .text.chSemWaitTimeout
                0x080045b0       0x48 C:\Users\error414\AppData\Local\Temp\stm32-chibios.c1tKpx.ltrans0.ltrans.o
                0x080045b0                chSemWaitTimeout
 *fill*         0x080045f8        0x8 
 .text.chSemSignalI
                0x08004600       0x50 C:\Users\error414\AppData\Local\Temp\stm32-chibios.c1tKpx.ltrans0.ltrans.o
                0x08004600                chSemSignalI
 .text.chMBPostTimeout
                0x08004650       0x4c C:\Users\error414\AppData\Local\Temp\stm32-chibios.c1tKpx.ltrans0.ltrans.o
                0x08004650                chMBPostTimeout
 *fill*         0x0800469c        0x4 
 .text.chMBFetchTimeout
                0x080046a0       0x4c C:\Users\error414\AppData\Local\Temp\stm32-chibios.c1tKpx.ltrans0.ltrans.o
                0x080046a0                chMBFetchTimeout
 *fill*         0x080046ec        0x4 
 .text.chPoolObjectInitAligned
                0x080046f0       0x34 C:\Users\error414\AppData\Local\Temp\stm32-chibios.c1tKpx.ltrans0.ltrans.o
                0x080046f0                chPoolObjectInitAligned
 *fill*         0x08004724        0xc 
 .text.__factory_init
                0x08004730       0x54 C:\Users\error414\AppData\Local\Temp\stm32-chibios.c1tKpx.ltrans0.ltrans.o
 *fill*         0x08004784        0xc 
 .text.chSysInit
                0x08004790       0x90 C:\Users\error414\AppData\Local\Temp\stm32-chibios.c1tKpx.ltrans0.ltrans.o
                0x08004790                chSysInit
 .text.chPoolAlloc
                0x08004820       0x44 C:\Users\error414\AppData\Local\Temp\stm32-chibios.c1tKpx.ltrans0.ltrans.o
                0x08004820                chPoolAlloc
 *fill*         0x08004864        0xc 
 .text.chPoolFree
                0x08004870       0x44 C:\Users\error414\AppData\Local\Temp\stm32-chibios.c1tKpx.ltrans0.ltrans.o
                0x08004870                chPoolFree
 *fill*         0x080048b4        0xc 
 .text.chThdRelease
                0x080048c0       0xac C:\Users\error414\AppData\Local\Temp\stm32-chibios.c1tKpx.ltrans0.ltrans.o
 *fill*         0x0800496c        0x4 
 .text.chRegNextThread
                0x08004970       0x6c C:\Users\error414\AppData\Local\Temp\stm32-chibios.c1tKpx.ltrans0.ltrans.o
 *fill*         0x080049dc        0x4 
 .text.chRegFindThreadByWorkingArea
                0x080049e0       0x18 C:\Users\error414\AppData\Local\Temp\stm32-chibios.c1tKpx.ltrans0.ltrans.o
 *fill*         0x080049f8        0x8 
 .text.chThdCreateStatic
                0x08004a00       0x94 C:\Users\error414\AppData\Local\Temp\stm32-chibios.c1tKpx.ltrans0.ltrans.o
                0x08004a00                chThdCreateStatic
 *fill*         0x08004a94        0xc 
 .text.chPoolLoadArray
                0x08004aa0       0x2c C:\Users\error414\AppData\Local\Temp\stm32-chibios.c1tKpx.ltrans0.ltrans.o
                0x08004aa0                chPoolLoadArray
 *fill*         0x08004acc        0x4 
 .text.SVC_Handler
                0x08004ad0       0x20 C:\Users\error414\AppData\Local\Temp\stm32-chibios.c1tKpx.ltrans0.ltrans.o
                0x08004ad0                SVC_Handler
 .text.lv_disp_get_scr_act
                0x08004af0       0x18 C:\Users\error414\AppData\Local\Temp\stm32-chibios.c1tKpx.ltrans0.ltrans.o
                0x08004af0                lv_disp_get_scr_act
 *fill*         0x08004b08        0x8 
 .text.lv_init  0x08004b10       0x70 C:\Users\error414\AppData\Local\Temp\stm32-chibios.c1tKpx.ltrans0.ltrans.o
                0x08004b10                lv_init
 .text.lv_obj_set_adv_hittest
                0x08004b80       0x10 C:\Users\error414\AppData\Local\Temp\stm32-chibios.c1tKpx.ltrans0.ltrans.o
                0x08004b80                lv_obj_set_adv_hittest
 .text.lv_obj_set_click
                0x08004b90       0x10 C:\Users\error414\AppData\Local\Temp\stm32-chibios.c1tKpx.ltrans0.ltrans.o
                0x08004b90                lv_obj_set_click
 .text.lv_obj_add_protect
                0x08004ba0        0xc C:\Users\error414\AppData\Local\Temp\stm32-chibios.c1tKpx.ltrans0.ltrans.o
                0x08004ba0                lv_obj_add_protect
 *fill*         0x08004bac        0x4 
 .text.lv_obj_clear_protect
                0x08004bb0       0x10 C:\Users\error414\AppData\Local\Temp\stm32-chibios.c1tKpx.ltrans0.ltrans.o
                0x08004bb0                lv_obj_clear_protect
 .text.lv_obj_set_signal_cb
                0x08004bc0        0x4 C:\Users\error414\AppData\Local\Temp\stm32-chibios.c1tKpx.ltrans0.ltrans.o
                0x08004bc0                lv_obj_set_signal_cb
 *fill*         0x08004bc4        0xc 
 .text.lv_obj_set_design_cb
                0x08004bd0        0x4 C:\Users\error414\AppData\Local\Temp\stm32-chibios.c1tKpx.ltrans0.ltrans.o
                0x08004bd0                lv_obj_set_design_cb
 *fill*         0x08004bd4        0xc 
 .text.lv_obj_allocate_ext_attr
                0x08004be0       0x10 C:\Users\error414\AppData\Local\Temp\stm32-chibios.c1tKpx.ltrans0.ltrans.o
                0x08004be0                lv_obj_allocate_ext_attr
 .text.lv_obj_refresh_ext_draw_pad
                0x08004bf0       0x10 C:\Users\error414\AppData\Local\Temp\stm32-chibios.c1tKpx.ltrans0.ltrans.o
                0x08004bf0                lv_obj_refresh_ext_draw_pad
 .text.lv_obj_get_parent
                0x08004c00        0x4 C:\Users\error414\AppData\Local\Temp\stm32-chibios.c1tKpx.ltrans0.ltrans.o
                0x08004c00                lv_obj_get_parent
 *fill*         0x08004c04        0xc 
 .text.lv_obj_get_screen
                0x08004c10       0x10 C:\Users\error414\AppData\Local\Temp\stm32-chibios.c1tKpx.ltrans0.ltrans.o
 .text.lv_obj_get_disp
                0x08004c20       0x48 C:\Users\error414\AppData\Local\Temp\stm32-chibios.c1tKpx.ltrans0.ltrans.o
                0x08004c20                lv_obj_get_disp
 *fill*         0x08004c68        0x8 
 .text.lv_obj_get_x
                0x08004c70       0x1c C:\Users\error414\AppData\Local\Temp\stm32-chibios.c1tKpx.ltrans0.ltrans.o
 *fill*         0x08004c8c        0x4 
 .text.lv_obj_get_y
                0x08004c90       0x1c C:\Users\error414\AppData\Local\Temp\stm32-chibios.c1tKpx.ltrans0.ltrans.o
 *fill*         0x08004cac        0x4 
 .text.lv_obj_get_focused_obj
                0x08004cb0       0x20 C:\Users\error414\AppData\Local\Temp\stm32-chibios.c1tKpx.ltrans0.ltrans.o
 .text.lv_obj_get_child
                0x08004cd0       0x14 C:\Users\error414\AppData\Local\Temp\stm32-chibios.c1tKpx.ltrans0.ltrans.o
                0x08004cd0                lv_obj_get_child
 *fill*         0x08004ce4        0xc 
 .text.lv_obj_get_coords
                0x08004cf0       0x18 C:\Users\error414\AppData\Local\Temp\stm32-chibios.c1tKpx.ltrans0.ltrans.o
                0x08004cf0                lv_obj_get_coords
 *fill*         0x08004d08        0x8 
 .text.lv_refr_obj
                0x08004d10       0xec C:\Users\error414\AppData\Local\Temp\stm32-chibios.c1tKpx.ltrans0.ltrans.o
 *fill*         0x08004dfc        0x4 
 .text.lv_refr_obj_and_children
                0x08004e00       0x6c C:\Users\error414\AppData\Local\Temp\stm32-chibios.c1tKpx.ltrans0.ltrans.o
 *fill*         0x08004e6c        0x4 
 .text.lv_obj_get_width
                0x08004e70       0x14 C:\Users\error414\AppData\Local\Temp\stm32-chibios.c1tKpx.ltrans0.ltrans.o
                0x08004e70                lv_obj_get_width
 *fill*         0x08004e84        0xc 
 .text.lv_obj_get_height
                0x08004e90       0x14 C:\Users\error414\AppData\Local\Temp\stm32-chibios.c1tKpx.ltrans0.ltrans.o
                0x08004e90                lv_obj_get_height
 *fill*         0x08004ea4        0xc 
 .text.lv_obj_get_auto_realign
                0x08004eb0        0xc C:\Users\error414\AppData\Local\Temp\stm32-chibios.c1tKpx.ltrans0.ltrans.o
                0x08004eb0                lv_obj_get_auto_realign
 *fill*         0x08004ebc        0x4 
 .text.lv_obj_get_style_list
                0x08004ec0       0x2c C:\Users\error414\AppData\Local\Temp\stm32-chibios.c1tKpx.ltrans0.ltrans.o
                0x08004ec0                lv_obj_get_style_list
 *fill*         0x08004eec        0x4 
 .text._lv_obj_disable_style_caching
                0x08004ef0       0x48 C:\Users\error414\AppData\Local\Temp\stm32-chibios.c1tKpx.ltrans0.ltrans.o
 *fill*         0x08004f38        0x8 
 .text._lv_obj_get_style_color
                0x08004f40       0x74 C:\Users\error414\AppData\Local\Temp\stm32-chibios.c1tKpx.ltrans0.ltrans.o
                0x08004f40                _lv_obj_get_style_color
 *fill*         0x08004fb4        0xc 
 .text._lv_obj_get_style_ptr
                0x08004fc0       0xc8 C:\Users\error414\AppData\Local\Temp\stm32-chibios.c1tKpx.ltrans0.ltrans.o
                0x08004fc0                _lv_obj_get_style_ptr
 *fill*         0x08005088        0x8 
 .text.update_style_cache
                0x08005090      0x378 C:\Users\error414\AppData\Local\Temp\stm32-chibios.c1tKpx.ltrans0.ltrans.o
 *fill*         0x08005408        0x8 
 .text._lv_obj_get_style_int
                0x08005410      0x420 C:\Users\error414\AppData\Local\Temp\stm32-chibios.c1tKpx.ltrans0.ltrans.o
                0x08005410                _lv_obj_get_style_int
 .text.lv_obj_get_width_fit
                0x08005830       0x2c C:\Users\error414\AppData\Local\Temp\stm32-chibios.c1tKpx.ltrans0.ltrans.o
                0x08005830                lv_obj_get_width_fit
 *fill*         0x0800585c        0x4 
 .text._lv_obj_get_style_opa
                0x08005860       0xe8 C:\Users\error414\AppData\Local\Temp\stm32-chibios.c1tKpx.ltrans0.ltrans.o
                0x08005860                _lv_obj_get_style_opa
 *fill*         0x08005948        0x8 
 .text.lv_obj_get_draw_rect_ext_pad_size
                0x08005950      0x204 C:\Users\error414\AppData\Local\Temp\stm32-chibios.c1tKpx.ltrans0.ltrans.o
 *fill*         0x08005b54        0xc 
 .text.lv_refr_get_top_obj
                0x08005b60       0x94 C:\Users\error414\AppData\Local\Temp\stm32-chibios.c1tKpx.ltrans0.ltrans.o
 *fill*         0x08005bf4        0xc 
 .text.update_style_cache_children
                0x08005c00      0x100 C:\Users\error414\AppData\Local\Temp\stm32-chibios.c1tKpx.ltrans0.ltrans.o
 .text.invalidate_style_cache
                0x08005d00       0x68 C:\Users\error414\AppData\Local\Temp\stm32-chibios.c1tKpx.ltrans0.ltrans.o
 *fill*         0x08005d68        0x8 
 .text.lv_obj_get_hidden
                0x08005d70        0xc C:\Users\error414\AppData\Local\Temp\stm32-chibios.c1tKpx.ltrans0.ltrans.o
                0x08005d70                lv_obj_get_hidden
 *fill*         0x08005d7c        0x4 
 .text.lv_obj_area_is_visible
                0x08005d80       0xdc C:\Users\error414\AppData\Local\Temp\stm32-chibios.c1tKpx.ltrans0.ltrans.o
 *fill*         0x08005e5c        0x4 
 .text.lv_obj_get_base_dir
                0x08005e60        0x4 C:\Users\error414\AppData\Local\Temp\stm32-chibios.c1tKpx.ltrans0.ltrans.o
                0x08005e60                lv_obj_get_base_dir
 *fill*         0x08005e64        0xc 
 .text.lv_obj_is_protected
                0x08005e70       0x10 C:\Users\error414\AppData\Local\Temp\stm32-chibios.c1tKpx.ltrans0.ltrans.o
                0x08005e70                lv_obj_is_protected
 .text.lv_obj_get_signal_cb
                0x08005e80        0x4 C:\Users\error414\AppData\Local\Temp\stm32-chibios.c1tKpx.ltrans0.ltrans.o
                0x08005e80                lv_obj_get_signal_cb
 *fill*         0x08005e84        0xc 
 .text.lv_obj_get_design_cb
                0x08005e90        0x4 C:\Users\error414\AppData\Local\Temp\stm32-chibios.c1tKpx.ltrans0.ltrans.o
                0x08005e90                lv_obj_get_design_cb
 *fill*         0x08005e94        0xc 
 .text.lv_obj_get_ext_attr
                0x08005ea0        0x4 C:\Users\error414\AppData\Local\Temp\stm32-chibios.c1tKpx.ltrans0.ltrans.o
                0x08005ea0                lv_obj_get_ext_attr
 *fill*         0x08005ea4        0xc 
 .text.lv_obj_is_point_on_coords
                0x08005eb0       0x3c C:\Users\error414\AppData\Local\Temp\stm32-chibios.c1tKpx.ltrans0.ltrans.o
                0x08005eb0                lv_obj_is_point_on_coords
 *fill*         0x08005eec        0x4 
 .text.lv_obj_handle_get_type_signal
                0x08005ef0       0x1c C:\Users\error414\AppData\Local\Temp\stm32-chibios.c1tKpx.ltrans0.ltrans.o
                0x08005ef0                lv_obj_handle_get_type_signal
 *fill*         0x08005f0c        0x4 
 .text.lv_obj_init_draw_rect_dsc
                0x08005f10      0x2cc C:\Users\error414\AppData\Local\Temp\stm32-chibios.c1tKpx.ltrans0.ltrans.o
                0x08005f10                lv_obj_init_draw_rect_dsc
 *fill*         0x080061dc        0x4 
 .text.lv_obj_design
                0x080061e0      0x2bc C:\Users\error414\AppData\Local\Temp\stm32-chibios.c1tKpx.ltrans0.ltrans.o
 *fill*         0x0800649c        0x4 
 .text.lv_obj_init_draw_label_dsc
                0x080064a0       0xbc C:\Users\error414\AppData\Local\Temp\stm32-chibios.c1tKpx.ltrans0.ltrans.o
                0x080064a0                lv_obj_init_draw_label_dsc
 *fill*         0x0800655c        0x4 
 .text.lv_obj_init_draw_img_dsc
                0x08006560       0xa0 C:\Users\error414\AppData\Local\Temp\stm32-chibios.c1tKpx.ltrans0.ltrans.o
                0x08006560                lv_obj_init_draw_img_dsc
 .text.lv_obj_init_draw_line_dsc
                0x08006600       0xa4 C:\Users\error414\AppData\Local\Temp\stm32-chibios.c1tKpx.ltrans0.ltrans.o
                0x08006600                lv_obj_init_draw_line_dsc
 *fill*         0x080066a4        0xc 
 .text.style_snapshot
                0x080066b0      0x1f0 C:\Users\error414\AppData\Local\Temp\stm32-chibios.c1tKpx.ltrans0.ltrans.o
 .text._lv_inv_area
                0x080068a0      0x11c C:\Users\error414\AppData\Local\Temp\stm32-chibios.c1tKpx.ltrans0.ltrans.o
                0x080068a0                _lv_inv_area
 *fill*         0x080069bc        0x4 
 .text.lv_obj_invalidate_area
                0x080069c0       0x38 C:\Users\error414\AppData\Local\Temp\stm32-chibios.c1tKpx.ltrans0.ltrans.o
                0x080069c0                lv_obj_invalidate_area
 *fill*         0x080069f8        0x8 
 .text.lv_obj_invalidate
                0x08006a00       0x58 C:\Users\error414\AppData\Local\Temp\stm32-chibios.c1tKpx.ltrans0.ltrans.o
                0x08006a00                lv_obj_invalidate
 *fill*         0x08006a58        0x8 
 .text.lv_obj_move_foreground
                0x08006a60       0x3c C:\Users\error414\AppData\Local\Temp\stm32-chibios.c1tKpx.ltrans0.ltrans.o
 *fill*         0x08006a9c        0x4 
 .text.obj_to_foreground
                0x08006aa0       0x24 C:\Users\error414\AppData\Local\Temp\stm32-chibios.c1tKpx.ltrans0.ltrans.o
 *fill*         0x08006ac4        0xc 
 .text.focus_next_core
                0x08006ad0       0xd4 C:\Users\error414\AppData\Local\Temp\stm32-chibios.c1tKpx.ltrans0.ltrans.o
 *fill*         0x08006ba4        0xc 
 .text.lv_group_focus_next
                0x08006bb0       0x14 C:\Users\error414\AppData\Local\Temp\stm32-chibios.c1tKpx.ltrans0.ltrans.o
 *fill*         0x08006bc4        0xc 
 .text.lv_group_focus_prev
                0x08006bd0       0x14 C:\Users\error414\AppData\Local\Temp\stm32-chibios.c1tKpx.ltrans0.ltrans.o
 *fill*         0x08006be4        0xc 
 .text.lv_group_refocus
                0x08006bf0       0x2c C:\Users\error414\AppData\Local\Temp\stm32-chibios.c1tKpx.ltrans0.ltrans.o
 *fill*         0x08006c1c        0x4 
 .text.lv_group_add_obj
                0x08006c20       0x58 C:\Users\error414\AppData\Local\Temp\stm32-chibios.c1tKpx.ltrans0.ltrans.o
 *fill*         0x08006c78        0x8 
 .text.lv_group_remove_obj
                0x08006c80       0x8c C:\Users\error414\AppData\Local\Temp\stm32-chibios.c1tKpx.ltrans0.ltrans.o
 *fill*         0x08006d0c        0x4 
 .text.obj_del_core
                0x08006d10       0xc0 C:\Users\error414\AppData\Local\Temp\stm32-chibios.c1tKpx.ltrans0.ltrans.o
 .text.lv_obj_del
                0x08006dd0       0x4c C:\Users\error414\AppData\Local\Temp\stm32-chibios.c1tKpx.ltrans0.ltrans.o
                0x08006dd0                lv_obj_del
 *fill*         0x08006e1c        0x4 
 .text.lv_obj_set_pos
                0x08006e20       0x90 C:\Users\error414\AppData\Local\Temp\stm32-chibios.c1tKpx.ltrans0.ltrans.o
                0x08006e20                lv_obj_set_pos
 .text.lv_obj_set_x
                0x08006eb0       0x18 C:\Users\error414\AppData\Local\Temp\stm32-chibios.c1tKpx.ltrans0.ltrans.o
 *fill*         0x08006ec8        0x8 
 .text.lv_obj_set_y
                0x08006ed0       0x18 C:\Users\error414\AppData\Local\Temp\stm32-chibios.c1tKpx.ltrans0.ltrans.o
 *fill*         0x08006ee8        0x8 
 .text.obj_align_core
                0x08006ef0       0x80 C:\Users\error414\AppData\Local\Temp\stm32-chibios.c1tKpx.ltrans0.ltrans.o
 .text.lv_obj_align
                0x08006f70       0x50 C:\Users\error414\AppData\Local\Temp\stm32-chibios.c1tKpx.ltrans0.ltrans.o
                0x08006f70                lv_obj_align
 .text.obj_align_mid_core
                0x08006fc0      0x2cc C:\Users\error414\AppData\Local\Temp\stm32-chibios.c1tKpx.ltrans0.ltrans.o
 *fill*         0x0800728c        0x4 
 .text.lv_obj_align_mid
                0x08007290       0x50 C:\Users\error414\AppData\Local\Temp\stm32-chibios.c1tKpx.ltrans0.ltrans.o
 .text.lv_obj_realign
                0x080072e0       0x40 C:\Users\error414\AppData\Local\Temp\stm32-chibios.c1tKpx.ltrans0.ltrans.o
                0x080072e0                lv_obj_realign
 .text.lv_obj_set_size
                0x08007320       0xb0 C:\Users\error414\AppData\Local\Temp\stm32-chibios.c1tKpx.ltrans0.ltrans.o
                0x08007320                lv_obj_set_size
 .text.lv_obj_set_height
                0x080073d0       0x18 C:\Users\error414\AppData\Local\Temp\stm32-chibios.c1tKpx.ltrans0.ltrans.o
                0x080073d0                lv_obj_set_height
 *fill*         0x080073e8        0x8 
 .text.refresh_children_style
                0x080073f0       0x3c C:\Users\error414\AppData\Local\Temp\stm32-chibios.c1tKpx.ltrans0.ltrans.o
 *fill*         0x0800742c        0x4 
 .text.lv_obj_refresh_style
                0x08007430      0x114 C:\Users\error414\AppData\Local\Temp\stm32-chibios.c1tKpx.ltrans0.ltrans.o
                0x08007430                lv_obj_refresh_style
 *fill*         0x08007544        0xc 
 .text.lv_obj_set_state
                0x08007550       0x90 C:\Users\error414\AppData\Local\Temp\stm32-chibios.c1tKpx.ltrans0.ltrans.o
 .text.lv_obj_add_state
                0x080075e0       0x1c C:\Users\error414\AppData\Local\Temp\stm32-chibios.c1tKpx.ltrans0.ltrans.o
 *fill*         0x080075fc        0x4 
 .text.lv_obj_clear_state
                0x08007600       0x1c C:\Users\error414\AppData\Local\Temp\stm32-chibios.c1tKpx.ltrans0.ltrans.o
 *fill*         0x0800761c        0x4 
 .text._lv_refr_get_disp_refreshing
                0x08007620        0xc C:\Users\error414\AppData\Local\Temp\stm32-chibios.c1tKpx.ltrans0.ltrans.o
                0x08007620                _lv_refr_get_disp_refreshing
 *fill*         0x0800762c        0x4 
 .text.lv_refr_vdb_flush
                0x08007630       0x84 C:\Users\error414\AppData\Local\Temp\stm32-chibios.c1tKpx.ltrans0.ltrans.o
 *fill*         0x080076b4        0xc 
 .text.lv_refr_area_part
                0x080076c0      0x13c C:\Users\error414\AppData\Local\Temp\stm32-chibios.c1tKpx.ltrans0.ltrans.o
 *fill*         0x080077fc        0x4 
 .text.lv_refr_area
                0x08007800      0x198 C:\Users\error414\AppData\Local\Temp\stm32-chibios.c1tKpx.ltrans0.ltrans.o
 *fill*         0x08007998        0x8 
 .text.lv_refr_areas
                0x080079a0       0xbc C:\Users\error414\AppData\Local\Temp\stm32-chibios.c1tKpx.ltrans0.ltrans.o
 *fill*         0x08007a5c        0x4 
 .text._lv_disp_refr_task
                0x08007a60      0x174 C:\Users\error414\AppData\Local\Temp\stm32-chibios.c1tKpx.ltrans0.ltrans.o
                0x08007a60                _lv_disp_refr_task
 *fill*         0x08007bd4        0xc 
 .text.lv_style_init
                0x08007be0        0xc C:\Users\error414\AppData\Local\Temp\stm32-chibios.c1tKpx.ltrans0.ltrans.o
                0x08007be0                lv_style_init
 *fill*         0x08007bec        0x4 
 .text.lv_style_list_init
                0x08007bf0        0xc C:\Users\error414\AppData\Local\Temp\stm32-chibios.c1tKpx.ltrans0.ltrans.o
                0x08007bf0                lv_style_list_init
 *fill*         0x08007bfc        0x4 
 .text._lv_style_list_add_style
                0x08007c00       0x80 C:\Users\error414\AppData\Local\Temp\stm32-chibios.c1tKpx.ltrans0.ltrans.o
                0x08007c00                _lv_style_list_add_style
 .text.lv_obj_add_style
                0x08007c80       0x24 C:\Users\error414\AppData\Local\Temp\stm32-chibios.c1tKpx.ltrans0.ltrans.o
                0x08007c80                lv_obj_add_style
 *fill*         0x08007ca4        0xc 
 .text.get_alloc_local_style
                0x08007cb0       0x60 C:\Users\error414\AppData\Local\Temp\stm32-chibios.c1tKpx.ltrans0.ltrans.o
 .text.lv_style_reset
                0x08007d10       0x10 C:\Users\error414\AppData\Local\Temp\stm32-chibios.c1tKpx.ltrans0.ltrans.o
                0x08007d10                lv_style_reset
 .text._lv_style_list_reset
                0x08007d20       0x7c C:\Users\error414\AppData\Local\Temp\stm32-chibios.c1tKpx.ltrans0.ltrans.o
 *fill*         0x08007d9c        0x4 
 .text.lv_obj_clean_style_list
                0x08007da0       0x10 C:\Users\error414\AppData\Local\Temp\stm32-chibios.c1tKpx.ltrans0.ltrans.o
                0x08007da0                lv_obj_clean_style_list
 .text.lv_obj_signal
                0x08007db0      0x104 C:\Users\error414\AppData\Local\Temp\stm32-chibios.c1tKpx.ltrans0.ltrans.o
 *fill*         0x08007eb4        0xc 
 .text.lv_obj_reset_style_list
                0x08007ec0       0x18 C:\Users\error414\AppData\Local\Temp\stm32-chibios.c1tKpx.ltrans0.ltrans.o
                0x08007ec0                lv_obj_reset_style_list
 *fill*         0x08007ed8        0x8 
 .text.lv_style_list_copy
                0x08007ee0       0xfc C:\Users\error414\AppData\Local\Temp\stm32-chibios.c1tKpx.ltrans0.ltrans.o
                0x08007ee0                lv_style_list_copy
 *fill*         0x08007fdc        0x4 
 .text.lv_obj_create
                0x08007fe0      0x3d4 C:\Users\error414\AppData\Local\Temp\stm32-chibios.c1tKpx.ltrans0.ltrans.o
                0x08007fe0                lv_obj_create
 *fill*         0x080083b4        0xc 
 .text._lv_style_set_int
                0x080083c0       0xd4 C:\Users\error414\AppData\Local\Temp\stm32-chibios.c1tKpx.ltrans0.ltrans.o
                0x080083c0                _lv_style_set_int
 *fill*         0x08008494        0xc 
 .text._lv_style_list_set_local_int
                0x080084a0       0x14 C:\Users\error414\AppData\Local\Temp\stm32-chibios.c1tKpx.ltrans0.ltrans.o
 *fill*         0x080084b4        0xc 
 .text._lv_obj_set_style_local_int
                0x080084c0       0x24 C:\Users\error414\AppData\Local\Temp\stm32-chibios.c1tKpx.ltrans0.ltrans.o
                0x080084c0                _lv_obj_set_style_local_int
 *fill*         0x080084e4        0xc 
 .text._lv_style_set_color
                0x080084f0       0xd4 C:\Users\error414\AppData\Local\Temp\stm32-chibios.c1tKpx.ltrans0.ltrans.o
                0x080084f0                _lv_style_set_color
 *fill*         0x080085c4        0xc 
 .text._lv_style_list_set_local_color
                0x080085d0       0x14 C:\Users\error414\AppData\Local\Temp\stm32-chibios.c1tKpx.ltrans0.ltrans.o
 *fill*         0x080085e4        0xc 
 .text._lv_obj_set_style_local_color
                0x080085f0       0x24 C:\Users\error414\AppData\Local\Temp\stm32-chibios.c1tKpx.ltrans0.ltrans.o
                0x080085f0                _lv_obj_set_style_local_color
 *fill*         0x08008614        0xc 
 .text._lv_style_set_opa
                0x08008620       0xd8 C:\Users\error414\AppData\Local\Temp\stm32-chibios.c1tKpx.ltrans0.ltrans.o
                0x08008620                _lv_style_set_opa
 *fill*         0x080086f8        0x8 
 .text._lv_style_set_ptr
                0x08008700       0xd4 C:\Users\error414\AppData\Local\Temp\stm32-chibios.c1tKpx.ltrans0.ltrans.o
                0x08008700                _lv_style_set_ptr
 *fill*         0x080087d4        0xc 
 .text._lv_style_list_set_local_ptr
                0x080087e0       0x14 C:\Users\error414\AppData\Local\Temp\stm32-chibios.c1tKpx.ltrans0.ltrans.o
 *fill*         0x080087f4        0xc 
 .text._lv_obj_set_style_local_ptr
                0x08008800       0x24 C:\Users\error414\AppData\Local\Temp\stm32-chibios.c1tKpx.ltrans0.ltrans.o
                0x08008800                _lv_obj_set_style_local_ptr
 *fill*         0x08008824        0xc 
 .text.fill_blended
                0x08008830      0x140 C:\Users\error414\AppData\Local\Temp\stm32-chibios.c1tKpx.ltrans1.ltrans.o
 .text.color_blend_true_color_additive
                0x08008970       0x28 C:\Users\error414\AppData\Local\Temp\stm32-chibios.c1tKpx.ltrans1.ltrans.o
 *fill*         0x08008998        0x8 
 .text.color_blend_true_color_subtractive
                0x080089a0       0x50 C:\Users\error414\AppData\Local\Temp\stm32-chibios.c1tKpx.ltrans1.ltrans.o
 .text.map_blended
                0x080089f0      0x134 C:\Users\error414\AppData\Local\Temp\stm32-chibios.c1tKpx.ltrans1.ltrans.o
 *fill*         0x08008b24        0xc 
 .text.lv_img_cf_get_px_size
                0x08008b30       0x30 C:\Users\error414\AppData\Local\Temp\stm32-chibios.c1tKpx.ltrans1.ltrans.o
 .text.lv_img_cf_is_chroma_keyed
                0x08008b60       0x20 C:\Users\error414\AppData\Local\Temp\stm32-chibios.c1tKpx.ltrans1.ltrans.o
 .text.lv_img_cf_has_alpha
                0x08008b80       0x1c C:\Users\error414\AppData\Local\Temp\stm32-chibios.c1tKpx.ltrans1.ltrans.o
 *fill*         0x08008b9c        0x4 
 .text.hex_char_to_num
                0x08008ba0       0x40 C:\Users\error414\AppData\Local\Temp\stm32-chibios.c1tKpx.ltrans1.ltrans.o
 .text.lv_draw_mask_apply
                0x08008be0       0x54 C:\Users\error414\AppData\Local\Temp\stm32-chibios.c1tKpx.ltrans1.ltrans.o
 *fill*         0x08008c34        0xc 
 .text.lv_draw_mask_get_cnt
                0x08008c40       0x24 C:\Users\error414\AppData\Local\Temp\stm32-chibios.c1tKpx.ltrans1.ltrans.o
 *fill*         0x08008c64        0xc 
 .text.lv_draw_mask_fade
                0x08008c70      0x13c C:\Users\error414\AppData\Local\Temp\stm32-chibios.c1tKpx.ltrans1.ltrans.o
 *fill*         0x08008dac        0x4 
 .text.lv_img_buf_get_px_color
                0x08008db0      0x128 C:\Users\error414\AppData\Local\Temp\stm32-chibios.c1tKpx.ltrans1.ltrans.o
 *fill*         0x08008ed8        0x8 
 .text.lv_img_buf_get_px_alpha
                0x08008ee0       0xfc C:\Users\error414\AppData\Local\Temp\stm32-chibios.c1tKpx.ltrans1.ltrans.o
 *fill*         0x08008fdc        0x4 
 .text._lv_img_buf_transform_anti_alias
                0x08008fe0      0x308 C:\Users\error414\AppData\Local\Temp\stm32-chibios.c1tKpx.ltrans1.ltrans.o
 *fill*         0x080092e8        0x8 
 .text._lv_img_buf_transform
                0x080092f0      0x190 C:\Users\error414\AppData\Local\Temp\stm32-chibios.c1tKpx.ltrans1.ltrans.o
 .text.lv_img_decoder_read_line
                0x08009480       0x28 C:\Users\error414\AppData\Local\Temp\stm32-chibios.c1tKpx.ltrans1.ltrans.o
 *fill*         0x080094a8        0x8 
 .text.lv_img_decoder_set_info_cb
                0x080094b0        0x4 C:\Users\error414\AppData\Local\Temp\stm32-chibios.c1tKpx.ltrans1.ltrans.o
 *fill*         0x080094b4        0xc 
 .text.lv_img_decoder_set_open_cb
                0x080094c0        0x4 C:\Users\error414\AppData\Local\Temp\stm32-chibios.c1tKpx.ltrans1.ltrans.o
 *fill*         0x080094c4        0xc 
 .text.lv_img_decoder_set_read_line_cb
                0x080094d0        0x4 C:\Users\error414\AppData\Local\Temp\stm32-chibios.c1tKpx.ltrans1.ltrans.o
 *fill*         0x080094d4        0xc 
 .text.lv_img_decoder_set_close_cb
                0x080094e0        0x4 C:\Users\error414\AppData\Local\Temp\stm32-chibios.c1tKpx.ltrans1.ltrans.o
 *fill*         0x080094e4        0xc 
 .text.lv_img_decoder_built_in_line_true_color
                0x080094f0        0x4 C:\Users\error414\AppData\Local\Temp\stm32-chibios.c1tKpx.ltrans1.ltrans.o
 *fill*         0x080094f4        0xc 
 .text.lv_img_decoder_built_in_line_alpha
                0x08009500      0x164 C:\Users\error414\AppData\Local\Temp\stm32-chibios.c1tKpx.ltrans1.ltrans.o
 *fill*         0x08009664        0xc 
 .text.lv_img_decoder_built_in_line_indexed
                0x08009670      0x134 C:\Users\error414\AppData\Local\Temp\stm32-chibios.c1tKpx.ltrans1.ltrans.o
 *fill*         0x080097a4        0xc 
 .text.lv_img_decoder_built_in_read_line
                0x080097b0       0x84 C:\Users\error414\AppData\Local\Temp\stm32-chibios.c1tKpx.ltrans1.ltrans.o
 *fill*         0x08009834        0xc 
 .text.lv_font_get_glyph_bitmap
                0x08009840        0x8 C:\Users\error414\AppData\Local\Temp\stm32-chibios.c1tKpx.ltrans1.ltrans.o
 *fill*         0x08009848        0x8 
 .text.lv_font_get_glyph_dsc
                0x08009850        0x8 C:\Users\error414\AppData\Local\Temp\stm32-chibios.c1tKpx.ltrans1.ltrans.o
 *fill*         0x08009858        0x8 
 .text.unicode_list_compare
                0x08009860        0x8 C:\Users\error414\AppData\Local\Temp\stm32-chibios.c1tKpx.ltrans1.ltrans.o
 *fill*         0x08009868        0x8 
 .text.kern_pair_8_compare
                0x08009870       0x14 C:\Users\error414\AppData\Local\Temp\stm32-chibios.c1tKpx.ltrans1.ltrans.o
 *fill*         0x08009884        0xc 
 .text.kern_pair_16_compare
                0x08009890       0x14 C:\Users\error414\AppData\Local\Temp\stm32-chibios.c1tKpx.ltrans1.ltrans.o
 *fill*         0x080098a4        0xc 
 .text.rle_next
                0x080098b0      0x300 C:\Users\error414\AppData\Local\Temp\stm32-chibios.c1tKpx.ltrans1.ltrans.o
 .text.lv_area_set_height
                0x08009bb0        0xc C:\Users\error414\AppData\Local\Temp\stm32-chibios.c1tKpx.ltrans1.ltrans.o
 *fill*         0x08009bbc        0x4 
 .text.fill_set_px
                0x08009bc0       0xf4 C:\Users\error414\AppData\Local\Temp\stm32-chibios.c1tKpx.ltrans1.ltrans.o
 *fill*         0x08009cb4        0xc 
 .text.map_set_px
                0x08009cc0      0x140 C:\Users\error414\AppData\Local\Temp\stm32-chibios.c1tKpx.ltrans1.ltrans.o
 .text.fill_normal
                0x08009e00      0x2dc C:\Users\error414\AppData\Local\Temp\stm32-chibios.c1tKpx.ltrans1.ltrans.o
 *fill*         0x0800a0dc        0x4 
 .text.map_normal
                0x0800a0e0      0x2c8 C:\Users\error414\AppData\Local\Temp\stm32-chibios.c1tKpx.ltrans1.ltrans.o
 *fill*         0x0800a3a8        0x8 
 .text.line_mask_flat
                0x0800a3b0      0x208 C:\Users\error414\AppData\Local\Temp\stm32-chibios.c1tKpx.ltrans1.ltrans.o
 *fill*         0x0800a5b8        0x8 
 .text.line_mask_steep
                0x0800a5c0      0x300 C:\Users\error414\AppData\Local\Temp\stm32-chibios.c1tKpx.ltrans1.ltrans.o
 .text.lv_draw_mask_line
                0x0800a8c0       0xe0 C:\Users\error414\AppData\Local\Temp\stm32-chibios.c1tKpx.ltrans1.ltrans.o
 .text.decompress
                0x0800a9a0      0x288 C:\Users\error414\AppData\Local\Temp\stm32-chibios.c1tKpx.ltrans1.ltrans.o
 *fill*         0x0800ac28        0x8 
 .text.lv_draw_mask_radius
                0x0800ac30      0x57c C:\Users\error414\AppData\Local\Temp\stm32-chibios.c1tKpx.ltrans1.ltrans.o
 *fill*         0x0800b1ac        0x4 
 .text._lv_img_buf_transform_init
                0x0800b1b0      0x12c C:\Users\error414\AppData\Local\Temp\stm32-chibios.c1tKpx.ltrans1.ltrans.o
 *fill*         0x0800b2dc        0x4 
 .text.lv_img_decoder_built_in_close
                0x0800b2e0       0x24 C:\Users\error414\AppData\Local\Temp\stm32-chibios.c1tKpx.ltrans1.ltrans.o
 *fill*         0x0800b304        0xc 
 .text.lv_img_decoder_built_in_open
                0x0800b310       0xf4 C:\Users\error414\AppData\Local\Temp\stm32-chibios.c1tKpx.ltrans1.ltrans.o
 *fill*         0x0800b404        0xc 
 .text.lv_img_decoder_close
                0x0800b410       0x24 C:\Users\error414\AppData\Local\Temp\stm32-chibios.c1tKpx.ltrans1.ltrans.o
 *fill*         0x0800b434        0xc 
 .text.draw_cleanup
                0x0800b440        0x8 C:\Users\error414\AppData\Local\Temp\stm32-chibios.c1tKpx.ltrans1.ltrans.o
 *fill*         0x0800b448        0x8 
 .text.lv_img_decoder_create
                0x0800b450       0x1c C:\Users\error414\AppData\Local\Temp\stm32-chibios.c1tKpx.ltrans1.ltrans.o
 *fill*         0x0800b46c        0x4 
 .text.get_glyph_dsc_id
                0x0800b470       0xd8 C:\Users\error414\AppData\Local\Temp\stm32-chibios.c1tKpx.ltrans1.ltrans.o
 *fill*         0x0800b548        0x8 
 .text.lv_font_get_bitmap_fmt_txt
                0x0800b550       0xdc C:\Users\error414\AppData\Local\Temp\stm32-chibios.c1tKpx.ltrans1.ltrans.o
                0x0800b550                lv_font_get_bitmap_fmt_txt
 *fill*         0x0800b62c        0x4 
 .text.get_kern_value
                0x0800b630       0xac C:\Users\error414\AppData\Local\Temp\stm32-chibios.c1tKpx.ltrans1.ltrans.o
 *fill*         0x0800b6dc        0x4 
 .text.lv_font_get_glyph_dsc_fmt_txt
                0x0800b6e0       0x98 C:\Users\error414\AppData\Local\Temp\stm32-chibios.c1tKpx.ltrans1.ltrans.o
                0x0800b6e0                lv_font_get_glyph_dsc_fmt_txt
 *fill*         0x0800b778        0x8 
 .text.lv_draw_img_dsc_init
                0x0800b780       0x24 C:\Users\error414\AppData\Local\Temp\stm32-chibios.c1tKpx.ltrans1.ltrans.o
                0x0800b780                lv_draw_img_dsc_init
 *fill*         0x0800b7a4        0xc 
 .text.lv_img_src_get_type
                0x0800b7b0       0x24 C:\Users\error414\AppData\Local\Temp\stm32-chibios.c1tKpx.ltrans1.ltrans.o
                0x0800b7b0                lv_img_src_get_type
 *fill*         0x0800b7d4        0xc 
 .text.lv_img_decoder_built_in_info
                0x0800b7e0       0x70 C:\Users\error414\AppData\Local\Temp\stm32-chibios.c1tKpx.ltrans1.ltrans.o
 .text.lv_img_decoder_open
                0x0800b850       0x84 C:\Users\error414\AppData\Local\Temp\stm32-chibios.c1tKpx.ltrans1.ltrans.o
 *fill*         0x0800b8d4        0xc 
 .text.lv_draw_label_dsc_init
                0x0800b8e0       0x2c C:\Users\error414\AppData\Local\Temp\stm32-chibios.c1tKpx.ltrans1.ltrans.o
                0x0800b8e0                lv_draw_label_dsc_init
 *fill*         0x0800b90c        0x4 
 .text.lv_draw_line_dsc_init
                0x0800b910       0x18 C:\Users\error414\AppData\Local\Temp\stm32-chibios.c1tKpx.ltrans1.ltrans.o
                0x0800b910                lv_draw_line_dsc_init
 *fill*         0x0800b928        0x8 
 .text.lv_draw_mask_add
                0x0800b930       0x34 C:\Users\error414\AppData\Local\Temp\stm32-chibios.c1tKpx.ltrans1.ltrans.o
                0x0800b930                lv_draw_mask_add
 *fill*         0x0800b964        0xc 
 .text.lv_draw_mask_remove_id
                0x0800b970       0x24 C:\Users\error414\AppData\Local\Temp\stm32-chibios.c1tKpx.ltrans1.ltrans.o
                0x0800b970                lv_draw_mask_remove_id
 *fill*         0x0800b994        0xc 
 .text.lv_draw_mask_remove_custom
                0x0800b9a0       0x50 C:\Users\error414\AppData\Local\Temp\stm32-chibios.c1tKpx.ltrans1.ltrans.o
                0x0800b9a0                lv_draw_mask_remove_custom
 .text.lv_draw_mask_line_points_init
                0x0800b9f0      0x15c C:\Users\error414\AppData\Local\Temp\stm32-chibios.c1tKpx.ltrans1.ltrans.o
                0x0800b9f0                lv_draw_mask_line_points_init
 *fill*         0x0800bb4c        0x4 
 .text.lv_draw_mask_radius_init
                0x0800bb50       0x7c C:\Users\error414\AppData\Local\Temp\stm32-chibios.c1tKpx.ltrans1.ltrans.o
                0x0800bb50                lv_draw_mask_radius_init
 *fill*         0x0800bbcc        0x4 
 .text.lv_draw_mask_fade_init
                0x0800bbd0       0x38 C:\Users\error414\AppData\Local\Temp\stm32-chibios.c1tKpx.ltrans1.ltrans.o
                0x0800bbd0                lv_draw_mask_fade_init
 *fill*         0x0800bc08        0x8 
 .text.lv_draw_rect_dsc_init
                0x0800bc10       0x44 C:\Users\error414\AppData\Local\Temp\stm32-chibios.c1tKpx.ltrans1.ltrans.o
                0x0800bc10                lv_draw_rect_dsc_init
 *fill*         0x0800bc54        0xc 
 .text._lv_img_buf_get_transformed_area
                0x0800bc60      0x210 C:\Users\error414\AppData\Local\Temp\stm32-chibios.c1tKpx.ltrans1.ltrans.o
                0x0800bc60                _lv_img_buf_get_transformed_area
 .text._lv_img_decoder_init
                0x0800be70       0x48 C:\Users\error414\AppData\Local\Temp\stm32-chibios.c1tKpx.ltrans1.ltrans.o
                0x0800be70                _lv_img_decoder_init
 *fill*         0x0800beb8        0x8 
 .text.lv_img_decoder_get_info
                0x0800bec0       0x5c C:\Users\error414\AppData\Local\Temp\stm32-chibios.c1tKpx.ltrans1.ltrans.o
                0x0800bec0                lv_img_decoder_get_info
 *fill*         0x0800bf1c        0x4 
 .text.lv_font_get_glyph_width
                0x0800bf20       0x20 C:\Users\error414\AppData\Local\Temp\stm32-chibios.c1tKpx.ltrans1.ltrans.o
                0x0800bf20                lv_font_get_glyph_width
 .text._lv_font_clean_up_fmt_txt
                0x0800bf40       0x18 C:\Users\error414\AppData\Local\Temp\stm32-chibios.c1tKpx.ltrans1.ltrans.o
                0x0800bf40                _lv_font_clean_up_fmt_txt
 *fill*         0x0800bf58        0x8 
 .text.lv_disp_drv_init
                0x0800bf60       0x38 C:\Users\error414\AppData\Local\Temp\stm32-chibios.c1tKpx.ltrans1.ltrans.o
                0x0800bf60                lv_disp_drv_init
 *fill*         0x0800bf98        0x8 
 .text.lv_disp_buf_init
                0x0800bfa0       0x1c C:\Users\error414\AppData\Local\Temp\stm32-chibios.c1tKpx.ltrans1.ltrans.o
                0x0800bfa0                lv_disp_buf_init
 *fill*         0x0800bfbc        0x4 
 .text.lv_disp_get_default
                0x0800bfc0        0xc C:\Users\error414\AppData\Local\Temp\stm32-chibios.c1tKpx.ltrans1.ltrans.o
                0x0800bfc0                lv_disp_get_default
 *fill*         0x0800bfcc        0x4 
 .text.lv_disp_get_hor_res
                0x0800bfd0       0x2c C:\Users\error414\AppData\Local\Temp\stm32-chibios.c1tKpx.ltrans1.ltrans.o
                0x0800bfd0                lv_disp_get_hor_res
 *fill*         0x0800bffc        0x4 
 .text.lv_disp_get_ver_res
                0x0800c000       0x2c C:\Users\error414\AppData\Local\Temp\stm32-chibios.c1tKpx.ltrans1.ltrans.o
                0x0800c000                lv_disp_get_ver_res
 *fill*         0x0800c02c        0x4 
 .text.lv_disp_get_dpi
                0x0800c030       0x1c C:\Users\error414\AppData\Local\Temp\stm32-chibios.c1tKpx.ltrans1.ltrans.o
                0x0800c030                lv_disp_get_dpi
 *fill*         0x0800c04c        0x4 
 .text.lv_disp_flush_ready
                0x0800c050        0xc C:\Users\error414\AppData\Local\Temp\stm32-chibios.c1tKpx.ltrans1.ltrans.o
                0x0800c050                lv_disp_flush_ready
 *fill*         0x0800c05c        0x4 
 .text.lv_disp_get_buf
                0x0800c060        0x4 C:\Users\error414\AppData\Local\Temp\stm32-chibios.c1tKpx.ltrans1.ltrans.o
                0x0800c060                lv_disp_get_buf
 *fill*         0x0800c064        0xc 
 .text._lv_blend_fill
                0x0800c070      0x100 C:\Users\error414\AppData\Local\Temp\stm32-chibios.c1tKpx.ltrans1.ltrans.o
 .text.draw_letter_normal
                0x0800c170      0x2e8 C:\Users\error414\AppData\Local\Temp\stm32-chibios.c1tKpx.ltrans1.ltrans.o
 *fill*         0x0800c458        0x8 
 .text._lv_blend_map
                0x0800c460      0x104 C:\Users\error414\AppData\Local\Temp\stm32-chibios.c1tKpx.ltrans1.ltrans.o
 *fill*         0x0800c564        0xc 
 .text.draw_letter_subpx
                0x0800c570      0x40c C:\Users\error414\AppData\Local\Temp\stm32-chibios.c1tKpx.ltrans1.ltrans.o
 *fill*         0x0800c97c        0x4 
 .text.lv_draw_letter
                0x0800c980       0xe0 C:\Users\error414\AppData\Local\Temp\stm32-chibios.c1tKpx.ltrans1.ltrans.o
 .text.draw_line_hor
                0x0800ca60      0x1f8 C:\Users\error414\AppData\Local\Temp\stm32-chibios.c1tKpx.ltrans1.ltrans.o
 *fill*         0x0800cc58        0x8 
 .text.draw_line_ver
                0x0800cc60      0x1e4 C:\Users\error414\AppData\Local\Temp\stm32-chibios.c1tKpx.ltrans1.ltrans.o
 *fill*         0x0800ce44        0xc 
 .text.draw_bg  0x0800ce50      0x5ac C:\Users\error414\AppData\Local\Temp\stm32-chibios.c1tKpx.ltrans1.ltrans.o
 *fill*         0x0800d3fc        0x4 
 .text.draw_full_border
                0x0800d400      0x514 C:\Users\error414\AppData\Local\Temp\stm32-chibios.c1tKpx.ltrans1.ltrans.o
 *fill*         0x0800d914        0xc 
 .text.draw_border
                0x0800d920      0x340 C:\Users\error414\AppData\Local\Temp\stm32-chibios.c1tKpx.ltrans1.ltrans.o
 .text.draw_outline
                0x0800dc60       0xbc C:\Users\error414\AppData\Local\Temp\stm32-chibios.c1tKpx.ltrans1.ltrans.o
 *fill*         0x0800dd1c        0x4 
 .text.lv_disp_is_double_buf
                0x0800dd20       0x18 C:\Users\error414\AppData\Local\Temp\stm32-chibios.c1tKpx.ltrans1.ltrans.o
                0x0800dd20                lv_disp_is_double_buf
 *fill*         0x0800dd38        0x8 
 .text.lv_disp_is_true_double_buf
                0x0800dd40       0x28 C:\Users\error414\AppData\Local\Temp\stm32-chibios.c1tKpx.ltrans1.ltrans.o
                0x0800dd40                lv_disp_is_true_double_buf
 *fill*         0x0800dd68        0x8 
 .text.lv_disp_drv_register
                0x0800dd70       0xdc C:\Users\error414\AppData\Local\Temp\stm32-chibios.c1tKpx.ltrans1.ltrans.o
                0x0800dd70                lv_disp_drv_register
 *fill*         0x0800de4c        0x4 
 .text.lv_indev_get_next
                0x0800de50       0x1c C:\Users\error414\AppData\Local\Temp\stm32-chibios.c1tKpx.ltrans1.ltrans.o
                0x0800de50                lv_indev_get_next
 *fill*         0x0800de6c        0x4 
 .text.lv_tick_inc
                0x0800de70       0x18 C:\Users\error414\AppData\Local\Temp\stm32-chibios.c1tKpx.ltrans1.ltrans.o
                0x0800de70                lv_tick_inc
 *fill*         0x0800de88        0x8 
 .text.lv_tick_get
                0x0800de90       0x1c C:\Users\error414\AppData\Local\Temp\stm32-chibios.c1tKpx.ltrans1.ltrans.o
                0x0800de90                lv_tick_get
 *fill*         0x0800deac        0x4 
 .text.lv_tick_elaps
                0x0800deb0       0x14 C:\Users\error414\AppData\Local\Temp\stm32-chibios.c1tKpx.ltrans1.ltrans.o
                0x0800deb0                lv_tick_elaps
 *fill*         0x0800dec4        0xc 
 .text._lv_img_cache_open
                0x0800ded0       0x6c C:\Users\error414\AppData\Local\Temp\stm32-chibios.c1tKpx.ltrans1.ltrans.o
 *fill*         0x0800df3c        0x4 
 .text.lv_area_set
                0x0800df40       0x10 C:\Users\error414\AppData\Local\Temp\stm32-chibios.c1tKpx.ltrans1.ltrans.o
                0x0800df40                lv_area_set
 .text.lv_area_get_size
                0x0800df50       0x1c C:\Users\error414\AppData\Local\Temp\stm32-chibios.c1tKpx.ltrans1.ltrans.o
                0x0800df50                lv_area_get_size
 *fill*         0x0800df6c        0x4 
 .text.lv_draw_map
                0x0800df70      0x5b4 C:\Users\error414\AppData\Local\Temp\stm32-chibios.c1tKpx.ltrans1.ltrans.o
 *fill*         0x0800e524        0xc 
 .text.draw_line_skew
                0x0800e530      0x3f4 C:\Users\error414\AppData\Local\Temp\stm32-chibios.c1tKpx.ltrans1.ltrans.o
 *fill*         0x0800e924        0xc 
 .text.lv_draw_line
                0x0800e930      0x1a0 C:\Users\error414\AppData\Local\Temp\stm32-chibios.c1tKpx.ltrans1.ltrans.o
                0x0800e930                lv_draw_line
 .text.lv_draw_label
                0x0800ead0      0x594 C:\Users\error414\AppData\Local\Temp\stm32-chibios.c1tKpx.ltrans1.ltrans.o
                0x0800ead0                lv_draw_label
 *fill*         0x0800f064        0xc 
 .text.draw_value_str
                0x0800f070       0xe0 C:\Users\error414\AppData\Local\Temp\stm32-chibios.c1tKpx.ltrans1.ltrans.o
 .text.lv_draw_rect
                0x0800f150       0x5c C:\Users\error414\AppData\Local\Temp\stm32-chibios.c1tKpx.ltrans1.ltrans.o
                0x0800f150                lv_draw_rect
 *fill*         0x0800f1ac        0x4 
 .text.show_error
                0x0800f1b0       0x3c C:\Users\error414\AppData\Local\Temp\stm32-chibios.c1tKpx.ltrans1.ltrans.o
 *fill*         0x0800f1ec        0x4 
 .text.lv_img_draw_core
                0x0800f1f0      0x1f0 C:\Users\error414\AppData\Local\Temp\stm32-chibios.c1tKpx.ltrans1.ltrans.o
 .text.lv_draw_img
                0x0800f3e0       0x34 C:\Users\error414\AppData\Local\Temp\stm32-chibios.c1tKpx.ltrans1.ltrans.o
                0x0800f3e0                lv_draw_img
 *fill*         0x0800f414        0xc 
 .text.draw_pattern
                0x0800f420      0x294 C:\Users\error414\AppData\Local\Temp\stm32-chibios.c1tKpx.ltrans1.ltrans.o
 *fill*         0x0800f6b4        0xc 
 .text.lv_point_within_circle
                0x0800f6c0       0x4c C:\Users\error414\AppData\Local\Temp\stm32-chibios.c1tKpx.ltrans2.ltrans.o
 *fill*         0x0800f70c        0x4 
 .text._lv_ll_get_head
                0x0800f710        0x8 C:\Users\error414\AppData\Local\Temp\stm32-chibios.c1tKpx.ltrans2.ltrans.o
                0x0800f710                _lv_ll_get_head
 *fill*         0x0800f718        0x8 
 .text._lv_ll_get_tail
                0x0800f720        0x8 C:\Users\error414\AppData\Local\Temp\stm32-chibios.c1tKpx.ltrans2.ltrans.o
                0x0800f720                _lv_ll_get_tail
 *fill*         0x0800f728        0x8 
 .text._lv_ll_get_next
                0x0800f730        0xc C:\Users\error414\AppData\Local\Temp\stm32-chibios.c1tKpx.ltrans2.ltrans.o
                0x0800f730                _lv_ll_get_next
 *fill*         0x0800f73c        0x4 
 .text._lv_ll_get_prev
                0x0800f740        0xc C:\Users\error414\AppData\Local\Temp\stm32-chibios.c1tKpx.ltrans2.ltrans.o
                0x0800f740                _lv_ll_get_prev
 *fill*         0x0800f74c        0x4 
 .text._lv_ll_get_len
                0x0800f750       0x20 C:\Users\error414\AppData\Local\Temp\stm32-chibios.c1tKpx.ltrans2.ltrans.o
 .text._lv_ll_is_empty
                0x0800f770       0x1c C:\Users\error414\AppData\Local\Temp\stm32-chibios.c1tKpx.ltrans2.ltrans.o
 *fill*         0x0800f78c        0x4 
 .text.node_set_prev
                0x0800f790        0xc C:\Users\error414\AppData\Local\Temp\stm32-chibios.c1tKpx.ltrans2.ltrans.o
 *fill*         0x0800f79c        0x4 
 .text.node_set_next
                0x0800f7a0        0xc C:\Users\error414\AppData\Local\Temp\stm32-chibios.c1tKpx.ltrans2.ltrans.o
 *fill*         0x0800f7ac        0x4 
 .text.ent_get_next
                0x0800f7b0       0x28 C:\Users\error414\AppData\Local\Temp\stm32-chibios.c1tKpx.ltrans2.ltrans.o
 *fill*         0x0800f7d8        0x8 
 .text.lv_mem_defrag
                0x0800f7e0       0x54 C:\Users\error414\AppData\Local\Temp\stm32-chibios.c1tKpx.ltrans2.ltrans.o
 *fill*         0x0800f834        0xc 
 .text.ent_trunc
                0x0800f840       0x44 C:\Users\error414\AppData\Local\Temp\stm32-chibios.c1tKpx.ltrans2.ltrans.o
 *fill*         0x0800f884        0xc 
 .text.ent_alloc
                0x0800f890       0x30 C:\Users\error414\AppData\Local\Temp\stm32-chibios.c1tKpx.ltrans2.ltrans.o
 .text.lv_task_enable
                0x0800f8c0        0xc C:\Users\error414\AppData\Local\Temp\stm32-chibios.c1tKpx.ltrans2.ltrans.o
 *fill*         0x0800f8cc        0x4 
 .text.lv_txt_utf8_size.lto_priv.0
                0x0800f8d0       0x38 C:\Users\error414\AppData\Local\Temp\stm32-chibios.c1tKpx.ltrans2.ltrans.o
                0x0800f8d0                lv_txt_utf8_size.lto_priv.0
 *fill*         0x0800f908        0x8 
 .text.lv_txt_utf8_next.lto_priv.0
                0x0800f910      0x128 C:\Users\error414\AppData\Local\Temp\stm32-chibios.c1tKpx.ltrans2.ltrans.o
                0x0800f910                lv_txt_utf8_next.lto_priv.0
 *fill*         0x0800fa38        0x8 
 .text.lv_txt_utf8_prev.lto_priv.0
                0x0800fa40       0x4c C:\Users\error414\AppData\Local\Temp\stm32-chibios.c1tKpx.ltrans2.ltrans.o
                0x0800fa40                lv_txt_utf8_prev.lto_priv.0
 *fill*         0x0800fa8c        0x4 
 .text.lv_txt_utf8_get_byte_id.lto_priv.0
                0x0800fa90       0x28 C:\Users\error414\AppData\Local\Temp\stm32-chibios.c1tKpx.ltrans2.ltrans.o
                0x0800fa90                lv_txt_utf8_get_byte_id.lto_priv.0
 *fill*         0x0800fab8        0x8 
 .text.lv_txt_utf8_get_char_id.lto_priv.0
                0x0800fac0       0x24 C:\Users\error414\AppData\Local\Temp\stm32-chibios.c1tKpx.ltrans2.ltrans.o
                0x0800fac0                lv_txt_utf8_get_char_id.lto_priv.0
 *fill*         0x0800fae4        0xc 
 .text.lv_txt_utf8_get_length.lto_priv.0
                0x0800faf0       0x24 C:\Users\error414\AppData\Local\Temp\stm32-chibios.c1tKpx.ltrans2.ltrans.o
                0x0800faf0                lv_txt_utf8_get_length.lto_priv.0
 *fill*         0x0800fb14        0xc 
 .text.apply_theme
                0x0800fb20       0x34 C:\Users\error414\AppData\Local\Temp\stm32-chibios.c1tKpx.ltrans2.ltrans.o
 *fill*         0x0800fb54        0xc 
 .text.create_axis_label_iter
                0x0800fb60       0x44 C:\Users\error414\AppData\Local\Temp\stm32-chibios.c1tKpx.ltrans2.ltrans.o
 *fill*         0x0800fba4        0xc 
 .text.lv_cont_get_style
                0x0800fbb0        0xc C:\Users\error414\AppData\Local\Temp\stm32-chibios.c1tKpx.ltrans2.ltrans.o
 *fill*         0x0800fbbc        0x4 
 .text.lv_task_time_remaining
                0x0800fbc0       0x18 C:\Users\error414\AppData\Local\Temp\stm32-chibios.c1tKpx.ltrans2.ltrans.o
 *fill*         0x0800fbd8        0x8 
 .text.clear_styles
                0x0800fbe0      0x2d8 C:\Users\error414\AppData\Local\Temp\stm32-chibios.c1tKpx.ltrans2.ltrans.o
 *fill*         0x0800feb8        0x8 
 .text.theme_apply
                0x0800fec0      0x7c0 C:\Users\error414\AppData\Local\Temp\stm32-chibios.c1tKpx.ltrans2.ltrans.o
 .text.style_init_reset
                0x08010680        0x8 C:\Users\error414\AppData\Local\Temp\stm32-chibios.c1tKpx.ltrans2.ltrans.o
 *fill*         0x08010688        0x8 
 .text.basic_init
                0x08010690      0x888 C:\Users\error414\AppData\Local\Temp\stm32-chibios.c1tKpx.ltrans2.ltrans.o
 *fill*         0x08010f18        0x8 
 .text.arc_init
                0x08010f20       0x94 C:\Users\error414\AppData\Local\Temp\stm32-chibios.c1tKpx.ltrans2.ltrans.o
 *fill*         0x08010fb4        0xc 
 .text.calendar_init
                0x08010fc0      0x188 C:\Users\error414\AppData\Local\Temp\stm32-chibios.c1tKpx.ltrans2.ltrans.o
 *fill*         0x08011148        0x8 
 .text.chart_init
                0x08011150       0x38 C:\Users\error414\AppData\Local\Temp\stm32-chibios.c1tKpx.ltrans2.ltrans.o
 *fill*         0x08011188        0x8 
 .text.gauge_init
                0x08011190      0x160 C:\Users\error414\AppData\Local\Temp\stm32-chibios.c1tKpx.ltrans2.ltrans.o
 .text.linemeter_init
                0x080112f0       0x2c C:\Users\error414\AppData\Local\Temp\stm32-chibios.c1tKpx.ltrans2.ltrans.o
 *fill*         0x0801131c        0x4 
 .text.switch_init
                0x08011320       0x84 C:\Users\error414\AppData\Local\Temp\stm32-chibios.c1tKpx.ltrans2.ltrans.o
 *fill*         0x080113a4        0xc 
 .text.textarea_init
                0x080113b0       0x68 C:\Users\error414\AppData\Local\Temp\stm32-chibios.c1tKpx.ltrans2.ltrans.o
 *fill*         0x08011418        0x8 
 .text.list_init
                0x08011420       0x54 C:\Users\error414\AppData\Local\Temp\stm32-chibios.c1tKpx.ltrans2.ltrans.o
 *fill*         0x08011474        0xc 
 .text.tabview_init
                0x08011480       0x60 C:\Users\error414\AppData\Local\Temp\stm32-chibios.c1tKpx.ltrans2.ltrans.o
 .text.lv_chart_get_style
                0x080114e0       0x2c C:\Users\error414\AppData\Local\Temp\stm32-chibios.c1tKpx.ltrans2.ltrans.o
 *fill*         0x0801150c        0x4 
 .text.lv_cont_get_layout
                0x08011510       0x10 C:\Users\error414\AppData\Local\Temp\stm32-chibios.c1tKpx.ltrans2.ltrans.o
 .text.lv_img_get_auto_size
                0x08011520       0x10 C:\Users\error414\AppData\Local\Temp\stm32-chibios.c1tKpx.ltrans2.ltrans.o
 .text.lv_chart_refresh
                0x08011530        0x8 C:\Users\error414\AppData\Local\Temp\stm32-chibios.c1tKpx.ltrans2.ltrans.o
 *fill*         0x08011538        0x8 
 .text.lv_chart_get_series_area
                0x08011540       0x68 C:\Users\error414\AppData\Local\Temp\stm32-chibios.c1tKpx.ltrans2.ltrans.o
 *fill*         0x080115a8        0x8 
 .text.draw_series_bg
                0x080115b0      0x150 C:\Users\error414\AppData\Local\Temp\stm32-chibios.c1tKpx.ltrans2.ltrans.o
 .text.get_next_axis_label
                0x08011700       0x7c C:\Users\error414\AppData\Local\Temp\stm32-chibios.c1tKpx.ltrans2.ltrans.o
 *fill*         0x0801177c        0x4 
 .text.invalidate_lines
                0x08011780      0x10c C:\Users\error414\AppData\Local\Temp\stm32-chibios.c1tKpx.ltrans2.ltrans.o
 *fill*         0x0801188c        0x4 
 .text.invalidate_columns
                0x08011890       0x7c C:\Users\error414\AppData\Local\Temp\stm32-chibios.c1tKpx.ltrans2.ltrans.o
 *fill*         0x0801190c        0x4 
 .text.lv_cont_layout_col
                0x08011910      0x100 C:\Users\error414\AppData\Local\Temp\stm32-chibios.c1tKpx.ltrans2.ltrans.o
 .text.lv_cont_layout_center
                0x08011a10       0xe0 C:\Users\error414\AppData\Local\Temp\stm32-chibios.c1tKpx.ltrans2.ltrans.o
 .text.lv_cont_layout_row
                0x08011af0      0x13c C:\Users\error414\AppData\Local\Temp\stm32-chibios.c1tKpx.ltrans2.ltrans.o
 *fill*         0x08011c2c        0x4 
 .text.lv_cont_layout_pretty
                0x08011c30      0x32c C:\Users\error414\AppData\Local\Temp\stm32-chibios.c1tKpx.ltrans2.ltrans.o
 *fill*         0x08011f5c        0x4 
 .text.lv_cont_layout_grid
                0x08011f60       0xc4 C:\Users\error414\AppData\Local\Temp\stm32-chibios.c1tKpx.ltrans2.ltrans.o
 *fill*         0x08012024        0xc 
 .text.lv_cont_refr_layout
                0x08012030       0x70 C:\Users\error414\AppData\Local\Temp\stm32-chibios.c1tKpx.ltrans2.ltrans.o
 .text.lv_cont_refr_autofit
                0x080120a0      0x3e8 C:\Users\error414\AppData\Local\Temp\stm32-chibios.c1tKpx.ltrans2.ltrans.o
 *fill*         0x08012488        0x8 
 .text.lv_cont_signal
                0x08012490       0xc8 C:\Users\error414\AppData\Local\Temp\stm32-chibios.c1tKpx.ltrans2.ltrans.o
 *fill*         0x08012558        0x8 
 .text._lv_area_intersect
                0x08012560       0x5c C:\Users\error414\AppData\Local\Temp\stm32-chibios.c1tKpx.ltrans2.ltrans.o
                0x08012560                _lv_area_intersect
 *fill*         0x080125bc        0x4 
 .text.draw_series_line
                0x080125c0      0x368 C:\Users\error414\AppData\Local\Temp\stm32-chibios.c1tKpx.ltrans2.ltrans.o
 *fill*         0x08012928        0x8 
 .text.draw_series_column
                0x08012930      0x1ac C:\Users\error414\AppData\Local\Temp\stm32-chibios.c1tKpx.ltrans2.ltrans.o
 *fill*         0x08012adc        0x4 
 .text.draw_cursors
                0x08012ae0      0x1c8 C:\Users\error414\AppData\Local\Temp\stm32-chibios.c1tKpx.ltrans2.ltrans.o
 *fill*         0x08012ca8        0x8 
 .text._lv_area_join
                0x08012cb0       0x44 C:\Users\error414\AppData\Local\Temp\stm32-chibios.c1tKpx.ltrans2.ltrans.o
                0x08012cb0                _lv_area_join
 *fill*         0x08012cf4        0xc 
 .text._lv_area_is_point_on
                0x08012d00      0x188 C:\Users\error414\AppData\Local\Temp\stm32-chibios.c1tKpx.ltrans2.ltrans.o
                0x08012d00                _lv_area_is_point_on
 *fill*         0x08012e88        0x8 
 .text._lv_area_is_on
                0x08012e90       0x44 C:\Users\error414\AppData\Local\Temp\stm32-chibios.c1tKpx.ltrans2.ltrans.o
                0x08012e90                _lv_area_is_on
 *fill*         0x08012ed4        0xc 
 .text._lv_area_is_in
                0x08012ee0       0xac C:\Users\error414\AppData\Local\Temp\stm32-chibios.c1tKpx.ltrans2.ltrans.o
                0x08012ee0                _lv_area_is_in
 *fill*         0x08012f8c        0x4 
 .text._lv_area_align
                0x08012f90      0x544 C:\Users\error414\AppData\Local\Temp\stm32-chibios.c1tKpx.ltrans2.ltrans.o
                0x08012f90                _lv_area_align
 *fill*         0x080134d4        0xc 
 .text.lv_color_fill
                0x080134e0       0x38 C:\Users\error414\AppData\Local\Temp\stm32-chibios.c1tKpx.ltrans2.ltrans.o
                0x080134e0                lv_color_fill
 *fill*         0x08013518        0x8 
 .text._lv_ll_init
                0x08013520       0x10 C:\Users\error414\AppData\Local\Temp\stm32-chibios.c1tKpx.ltrans2.ltrans.o
                0x08013520                _lv_ll_init
 .text._lv_ll_remove
                0x08013530       0x80 C:\Users\error414\AppData\Local\Temp\stm32-chibios.c1tKpx.ltrans2.ltrans.o
                0x08013530                _lv_ll_remove
 .text._lv_ll_move_before
                0x080135b0       0x64 C:\Users\error414\AppData\Local\Temp\stm32-chibios.c1tKpx.ltrans2.ltrans.o
 *fill*         0x08013614        0xc 
 .text._lv_ll_chg_list
                0x08013620       0x68 C:\Users\error414\AppData\Local\Temp\stm32-chibios.c1tKpx.ltrans2.ltrans.o
                0x08013620                _lv_ll_chg_list
 *fill*         0x08013688        0x8 
 .text._lv_trigo_sin
                0x08013690       0x7c C:\Users\error414\AppData\Local\Temp\stm32-chibios.c1tKpx.ltrans2.ltrans.o
                0x08013690                _lv_trigo_sin
 *fill*         0x0801370c        0x4 
 .text._lv_sqrt
                0x08013710       0x34 C:\Users\error414\AppData\Local\Temp\stm32-chibios.c1tKpx.ltrans2.ltrans.o
                0x08013710                _lv_sqrt
 *fill*         0x08013744        0xc 
 .text._lv_mem_init
                0x08013750       0x24 C:\Users\error414\AppData\Local\Temp\stm32-chibios.c1tKpx.ltrans2.ltrans.o
                0x08013750                _lv_mem_init
 *fill*         0x08013774        0xc 
 .text.lv_mem_alloc
                0x08013780       0x5c C:\Users\error414\AppData\Local\Temp\stm32-chibios.c1tKpx.ltrans2.ltrans.o
                0x08013780                lv_mem_alloc
 *fill*         0x080137dc        0x4 
 .text._lv_ll_ins_head
                0x080137e0       0x40 C:\Users\error414\AppData\Local\Temp\stm32-chibios.c1tKpx.ltrans2.ltrans.o
                0x080137e0                _lv_ll_ins_head
 .text._lv_ll_ins_prev
                0x08013820       0x68 C:\Users\error414\AppData\Local\Temp\stm32-chibios.c1tKpx.ltrans2.ltrans.o
 *fill*         0x08013888        0x8 
 .text._lv_ll_ins_tail
                0x08013890       0x40 C:\Users\error414\AppData\Local\Temp\stm32-chibios.c1tKpx.ltrans2.ltrans.o
                0x08013890                _lv_ll_ins_tail
 .text.lv_mem_free
                0x080138d0       0x6c C:\Users\error414\AppData\Local\Temp\stm32-chibios.c1tKpx.ltrans2.ltrans.o
                0x080138d0                lv_mem_free
 *fill*         0x0801393c        0x4 
 .text._lv_ll_clear
                0x08013940       0x2c C:\Users\error414\AppData\Local\Temp\stm32-chibios.c1tKpx.ltrans2.ltrans.o
 *fill*         0x0801396c        0x4 
 .text.lv_task_del
                0x08013970       0x3c C:\Users\error414\AppData\Local\Temp\stm32-chibios.c1tKpx.ltrans2.ltrans.o
 *fill*         0x080139ac        0x4 
 .text.lv_task_exec
                0x080139b0       0x44 C:\Users\error414\AppData\Local\Temp\stm32-chibios.c1tKpx.ltrans2.ltrans.o
 *fill*         0x080139f4        0xc 
 .text.lv_chart_signal
                0x08013a00       0xa8 C:\Users\error414\AppData\Local\Temp\stm32-chibios.c1tKpx.ltrans2.ltrans.o
 *fill*         0x08013aa8        0x8 
 .text._lv_mem_get_size
                0x08013ab0       0x20 C:\Users\error414\AppData\Local\Temp\stm32-chibios.c1tKpx.ltrans2.ltrans.o
                0x08013ab0                _lv_mem_get_size
 .text._lv_mem_buf_release
                0x08013ad0       0x5c C:\Users\error414\AppData\Local\Temp\stm32-chibios.c1tKpx.ltrans2.ltrans.o
                0x08013ad0                _lv_mem_buf_release
 *fill*         0x08013b2c        0x4 
 .text._lv_mem_buf_free_all
                0x08013b30       0x58 C:\Users\error414\AppData\Local\Temp\stm32-chibios.c1tKpx.ltrans2.ltrans.o
                0x08013b30                _lv_mem_buf_free_all
 *fill*         0x08013b88        0x8 
 .text._lv_memcpy
                0x08013b90      0x120 C:\Users\error414\AppData\Local\Temp\stm32-chibios.c1tKpx.ltrans2.ltrans.o
                0x08013b90                _lv_memcpy
 .text.lv_mem_realloc
                0x08013cb0       0x60 C:\Users\error414\AppData\Local\Temp\stm32-chibios.c1tKpx.ltrans2.ltrans.o
                0x08013cb0                lv_mem_realloc
 .text._lv_mem_buf_get
                0x08013d10      0x108 C:\Users\error414\AppData\Local\Temp\stm32-chibios.c1tKpx.ltrans2.ltrans.o
                0x08013d10                _lv_mem_buf_get
 *fill*         0x08013e18        0x8 
 .text.lv_img_design
                0x08013e20      0x604 C:\Users\error414\AppData\Local\Temp\stm32-chibios.c1tKpx.ltrans2.ltrans.o
 *fill*         0x08014424        0xc 
 .text._lv_memset
                0x08014430       0x58 C:\Users\error414\AppData\Local\Temp\stm32-chibios.c1tKpx.ltrans2.ltrans.o
                0x08014430                _lv_memset
 *fill*         0x08014488        0x8 
 .text._lv_memset_00
                0x08014490       0x54 C:\Users\error414\AppData\Local\Temp\stm32-chibios.c1tKpx.ltrans2.ltrans.o
                0x08014490                _lv_memset_00
 *fill*         0x080144e4        0xc 
 .text._lv_memset_ff
                0x080144f0       0x58 C:\Users\error414\AppData\Local\Temp\stm32-chibios.c1tKpx.ltrans2.ltrans.o
                0x080144f0                _lv_memset_ff
 *fill*         0x08014548        0x8 
 .text._lv_task_core_init
                0x08014550       0x18 C:\Users\error414\AppData\Local\Temp\stm32-chibios.c1tKpx.ltrans2.ltrans.o
                0x08014550                _lv_task_core_init
 *fill*         0x08014568        0x8 
 .text.lv_task_handler
                0x08014570      0x1ac C:\Users\error414\AppData\Local\Temp\stm32-chibios.c1tKpx.ltrans2.ltrans.o
                0x08014570                lv_task_handler
 *fill*         0x0801471c        0x4 
 .text.lv_task_create
                0x08014720       0xa4 C:\Users\error414\AppData\Local\Temp\stm32-chibios.c1tKpx.ltrans2.ltrans.o
                0x08014720                lv_task_create
 *fill*         0x080147c4        0xc 
 .text.lv_task_set_prio
                0x080147d0       0x68 C:\Users\error414\AppData\Local\Temp\stm32-chibios.c1tKpx.ltrans2.ltrans.o
                0x080147d0                lv_task_set_prio
 *fill*         0x08014838        0x8 
 .text.lv_task_ready
                0x08014840       0x14 C:\Users\error414\AppData\Local\Temp\stm32-chibios.c1tKpx.ltrans2.ltrans.o
                0x08014840                lv_task_ready
 *fill*         0x08014854        0xc 
 .text._lv_txt_is_cmd
                0x08014860       0x44 C:\Users\error414\AppData\Local\Temp\stm32-chibios.c1tKpx.ltrans2.ltrans.o
                0x08014860                _lv_txt_is_cmd
 *fill*         0x080148a4        0xc 
 .text.lv_txt_get_next_word
                0x080148b0      0x158 C:\Users\error414\AppData\Local\Temp\stm32-chibios.c1tKpx.ltrans2.ltrans.o
 *fill*         0x08014a08        0x8 
 .text._lv_txt_get_next_line
                0x08014a10       0xd4 C:\Users\error414\AppData\Local\Temp\stm32-chibios.c1tKpx.ltrans2.ltrans.o
                0x08014a10                _lv_txt_get_next_line
 *fill*         0x08014ae4        0xc 
 .text._lv_txt_get_width
                0x08014af0       0x9c C:\Users\error414\AppData\Local\Temp\stm32-chibios.c1tKpx.ltrans2.ltrans.o
                0x08014af0                _lv_txt_get_width
 *fill*         0x08014b8c        0x4 
 .text._lv_txt_get_size
                0x08014b90       0xc8 C:\Users\error414\AppData\Local\Temp\stm32-chibios.c1tKpx.ltrans2.ltrans.o
                0x08014b90                _lv_txt_get_size
 *fill*         0x08014c58        0x8 
 .text.draw_y_ticks
                0x08014c60      0x310 C:\Users\error414\AppData\Local\Temp\stm32-chibios.c1tKpx.ltrans2.ltrans.o
 .text.draw_x_ticks
                0x08014f70      0x29c C:\Users\error414\AppData\Local\Temp\stm32-chibios.c1tKpx.ltrans2.ltrans.o
 *fill*         0x0801520c        0x4 
 .text.draw_axes
                0x08015210       0x28 C:\Users\error414\AppData\Local\Temp\stm32-chibios.c1tKpx.ltrans2.ltrans.o
 *fill*         0x08015238        0x8 
 .text.lv_chart_design
                0x08015240       0x9c C:\Users\error414\AppData\Local\Temp\stm32-chibios.c1tKpx.ltrans2.ltrans.o
 *fill*         0x080152dc        0x4 
 .text._lv_utils_bsearch
                0x080152e0       0x44 C:\Users\error414\AppData\Local\Temp\stm32-chibios.c1tKpx.ltrans2.ltrans.o
                0x080152e0                _lv_utils_bsearch
 *fill*         0x08015324        0xc 
 .text.lv_theme_set_act
                0x08015330        0xc C:\Users\error414\AppData\Local\Temp\stm32-chibios.c1tKpx.ltrans2.ltrans.o
                0x08015330                lv_theme_set_act
 *fill*         0x0801533c        0x4 
 .text.lv_theme_apply
                0x08015340       0x1c C:\Users\error414\AppData\Local\Temp\stm32-chibios.c1tKpx.ltrans2.ltrans.o
                0x08015340                lv_theme_apply
 *fill*         0x0801535c        0x4 
 .text.lv_theme_get_font_normal
                0x08015360        0xc C:\Users\error414\AppData\Local\Temp\stm32-chibios.c1tKpx.ltrans2.ltrans.o
                0x08015360                lv_theme_get_font_normal
 *fill*         0x0801536c        0x4 
 .text.lv_theme_mono_init
                0x08015370       0x78 C:\Users\error414\AppData\Local\Temp\stm32-chibios.c1tKpx.ltrans2.ltrans.o
                0x08015370                lv_theme_mono_init
 *fill*         0x080153e8        0x8 
 .text.lv_chart_create
                0x080153f0      0x1e0 C:\Users\error414\AppData\Local\Temp\stm32-chibios.c1tKpx.ltrans2.ltrans.o
                0x080153f0                lv_chart_create
 .text.lv_chart_add_series
                0x080155d0       0x68 C:\Users\error414\AppData\Local\Temp\stm32-chibios.c1tKpx.ltrans2.ltrans.o
                0x080155d0                lv_chart_add_series
 *fill*         0x08015638        0x8 
 .text.lv_chart_set_div_line_count
                0x08015640       0x2c C:\Users\error414\AppData\Local\Temp\stm32-chibios.c1tKpx.ltrans2.ltrans.o
                0x08015640                lv_chart_set_div_line_count
 *fill*         0x0801566c        0x4 
 .text.lv_chart_set_y_range
                0x08015670       0x54 C:\Users\error414\AppData\Local\Temp\stm32-chibios.c1tKpx.ltrans2.ltrans.o
                0x08015670                lv_chart_set_y_range
 *fill*         0x080156c4        0xc 
 .text.lv_chart_set_type
                0x080156d0       0x20 C:\Users\error414\AppData\Local\Temp\stm32-chibios.c1tKpx.ltrans2.ltrans.o
                0x080156d0                lv_chart_set_type
 .text.lv_chart_set_point_count
                0x080156f0       0xe4 C:\Users\error414\AppData\Local\Temp\stm32-chibios.c1tKpx.ltrans2.ltrans.o
                0x080156f0                lv_chart_set_point_count
 *fill*         0x080157d4        0xc 
 .text.lv_chart_set_next
                0x080157e0       0x7c C:\Users\error414\AppData\Local\Temp\stm32-chibios.c1tKpx.ltrans2.ltrans.o
                0x080157e0                lv_chart_set_next
 *fill*         0x0801585c        0x4 
 .text.lv_chart_set_y_tick_length
                0x08015860       0x14 C:\Users\error414\AppData\Local\Temp\stm32-chibios.c1tKpx.ltrans2.ltrans.o
                0x08015860                lv_chart_set_y_tick_length
 *fill*         0x08015874        0xc 
 .text.lv_chart_set_y_tick_texts
                0x08015880       0x18 C:\Users\error414\AppData\Local\Temp\stm32-chibios.c1tKpx.ltrans2.ltrans.o
                0x08015880                lv_chart_set_y_tick_texts
 *fill*         0x08015898        0x8 
 .text.lv_cont_create
                0x080158a0       0xf4 C:\Users\error414\AppData\Local\Temp\stm32-chibios.c1tKpx.ltrans2.ltrans.o
                0x080158a0                lv_cont_create
 *fill*         0x08015994        0xc 
 .text.lv_cont_set_layout
                0x080159a0       0x28 C:\Users\error414\AppData\Local\Temp\stm32-chibios.c1tKpx.ltrans2.ltrans.o
                0x080159a0                lv_cont_set_layout
 *fill*         0x080159c8        0x8 
 .text.lv_img_set_src
                0x080159d0      0x180 C:\Users\error414\AppData\Local\Temp\stm32-chibios.c1tKpx.ltrans2.ltrans.o
                0x080159d0                lv_img_set_src
 .text.lv_img_create
                0x08015b50      0x128 C:\Users\error414\AppData\Local\Temp\stm32-chibios.c1tKpx.ltrans2.ltrans.o
                0x08015b50                lv_img_create
 *fill*         0x08015c78        0x8 
 .text.lv_img_get_style
                0x08015c80        0xc C:\Users\error414\AppData\Local\Temp\stm32-chibios.c1tKpx.ltrans3.ltrans.o
 *fill*         0x08015c8c        0x4 
 .text.lv_label_get_text_sel_start
                0x08015c90        0x8 C:\Users\error414\AppData\Local\Temp\stm32-chibios.c1tKpx.ltrans3.ltrans.o
 *fill*         0x08015c98        0x8 
 .text.lv_label_get_text_sel_end
                0x08015ca0        0x8 C:\Users\error414\AppData\Local\Temp\stm32-chibios.c1tKpx.ltrans3.ltrans.o
 *fill*         0x08015ca8        0x8 
 .text.lv_label_get_style
                0x08015cb0        0xc C:\Users\error414\AppData\Local\Temp\stm32-chibios.c1tKpx.ltrans3.ltrans.o
 *fill*         0x08015cbc        0x4 
 .text.gpio_init
                0x08015cc0       0x20 C:\Users\error414\AppData\Local\Temp\stm32-chibios.c1tKpx.ltrans3.ltrans.o
 .text.stm32_gpio_init
                0x08015ce0       0x88 C:\Users\error414\AppData\Local\Temp\stm32-chibios.c1tKpx.ltrans3.ltrans.o
 *fill*         0x08015d68        0x8 
 .text.MSP__parseMspFrameLoop
                0x08015d70       0xd4 C:\Users\error414\AppData\Local\Temp\stm32-chibios.c1tKpx.ltrans3.ltrans.o
 *fill*         0x08015e44        0xc 
 .text.Gui__thread_init
                0x08015e50        0xc C:\Users\error414\AppData\Local\Temp\stm32-chibios.c1tKpx.ltrans3.ltrans.o
 *fill*         0x08015e5c        0x4 
 .text.MSPRX__thread_init
                0x08015e60        0x4 C:\Users\error414\AppData\Local\Temp\stm32-chibios.c1tKpx.ltrans3.ltrans.o
 *fill*         0x08015e64        0xc 
 .text.lv_label_get_text
                0x08015e70        0xc C:\Users\error414\AppData\Local\Temp\stm32-chibios.c1tKpx.ltrans3.ltrans.o
 *fill*         0x08015e7c        0x4 
 .text.lv_label_get_long_mode
                0x08015e80       0x10 C:\Users\error414\AppData\Local\Temp\stm32-chibios.c1tKpx.ltrans3.ltrans.o
 .text.lv_label_get_align
                0x08015e90       0x18 C:\Users\error414\AppData\Local\Temp\stm32-chibios.c1tKpx.ltrans3.ltrans.o
 *fill*         0x08015ea8        0x8 
 .text.lv_label_get_recolor
                0x08015eb0       0x10 C:\Users\error414\AppData\Local\Temp\stm32-chibios.c1tKpx.ltrans3.ltrans.o
 .text.lv_label_get_dot_tmp
                0x08015ec0       0x18 C:\Users\error414\AppData\Local\Temp\stm32-chibios.c1tKpx.ltrans3.ltrans.o
 *fill*         0x08015ed8        0x8 
 .text.lv_label_dot_tmp_free
                0x08015ee0       0x28 C:\Users\error414\AppData\Local\Temp\stm32-chibios.c1tKpx.ltrans3.ltrans.o
 *fill*         0x08015f08        0x8 
 .text.lv_label_revert_dots
                0x08015f10       0x5c C:\Users\error414\AppData\Local\Temp\stm32-chibios.c1tKpx.ltrans3.ltrans.o
 *fill*         0x08015f6c        0x4 
 .text.lv_line_get_auto_size
                0x08015f70       0x10 C:\Users\error414\AppData\Local\Temp\stm32-chibios.c1tKpx.ltrans3.ltrans.o
 .text.lv_line_get_y_invert
                0x08015f80       0x10 C:\Users\error414\AppData\Local\Temp\stm32-chibios.c1tKpx.ltrans3.ltrans.o
 .text.lv_img_signal.lto_priv.0
                0x08015f90      0x294 C:\Users\error414\AppData\Local\Temp\stm32-chibios.c1tKpx.ltrans3.ltrans.o
                0x08015f90                lv_img_signal.lto_priv.0
 *fill*         0x08016224        0xc 
 .text.lv_line_signal
                0x08016230       0x4c C:\Users\error414\AppData\Local\Temp\stm32-chibios.c1tKpx.ltrans3.ltrans.o
 *fill*         0x0801627c        0x4 
 .text.lv_label_set_dot_tmp
                0x08016280       0x58 C:\Users\error414\AppData\Local\Temp\stm32-chibios.c1tKpx.ltrans3.ltrans.o
 *fill*         0x080162d8        0x8 
 .text.lv_label_set_align
                0x080162e0       0x24 C:\Users\error414\AppData\Local\Temp\stm32-chibios.c1tKpx.ltrans3.ltrans.o
 *fill*         0x08016304        0xc 
 .text.lv_line_set_y_invert
                0x08016310       0x24 C:\Users\error414\AppData\Local\Temp\stm32-chibios.c1tKpx.ltrans3.ltrans.o
 *fill*         0x08016334        0xc 
 .text.lv_line_set_points
                0x08016340       0x74 C:\Users\error414\AppData\Local\Temp\stm32-chibios.c1tKpx.ltrans3.ltrans.o
 *fill*         0x080163b4        0xc 
 .text.lv_line_set_auto_size
                0x080163c0       0x2c C:\Users\error414\AppData\Local\Temp\stm32-chibios.c1tKpx.ltrans3.ltrans.o
 *fill*         0x080163ec        0x4 
 .text.lv_line_create
                0x080163f0       0xd4 C:\Users\error414\AppData\Local\Temp\stm32-chibios.c1tKpx.ltrans3.ltrans.o
 *fill*         0x080164c4        0xc 
 .text.get_txt_coords
                0x080164d0       0x58 C:\Users\error414\AppData\Local\Temp\stm32-chibios.c1tKpx.ltrans3.ltrans.o
 *fill*         0x08016528        0x8 
 .text.lv_label_design
                0x08016530      0x268 C:\Users\error414\AppData\Local\Temp\stm32-chibios.c1tKpx.ltrans3.ltrans.o
 *fill*         0x08016798        0x8 
 .text.lv_label_get_letter_on
                0x080167a0      0x234 C:\Users\error414\AppData\Local\Temp\stm32-chibios.c1tKpx.ltrans3.ltrans.o
 *fill*         0x080169d4        0xc 
 .text.lv_label_refr_text
                0x080169e0      0x264 C:\Users\error414\AppData\Local\Temp\stm32-chibios.c1tKpx.ltrans3.ltrans.o
 *fill*         0x08016c44        0xc 
 .text.lv_label_signal
                0x08016c50       0xd0 C:\Users\error414\AppData\Local\Temp\stm32-chibios.c1tKpx.ltrans3.ltrans.o
 .text.lv_label_set_text
                0x08016d20       0x78 C:\Users\error414\AppData\Local\Temp\stm32-chibios.c1tKpx.ltrans3.ltrans.o
 *fill*         0x08016d98        0x8 
 .text.guiFillMainHeader
                0x08016da0       0x18 C:\Users\error414\AppData\Local\Temp\stm32-chibios.c1tKpx.ltrans3.ltrans.o
 *fill*         0x08016db8        0x8 
 .text.guiFillForecast
                0x08016dc0       0x8c C:\Users\error414\AppData\Local\Temp\stm32-chibios.c1tKpx.ltrans3.ltrans.o
 *fill*         0x08016e4c        0x4 
 .text.lv_label_set_text_static
                0x08016e50       0x34 C:\Users\error414\AppData\Local\Temp\stm32-chibios.c1tKpx.ltrans3.ltrans.o
 *fill*         0x08016e84        0xc 
 .text.lv_label_set_long_mode
                0x08016e90       0x58 C:\Users\error414\AppData\Local\Temp\stm32-chibios.c1tKpx.ltrans3.ltrans.o
 *fill*         0x08016ee8        0x8 
 .text.lv_label_set_recolor
                0x08016ef0       0x24 C:\Users\error414\AppData\Local\Temp\stm32-chibios.c1tKpx.ltrans3.ltrans.o
 *fill*         0x08016f14        0xc 
 .text.lv_label_create
                0x08016f20      0x198 C:\Users\error414\AppData\Local\Temp\stm32-chibios.c1tKpx.ltrans3.ltrans.o
 *fill*         0x080170b8        0x8 
 .text.lv_line_design
                0x080170c0       0xf8 C:\Users\error414\AppData\Local\Temp\stm32-chibios.c1tKpx.ltrans3.ltrans.o
 *fill*         0x080171b8        0x8 
 .text.EPD_7IN5_HD_Reset
                0x080171c0       0x5c C:\Users\error414\AppData\Local\Temp\stm32-chibios.c1tKpx.ltrans3.ltrans.o
 *fill*         0x0801721c        0x4 
 .text.EPD_7IN5_HD_WaitUntilIdle
                0x08017220       0x30 C:\Users\error414\AppData\Local\Temp\stm32-chibios.c1tKpx.ltrans3.ltrans.o
 .text.HC12__thread_progMode
                0x08017250       0x28 C:\Users\error414\AppData\Local\Temp\stm32-chibios.c1tKpx.ltrans3.ltrans.o
 *fill*         0x08017278        0x8 
 .text.HC12__thread_normalMode
                0x08017280       0x28 C:\Users\error414\AppData\Local\Temp\stm32-chibios.c1tKpx.ltrans3.ltrans.o
 *fill*         0x080172a8        0x8 
 .text.uart_init
                0x080172b0       0x34 C:\Users\error414\AppData\Local\Temp\stm32-chibios.c1tKpx.ltrans3.ltrans.o
 *fill*         0x080172e4        0xc 
 .text.spi1_init
                0x080172f0       0x74 C:\Users\error414\AppData\Local\Temp\stm32-chibios.c1tKpx.ltrans3.ltrans.o
 *fill*         0x08017364        0xc 
 .text.guiInitMainHeader
                0x08017370       0xd8 C:\Users\error414\AppData\Local\Temp\stm32-chibios.c1tKpx.ltrans3.ltrans.o
 *fill*         0x08017448        0x8 
 .text.lv_scr_act.lto_priv.1
                0x08017450        0xc C:\Users\error414\AppData\Local\Temp\stm32-chibios.c1tKpx.ltrans3.ltrans.o
 *fill*         0x0801745c        0x4 
 .text.guiCreateBackground
                0x08017460       0xb4 C:\Users\error414\AppData\Local\Temp\stm32-chibios.c1tKpx.ltrans3.ltrans.o
 *fill*         0x08017514        0xc 
 .text.lv_scr_act.lto_priv.2
                0x08017520        0xc C:\Users\error414\AppData\Local\Temp\stm32-chibios.c1tKpx.ltrans3.ltrans.o
 *fill*         0x0801752c        0x4 
 .text.Gui__LVGLmonitorCb
                0x08017530       0x24 C:\Users\error414\AppData\Local\Temp\stm32-chibios.c1tKpx.ltrans3.ltrans.o
 *fill*         0x08017554        0xc 
 .text.guiInitForecast
                0x08017560       0xe8 C:\Users\error414\AppData\Local\Temp\stm32-chibios.c1tKpx.ltrans3.ltrans.o
 *fill*         0x08017648        0x8 
 .text.guiInit  0x08017650      0x21c C:\Users\error414\AppData\Local\Temp\stm32-chibios.c1tKpx.ltrans3.ltrans.o
 *fill*         0x0801786c        0x4 
 .text.guiInitOutside
                0x08017870      0x520 C:\Users\error414\AppData\Local\Temp\stm32-chibios.c1tKpx.ltrans3.ltrans.o
 .text.guiFillOutsideAll
                0x08017d90       0xb0 C:\Users\error414\AppData\Local\Temp\stm32-chibios.c1tKpx.ltrans3.ltrans.o
 .text.EPD_7IN5_HD_SendCommand
                0x08017e40       0x64 C:\Users\error414\AppData\Local\Temp\stm32-chibios.c1tKpx.ltrans3.ltrans.o
 *fill*         0x08017ea4        0xc 
 .text.EPD_7IN5_HD_SendDataByte
                0x08017eb0       0x64 C:\Users\error414\AppData\Local\Temp\stm32-chibios.c1tKpx.ltrans3.ltrans.o
 *fill*         0x08017f14        0xc 
 .text.EPD_7IN5_HD_Init
                0x08017f20      0x114 C:\Users\error414\AppData\Local\Temp\stm32-chibios.c1tKpx.ltrans3.ltrans.o
 *fill*         0x08018034        0xc 
 .text.EPD_7IN5_HD_WriteToScreen
                0x08018040       0x18 C:\Users\error414\AppData\Local\Temp\stm32-chibios.c1tKpx.ltrans3.ltrans.o
 *fill*         0x08018058        0x8 
 .text.EPD_7IN5_HD_StartWriteToScreen
                0x08018060       0x30 C:\Users\error414\AppData\Local\Temp\stm32-chibios.c1tKpx.ltrans3.ltrans.o
 .text.EPD_7IN5_HD_EndWriteToScreen
                0x08018090       0x20 C:\Users\error414\AppData\Local\Temp\stm32-chibios.c1tKpx.ltrans3.ltrans.o
 .text.EPD_7IN5_HD_Sleep
                0x080180b0       0x10 C:\Users\error414\AppData\Local\Temp\stm32-chibios.c1tKpx.ltrans3.ltrans.o
 .text.guiThread
                0x080180c0       0xe4 C:\Users\error414\AppData\Local\Temp\stm32-chibios.c1tKpx.ltrans3.ltrans.o
 *fill*         0x080181a4        0xc 
 .text.Gui__LVGLdispFlushCb
                0x080181b0       0x9c C:\Users\error414\AppData\Local\Temp\stm32-chibios.c1tKpx.ltrans3.ltrans.o
 *fill*         0x0801824c        0x4 
 .text.Gui__thread_start
                0x08018250       0x24 C:\Users\error414\AppData\Local\Temp\stm32-chibios.c1tKpx.ltrans3.ltrans.o
 *fill*         0x08018274        0xc 
 .text.HC12__thread_start
                0x08018280       0x24 C:\Users\error414\AppData\Local\Temp\stm32-chibios.c1tKpx.ltrans3.ltrans.o
 *fill*         0x080182a4        0xc 
 .text.MSPRX__thread_start
                0x080182b0       0x24 C:\Users\error414\AppData\Local\Temp\stm32-chibios.c1tKpx.ltrans3.ltrans.o
 *fill*         0x080182d4        0xc 
 .text.mspParserThread
                0x080182e0       0x4c C:\Users\error414\AppData\Local\Temp\stm32-chibios.c1tKpx.ltrans3.ltrans.o
 *fill*         0x0801832c        0x4 
 .text.HC12__thread_init
                0x08018330       0x38 C:\Users\error414\AppData\Local\Temp\stm32-chibios.c1tKpx.ltrans3.ltrans.o
 *fill*         0x08018368        0x8 
 .text.shared_pools_init
                0x08018370       0x28 C:\Users\error414\AppData\Local\Temp\stm32-chibios.c1tKpx.ltrans3.ltrans.o
 *fill*         0x08018398        0x8 
 .text.main     0x080183a0       0x70 C:\Users\error414\AppData\Local\Temp\stm32-chibios.c1tKpx.ltrans3.ltrans.o
                0x080183a0                main
 .text.__early_init
                0x08018410        0xc C:\Users\error414\AppData\Local\Temp\stm32-chibios.c1tKpx.ltrans3.ltrans.o
                0x08018410                __early_init
 *fill*         0x0801841c        0x4 
 .text.boardInit
                0x08018420        0x4 C:\Users\error414\AppData\Local\Temp\stm32-chibios.c1tKpx.ltrans3.ltrans.o
                0x08018420                boardInit
 *fill*         0x08018424        0xc 
 .text.HC12__thread_wakeUp
                0x08018430       0x80 C:\Users\error414\AppData\Local\Temp\stm32-chibios.c1tKpx.ltrans3.ltrans.o
 .text.hc12StreamThread
                0x080184b0      0x10c C:\Users\error414\AppData\Local\Temp\stm32-chibios.c1tKpx.ltrans3.ltrans.o
 .text.memcmp   0x080185bc       0x68 c:/users/error414/documents/stm32-tools/gcc-arm-none-eabi-10-2020-q4-major/bin/../lib/gcc/arm-none-eabi/10.2.1/../../../../arm-none-eabi/lib/thumb/v7e-m/nofp\libg.a(lib_a-memcmp.o)
                0x080185bc                memcmp
 .text.strcpy   0x08018624       0xbc c:/users/error414/documents/stm32-tools/gcc-arm-none-eabi-10-2020-q4-major/bin/../lib/gcc/arm-none-eabi/10.2.1/../../../../arm-none-eabi/lib/thumb/v7e-m/nofp\libg.a(lib_a-strcpy.o)
                0x08018624                strcpy
 .text.strncpy  0x080186e0       0x64 c:/users/error414/documents/stm32-tools/gcc-arm-none-eabi-10-2020-q4-major/bin/../lib/gcc/arm-none-eabi/10.2.1/../../../../arm-none-eabi/lib/thumb/v7e-m/nofp\libg.a(lib_a-strncpy.o)
                0x080186e0                strncpy
 *(.glue_7t)
 .glue_7t       0x08018744        0x0 linker stubs
 *(.glue_7)
 .glue_7        0x08018744        0x0 linker stubs
 *(.gcc*)
                0x08018744                __text_end__ = .

.vfp11_veneer   0x08018744        0x0
 .vfp11_veneer  0x08018744        0x0 linker stubs

.v4_bx          0x08018744        0x0
 .v4_bx         0x08018744        0x0 linker stubs

.iplt           0x08018744        0x0
 .iplt          0x08018744        0x0 CMakeFiles/stm32-chibios.dir/C_/Users/error414/Documents/STM32/meteo-F4/ChibiOS/os/common/startup/ARMCMx/compilers/GCC/crt0_v7m.S.obj

.rodata         0x08018744    0x18120
                0x08018744                __rodata_base__ = .
 *(.rodata)
 .rodata        0x08018744       0x10 C:\Users\error414\AppData\Local\Temp\stm32-chibios.c1tKpx.ltrans1.ltrans.o
 .rodata        0x08018754       0x20 C:\Users\error414\AppData\Local\Temp\stm32-chibios.c1tKpx.ltrans3.ltrans.o
 *(.rodata.*)
 .rodata.spi_lld_serve_tx_interrupt.str1.4
                0x08018774        0xc C:\Users\error414\AppData\Local\Temp\stm32-chibios.c1tKpx.ltrans0.ltrans.o
 .rodata.__dbg_check_lock_from_isr.str1.4
                0x08018780        0x5 C:\Users\error414\AppData\Local\Temp\stm32-chibios.c1tKpx.ltrans0.ltrans.o
 *fill*         0x08018785        0x3 
 .rodata.__dbg_check_unlock_from_isr.str1.4
                0x08018788        0x5 C:\Users\error414\AppData\Local\Temp\stm32-chibios.c1tKpx.ltrans0.ltrans.o
 *fill*         0x0801878d        0x3 
 .rodata.__dbg_check_enter_isr.str1.4
                0x08018790        0x5 C:\Users\error414\AppData\Local\Temp\stm32-chibios.c1tKpx.ltrans0.ltrans.o
 *fill*         0x08018795        0x3 
 .rodata.__dbg_check_leave_isr.str1.4
                0x08018798        0x5 C:\Users\error414\AppData\Local\Temp\stm32-chibios.c1tKpx.ltrans0.ltrans.o
 *fill*         0x0801879d        0x3 
 .rodata.chDbgCheckClassS.str1.4
                0x080187a0        0x6 C:\Users\error414\AppData\Local\Temp\stm32-chibios.c1tKpx.ltrans0.ltrans.o
 *fill*         0x080187a6        0x2 
 .rodata.__sch_reschedule_ahead.str1.4
                0x080187a8        0xf C:\Users\error414\AppData\Local\Temp\stm32-chibios.c1tKpx.ltrans0.ltrans.o
 *fill*         0x080187b7        0x1 
 .rodata.__dbg_check_lock.str1.4
                0x080187b8        0x5 C:\Users\error414\AppData\Local\Temp\stm32-chibios.c1tKpx.ltrans0.ltrans.o
 *fill*         0x080187bd        0x3 
 .rodata.__dbg_check_unlock.str1.4
                0x080187c0        0x5 C:\Users\error414\AppData\Local\Temp\stm32-chibios.c1tKpx.ltrans0.ltrans.o
 *fill*         0x080187c5        0x3 
 .rodata.chDbgCheckClassI.str1.4
                0x080187c8        0x6 C:\Users\error414\AppData\Local\Temp\stm32-chibios.c1tKpx.ltrans0.ltrans.o
 *fill*         0x080187ce        0x2 
 .rodata.chInstanceObjectInit.str1.4
                0x080187d0        0x5 C:\Users\error414\AppData\Local\Temp\stm32-chibios.c1tKpx.ltrans0.ltrans.o
 *fill*         0x080187d5        0x3 
 .rodata.chThdCreateStatic.str1.4
                0x080187d8        0x7 C:\Users\error414\AppData\Local\Temp\stm32-chibios.c1tKpx.ltrans0.ltrans.o
 *fill*         0x080187df        0x1 
 .rodata.lv_obj_signal.str1.4
                0x080187e0        0x7 C:\Users\error414\AppData\Local\Temp\stm32-chibios.c1tKpx.ltrans0.ltrans.o
 *fill*         0x080187e7        0x1 
 .rodata.str1.4
                0x080187e8        0x3 C:\Users\error414\AppData\Local\Temp\stm32-chibios.c1tKpx.ltrans0.ltrans.o
 *fill*         0x080187eb        0x1 
 .rodata.__func__.0.lto_priv.0
                0x080187ec        0xf C:\Users\error414\AppData\Local\Temp\stm32-chibios.c1tKpx.ltrans0.ltrans.o
 *fill*         0x080187fb        0x1 
 .rodata.__func__.0.lto_priv.1
                0x080187fc        0xe C:\Users\error414\AppData\Local\Temp\stm32-chibios.c1tKpx.ltrans0.ltrans.o
 *fill*         0x0801880a        0x2 
 .rodata.__func__.0.lto_priv.2
                0x0801880c        0xb C:\Users\error414\AppData\Local\Temp\stm32-chibios.c1tKpx.ltrans0.ltrans.o
 *fill*         0x08018817        0x1 
 .rodata.__func__.0.lto_priv.3
                0x08018818        0xc C:\Users\error414\AppData\Local\Temp\stm32-chibios.c1tKpx.ltrans0.ltrans.o
 .rodata.__func__.0.lto_priv.4
                0x08018824       0x12 C:\Users\error414\AppData\Local\Temp\stm32-chibios.c1tKpx.ltrans0.ltrans.o
 *fill*         0x08018836        0x2 
 .rodata.__func__.0.lto_priv.5
                0x08018838       0x15 C:\Users\error414\AppData\Local\Temp\stm32-chibios.c1tKpx.ltrans0.ltrans.o
 *fill*         0x0801884d        0x3 
 .rodata.__func__.0.lto_priv.6
                0x08018850       0x14 C:\Users\error414\AppData\Local\Temp\stm32-chibios.c1tKpx.ltrans0.ltrans.o
 .rodata.__func__.0.lto_priv.7
                0x08018864       0x10 C:\Users\error414\AppData\Local\Temp\stm32-chibios.c1tKpx.ltrans0.ltrans.o
 .rodata.__func__.0.lto_priv.8
                0x08018874        0xc C:\Users\error414\AppData\Local\Temp\stm32-chibios.c1tKpx.ltrans0.ltrans.o
 .rodata.__func__.0.lto_priv.9
                0x08018880        0xb C:\Users\error414\AppData\Local\Temp\stm32-chibios.c1tKpx.ltrans0.ltrans.o
 *fill*         0x0801888b        0x1 
 .rodata.__func__.1.lto_priv.0
                0x0801888c        0xb C:\Users\error414\AppData\Local\Temp\stm32-chibios.c1tKpx.ltrans0.ltrans.o
 *fill*         0x08018897        0x1 
 .rodata.__func__.1.lto_priv.1
                0x08018898        0x9 C:\Users\error414\AppData\Local\Temp\stm32-chibios.c1tKpx.ltrans0.ltrans.o
 *fill*         0x080188a1        0x3 
 .rodata.__func__.1.lto_priv.10
                0x080188a4       0x12 C:\Users\error414\AppData\Local\Temp\stm32-chibios.c1tKpx.ltrans0.ltrans.o
 *fill*         0x080188b6        0x2 
 .rodata.__func__.1.lto_priv.11
                0x080188b8       0x14 C:\Users\error414\AppData\Local\Temp\stm32-chibios.c1tKpx.ltrans0.ltrans.o
 .rodata.__func__.1.lto_priv.12
                0x080188cc        0xc C:\Users\error414\AppData\Local\Temp\stm32-chibios.c1tKpx.ltrans0.ltrans.o
 .rodata.__func__.1.lto_priv.2
                0x080188d8       0x10 C:\Users\error414\AppData\Local\Temp\stm32-chibios.c1tKpx.ltrans0.ltrans.o
 .rodata.__func__.1.lto_priv.3
                0x080188e8        0xe C:\Users\error414\AppData\Local\Temp\stm32-chibios.c1tKpx.ltrans0.ltrans.o
 *fill*         0x080188f6        0x2 
 .rodata.__func__.1.lto_priv.4
                0x080188f8        0xd C:\Users\error414\AppData\Local\Temp\stm32-chibios.c1tKpx.ltrans0.ltrans.o
 *fill*         0x08018905        0x3 
 .rodata.__func__.1.lto_priv.5
                0x08018908        0xc C:\Users\error414\AppData\Local\Temp\stm32-chibios.c1tKpx.ltrans0.ltrans.o
 .rodata.__func__.1.lto_priv.6
                0x08018914        0xd C:\Users\error414\AppData\Local\Temp\stm32-chibios.c1tKpx.ltrans0.ltrans.o
 *fill*         0x08018921        0x3 
 .rodata.__func__.1.lto_priv.7
                0x08018924        0xc C:\Users\error414\AppData\Local\Temp\stm32-chibios.c1tKpx.ltrans0.ltrans.o
 .rodata.__func__.1.lto_priv.8
                0x08018930        0xc C:\Users\error414\AppData\Local\Temp\stm32-chibios.c1tKpx.ltrans0.ltrans.o
 .rodata.__func__.1.lto_priv.9
                0x0801893c        0xd C:\Users\error414\AppData\Local\Temp\stm32-chibios.c1tKpx.ltrans0.ltrans.o
 *fill*         0x08018949        0x3 
 .rodata.__func__.12
                0x0801894c       0x12 C:\Users\error414\AppData\Local\Temp\stm32-chibios.c1tKpx.ltrans0.ltrans.o
 *fill*         0x0801895e        0x2 
 .rodata.__func__.14
                0x08018960        0xc C:\Users\error414\AppData\Local\Temp\stm32-chibios.c1tKpx.ltrans0.ltrans.o
 .rodata.__func__.15
                0x0801896c        0xc C:\Users\error414\AppData\Local\Temp\stm32-chibios.c1tKpx.ltrans0.ltrans.o
 .rodata.__func__.16.lto_priv.0
                0x08018978        0x9 C:\Users\error414\AppData\Local\Temp\stm32-chibios.c1tKpx.ltrans0.ltrans.o
 *fill*         0x08018981        0x3 
 .rodata.__func__.16.lto_priv.1
                0x08018984       0x16 C:\Users\error414\AppData\Local\Temp\stm32-chibios.c1tKpx.ltrans0.ltrans.o
 *fill*         0x0801899a        0x2 
 .rodata.__func__.2.lto_priv.0
                0x0801899c        0xd C:\Users\error414\AppData\Local\Temp\stm32-chibios.c1tKpx.ltrans0.ltrans.o
 *fill*         0x080189a9        0x3 
 .rodata.__func__.2.lto_priv.1
                0x080189ac        0xe C:\Users\error414\AppData\Local\Temp\stm32-chibios.c1tKpx.ltrans0.ltrans.o
 *fill*         0x080189ba        0x2 
 .rodata.__func__.2.lto_priv.2
                0x080189bc       0x10 C:\Users\error414\AppData\Local\Temp\stm32-chibios.c1tKpx.ltrans0.ltrans.o
 .rodata.__func__.2.lto_priv.3
                0x080189cc        0xd C:\Users\error414\AppData\Local\Temp\stm32-chibios.c1tKpx.ltrans0.ltrans.o
 *fill*         0x080189d9        0x3 
 .rodata.__func__.2.lto_priv.4
                0x080189dc        0xe C:\Users\error414\AppData\Local\Temp\stm32-chibios.c1tKpx.ltrans0.ltrans.o
 *fill*         0x080189ea        0x2 
 .rodata.__func__.2.lto_priv.5
                0x080189ec        0xd C:\Users\error414\AppData\Local\Temp\stm32-chibios.c1tKpx.ltrans0.ltrans.o
 *fill*         0x080189f9        0x3 
 .rodata.__func__.2.lto_priv.6
                0x080189fc        0xd C:\Users\error414\AppData\Local\Temp\stm32-chibios.c1tKpx.ltrans0.ltrans.o
 *fill*         0x08018a09        0x3 
 .rodata.__func__.2.lto_priv.7
                0x08018a0c        0xc C:\Users\error414\AppData\Local\Temp\stm32-chibios.c1tKpx.ltrans0.ltrans.o
 .rodata.__func__.3.lto_priv.0
                0x08018a18        0x8 C:\Users\error414\AppData\Local\Temp\stm32-chibios.c1tKpx.ltrans0.ltrans.o
 .rodata.__func__.3.lto_priv.1
                0x08018a20        0xc C:\Users\error414\AppData\Local\Temp\stm32-chibios.c1tKpx.ltrans0.ltrans.o
 .rodata.__func__.3.lto_priv.2
                0x08018a2c        0x8 C:\Users\error414\AppData\Local\Temp\stm32-chibios.c1tKpx.ltrans0.ltrans.o
 .rodata.__func__.3.lto_priv.3
                0x08018a34        0xb C:\Users\error414\AppData\Local\Temp\stm32-chibios.c1tKpx.ltrans0.ltrans.o
 *fill*         0x08018a3f        0x1 
 .rodata.__func__.3.lto_priv.4
                0x08018a40       0x13 C:\Users\error414\AppData\Local\Temp\stm32-chibios.c1tKpx.ltrans0.ltrans.o
 *fill*         0x08018a53        0x1 
 .rodata.__func__.3.lto_priv.5
                0x08018a54       0x15 C:\Users\error414\AppData\Local\Temp\stm32-chibios.c1tKpx.ltrans0.ltrans.o
 *fill*         0x08018a69        0x3 
 .rodata.__func__.3.lto_priv.6
                0x08018a6c        0xb C:\Users\error414\AppData\Local\Temp\stm32-chibios.c1tKpx.ltrans0.ltrans.o
 *fill*         0x08018a77        0x1 
 .rodata.__func__.3.lto_priv.7
                0x08018a78       0x15 C:\Users\error414\AppData\Local\Temp\stm32-chibios.c1tKpx.ltrans0.ltrans.o
 *fill*         0x08018a8d        0x3 
 .rodata.__func__.3.lto_priv.8
                0x08018a90        0xd C:\Users\error414\AppData\Local\Temp\stm32-chibios.c1tKpx.ltrans0.ltrans.o
 *fill*         0x08018a9d        0x3 
 .rodata.__func__.4.lto_priv.0
                0x08018aa0        0xc C:\Users\error414\AppData\Local\Temp\stm32-chibios.c1tKpx.ltrans0.ltrans.o
 .rodata.__func__.4.lto_priv.1
                0x08018aac        0x8 C:\Users\error414\AppData\Local\Temp\stm32-chibios.c1tKpx.ltrans0.ltrans.o
 .rodata.__func__.4.lto_priv.2
                0x08018ab4        0xe C:\Users\error414\AppData\Local\Temp\stm32-chibios.c1tKpx.ltrans0.ltrans.o
 *fill*         0x08018ac2        0x2 
 .rodata.__func__.4.lto_priv.3
                0x08018ac4        0xc C:\Users\error414\AppData\Local\Temp\stm32-chibios.c1tKpx.ltrans0.ltrans.o
 .rodata.__func__.4.lto_priv.4
                0x08018ad0       0x12 C:\Users\error414\AppData\Local\Temp\stm32-chibios.c1tKpx.ltrans0.ltrans.o
 *fill*         0x08018ae2        0x2 
 .rodata.__func__.4.lto_priv.5
                0x08018ae4        0xc C:\Users\error414\AppData\Local\Temp\stm32-chibios.c1tKpx.ltrans0.ltrans.o
 .rodata.__func__.4.lto_priv.6
                0x08018af0       0x10 C:\Users\error414\AppData\Local\Temp\stm32-chibios.c1tKpx.ltrans0.ltrans.o
 .rodata.__func__.5.lto_priv.0
                0x08018b00        0x5 C:\Users\error414\AppData\Local\Temp\stm32-chibios.c1tKpx.ltrans0.ltrans.o
 *fill*         0x08018b05        0x3 
 .rodata.__func__.5.lto_priv.1
                0x08018b08        0xc C:\Users\error414\AppData\Local\Temp\stm32-chibios.c1tKpx.ltrans0.ltrans.o
 .rodata.__func__.5.lto_priv.2
                0x08018b14       0x10 C:\Users\error414\AppData\Local\Temp\stm32-chibios.c1tKpx.ltrans0.ltrans.o
 .rodata.__func__.5.lto_priv.3
                0x08018b24       0x11 C:\Users\error414\AppData\Local\Temp\stm32-chibios.c1tKpx.ltrans0.ltrans.o
 *fill*         0x08018b35        0x3 
 .rodata.__func__.5.lto_priv.4
                0x08018b38       0x18 C:\Users\error414\AppData\Local\Temp\stm32-chibios.c1tKpx.ltrans0.ltrans.o
 .rodata.__func__.7.lto_priv.0
                0x08018b50        0xc C:\Users\error414\AppData\Local\Temp\stm32-chibios.c1tKpx.ltrans0.ltrans.o
 .rodata.__func__.7.lto_priv.1
                0x08018b5c        0xc C:\Users\error414\AppData\Local\Temp\stm32-chibios.c1tKpx.ltrans0.ltrans.o
 .rodata.__func__.8.lto_priv.0
                0x08018b68        0xb C:\Users\error414\AppData\Local\Temp\stm32-chibios.c1tKpx.ltrans0.ltrans.o
 *fill*         0x08018b73        0x1 
 .rodata.__func__.8.lto_priv.1
                0x08018b74       0x10 C:\Users\error414\AppData\Local\Temp\stm32-chibios.c1tKpx.ltrans0.ltrans.o
 .rodata.__func__.9
                0x08018b84        0xd C:\Users\error414\AppData\Local\Temp\stm32-chibios.c1tKpx.ltrans0.ltrans.o
 *fill*         0x08018b91        0x3 
 .rodata._stm32_dma_streams
                0x08018b94       0xc0 C:\Users\error414\AppData\Local\Temp\stm32-chibios.c1tKpx.ltrans0.ltrans.o
 .rodata.ch_core0_cfg
                0x08018c54       0x14 C:\Users\error414\AppData\Local\Temp\stm32-chibios.c1tKpx.ltrans0.ltrans.o
 .rodata.ch_debug
                0x08018c68       0x16 C:\Users\error414\AppData\Local\Temp\stm32-chibios.c1tKpx.ltrans0.ltrans.o
 *fill*         0x08018c7e        0x2 
 .rodata.cmaps  0x08018c80       0x28 C:\Users\error414\AppData\Local\Temp\stm32-chibios.c1tKpx.ltrans0.ltrans.o
 .rodata.default_config
                0x08018ca8        0xc C:\Users\error414\AppData\Local\Temp\stm32-chibios.c1tKpx.ltrans0.ltrans.o
 .rodata.glyph_dsc
                0x08018cb4      0x4d8 C:\Users\error414\AppData\Local\Temp\stm32-chibios.c1tKpx.ltrans0.ltrans.o
 .rodata.gylph_bitmap
                0x0801918c     0x219a C:\Users\error414\AppData\Local\Temp\stm32-chibios.c1tKpx.ltrans0.ltrans.o
 *fill*         0x0801b326        0x2 
 .rodata.kern_class_values
                0x0801b328      0xbad C:\Users\error414\AppData\Local\Temp\stm32-chibios.c1tKpx.ltrans0.ltrans.o
 *fill*         0x0801bed5        0x3 
 .rodata.kern_classes
                0x0801bed8       0x10 C:\Users\error414\AppData\Local\Temp\stm32-chibios.c1tKpx.ltrans0.ltrans.o
 .rodata.kern_left_class_mapping
                0x0801bee8       0x9b C:\Users\error414\AppData\Local\Temp\stm32-chibios.c1tKpx.ltrans0.ltrans.o
 *fill*         0x0801bf83        0x1 
 .rodata.kern_right_class_mapping
                0x0801bf84       0x9b C:\Users\error414\AppData\Local\Temp\stm32-chibios.c1tKpx.ltrans0.ltrans.o
 *fill*         0x0801c01f        0x1 
 .rodata.ram_areas
                0x0801c020       0x80 C:\Users\error414\AppData\Local\Temp\stm32-chibios.c1tKpx.ltrans0.ltrans.o
 .rodata.unicode_list_1
                0x0801c0a0       0x76 C:\Users\error414\AppData\Local\Temp\stm32-chibios.c1tKpx.ltrans0.ltrans.o
 *fill*         0x0801c116        0x2 
 .rodata.vmt    0x0801c118       0x28 C:\Users\error414\AppData\Local\Temp\stm32-chibios.c1tKpx.ltrans0.ltrans.o
 .rodata.lv_draw_img.str1.4
                0x0801c140        0x8 C:\Users\error414\AppData\Local\Temp\stm32-chibios.c1tKpx.ltrans1.ltrans.o
 .rodata._lv_bpp1_opa_table
                0x0801c148        0x2 C:\Users\error414\AppData\Local\Temp\stm32-chibios.c1tKpx.ltrans1.ltrans.o
 *fill*         0x0801c14a        0x2 
 .rodata._lv_bpp2_opa_table
                0x0801c14c        0x4 C:\Users\error414\AppData\Local\Temp\stm32-chibios.c1tKpx.ltrans1.ltrans.o
 .rodata._lv_bpp4_opa_table
                0x0801c150       0x10 C:\Users\error414\AppData\Local\Temp\stm32-chibios.c1tKpx.ltrans1.ltrans.o
 .rodata._lv_bpp8_opa_table
                0x0801c160      0x100 C:\Users\error414\AppData\Local\Temp\stm32-chibios.c1tKpx.ltrans1.ltrans.o
 .rodata._lv_txt_encoded_get_char_id
                0x0801c260        0x4 C:\Users\error414\AppData\Local\Temp\stm32-chibios.c1tKpx.ltrans1.ltrans.o
                0x0801c260                _lv_txt_encoded_get_char_id
 .rodata._lv_txt_encoded_next
                0x0801c264        0x4 C:\Users\error414\AppData\Local\Temp\stm32-chibios.c1tKpx.ltrans1.ltrans.o
                0x0801c264                _lv_txt_encoded_next
 .rodata.wcorr.0
                0x0801c268       0x21 C:\Users\error414\AppData\Local\Temp\stm32-chibios.c1tKpx.ltrans1.ltrans.o
 *fill*         0x0801c289        0x3 
 .rodata.calendar_init.str1.4
                0x0801c28c        0x4 C:\Users\error414\AppData\Local\Temp\stm32-chibios.c1tKpx.ltrans2.ltrans.o
 .rodata.lv_cont_signal.str1.4
                0x0801c290        0x8 C:\Users\error414\AppData\Local\Temp\stm32-chibios.c1tKpx.ltrans2.ltrans.o
 .rodata.lv_chart_signal.str1.4
                0x0801c298        0x9 C:\Users\error414\AppData\Local\Temp\stm32-chibios.c1tKpx.ltrans2.ltrans.o
 *fill*         0x0801c2a1        0x3 
 .rodata.lv_txt_get_next_word.str1.4
                0x0801c2a4        0x8 C:\Users\error414\AppData\Local\Temp\stm32-chibios.c1tKpx.ltrans2.ltrans.o
 .rodata._lv_txt_encoded_size
                0x0801c2ac        0x4 C:\Users\error414\AppData\Local\Temp\stm32-chibios.c1tKpx.ltrans2.ltrans.o
                0x0801c2ac                _lv_txt_encoded_size
 .rodata.sin0_90_table
                0x0801c2b0       0xb6 C:\Users\error414\AppData\Local\Temp\stm32-chibios.c1tKpx.ltrans2.ltrans.o
 *fill*         0x0801c366        0x2 
 .rodata.lv_img_signal.lto_priv.0.str1.4
                0x0801c368        0x7 C:\Users\error414\AppData\Local\Temp\stm32-chibios.c1tKpx.ltrans3.ltrans.o
 *fill*         0x0801c36f        0x1 
 .rodata.lv_line_signal.str1.4
                0x0801c370        0x8 C:\Users\error414\AppData\Local\Temp\stm32-chibios.c1tKpx.ltrans3.ltrans.o
 .rodata.lv_label_signal.str1.4
                0x0801c378        0x9 C:\Users\error414\AppData\Local\Temp\stm32-chibios.c1tKpx.ltrans3.ltrans.o
 *fill*         0x0801c381        0x3 
 .rodata.guiFillMainHeader.str1.4
                0x0801c384        0x6 C:\Users\error414\AppData\Local\Temp\stm32-chibios.c1tKpx.ltrans3.ltrans.o
 *fill*         0x0801c38a        0x2 
 .rodata.guiFillForecast.str1.4
                0x0801c38c        0xf C:\Users\error414\AppData\Local\Temp\stm32-chibios.c1tKpx.ltrans3.ltrans.o
 *fill*         0x0801c39b        0x1 
 .rodata.lv_label_create.str1.4
                0x0801c39c        0x5 C:\Users\error414\AppData\Local\Temp\stm32-chibios.c1tKpx.ltrans3.ltrans.o
 *fill*         0x0801c3a1        0x3 
 .rodata.guiInitOutside.str1.4
                0x0801c3a4       0x16 C:\Users\error414\AppData\Local\Temp\stm32-chibios.c1tKpx.ltrans3.ltrans.o
 *fill*         0x0801c3ba        0x2 
 .rodata.guiFillOutsideAll.str1.4
                0x0801c3bc       0x22 C:\Users\error414\AppData\Local\Temp\stm32-chibios.c1tKpx.ltrans3.ltrans.o
 *fill*         0x0801c3de        0x2 
 .rodata.guiThread.str1.4
                0x0801c3e0       0x2b C:\Users\error414\AppData\Local\Temp\stm32-chibios.c1tKpx.ltrans3.ltrans.o
 *fill*         0x0801c40b        0x1 
 .rodata.mspParserThread.str1.4
                0x0801c40c        0xa C:\Users\error414\AppData\Local\Temp\stm32-chibios.c1tKpx.ltrans3.ltrans.o
 *fill*         0x0801c416        0x2 
 .rodata.hc12StreamThread.str1.4
                0x0801c418        0xb C:\Users\error414\AppData\Local\Temp\stm32-chibios.c1tKpx.ltrans3.ltrans.o
 *fill*         0x0801c423        0x1 
 .rodata.str1.4
                0x0801c424       0x37 C:\Users\error414\AppData\Local\Temp\stm32-chibios.c1tKpx.ltrans3.ltrans.o
 *fill*         0x0801c45b        0x1 
 .rodata.__func__.0
                0x0801c45c        0xc C:\Users\error414\AppData\Local\Temp\stm32-chibios.c1tKpx.ltrans3.ltrans.o
 .rodata.cmaps.lto_priv.0
                0x0801c468       0x28 C:\Users\error414\AppData\Local\Temp\stm32-chibios.c1tKpx.ltrans3.ltrans.o
 .rodata.cmaps.lto_priv.1
                0x0801c490       0x28 C:\Users\error414\AppData\Local\Temp\stm32-chibios.c1tKpx.ltrans3.ltrans.o
 .rodata.cmaps.lto_priv.2
                0x0801c4b8       0x28 C:\Users\error414\AppData\Local\Temp\stm32-chibios.c1tKpx.ltrans3.ltrans.o
 .rodata.cmaps.lto_priv.3
                0x0801c4e0       0x64 C:\Users\error414\AppData\Local\Temp\stm32-chibios.c1tKpx.ltrans3.ltrans.o
 .rodata.cmaps.lto_priv.4
                0x0801c544       0x64 C:\Users\error414\AppData\Local\Temp\stm32-chibios.c1tKpx.ltrans3.ltrans.o
 .rodata.cmaps.lto_priv.5
                0x0801c5a8       0x14 C:\Users\error414\AppData\Local\Temp\stm32-chibios.c1tKpx.ltrans3.ltrans.o
 .rodata.cmaps.lto_priv.6
                0x0801c5bc       0x50 C:\Users\error414\AppData\Local\Temp\stm32-chibios.c1tKpx.ltrans3.ltrans.o
 .rodata.cmaps.lto_priv.7
                0x0801c60c       0x50 C:\Users\error414\AppData\Local\Temp\stm32-chibios.c1tKpx.ltrans3.ltrans.o
 .rodata.cmaps.lto_priv.8
                0x0801c65c       0x50 C:\Users\error414\AppData\Local\Temp\stm32-chibios.c1tKpx.ltrans3.ltrans.o
 .rodata.dayNameList
                0x0801c6ac       0x1c C:\Users\error414\AppData\Local\Temp\stm32-chibios.c1tKpx.ltrans3.ltrans.o
 .rodata.fc_cloud
                0x0801c6c8        0xc C:\Users\error414\AppData\Local\Temp\stm32-chibios.c1tKpx.ltrans3.ltrans.o
 .rodata.fc_cloud_map
                0x0801c6d4      0x1f8 C:\Users\error414\AppData\Local\Temp\stm32-chibios.c1tKpx.ltrans3.ltrans.o
 .rodata.fc_part_clound
                0x0801c8cc        0xc C:\Users\error414\AppData\Local\Temp\stm32-chibios.c1tKpx.ltrans3.ltrans.o
 .rodata.fc_part_clound_map
                0x0801c8d8      0x1f8 C:\Users\error414\AppData\Local\Temp\stm32-chibios.c1tKpx.ltrans3.ltrans.o
 .rodata.fc_rain
                0x0801cad0        0xc C:\Users\error414\AppData\Local\Temp\stm32-chibios.c1tKpx.ltrans3.ltrans.o
 .rodata.fc_rain_map
                0x0801cadc      0x1f8 C:\Users\error414\AppData\Local\Temp\stm32-chibios.c1tKpx.ltrans3.ltrans.o
 .rodata.glyph_bitmap.lto_priv.0
                0x0801ccd4     0x1681 C:\Users\error414\AppData\Local\Temp\stm32-chibios.c1tKpx.ltrans3.ltrans.o
 *fill*         0x0801e355        0x3 
 .rodata.glyph_bitmap.lto_priv.1
                0x0801e358     0x1b3a C:\Users\error414\AppData\Local\Temp\stm32-chibios.c1tKpx.ltrans3.ltrans.o
 *fill*         0x0801fe92        0x2 
 .rodata.glyph_bitmap.lto_priv.2
                0x0801fe94      0x480 C:\Users\error414\AppData\Local\Temp\stm32-chibios.c1tKpx.ltrans3.ltrans.o
 .rodata.glyph_bitmap.lto_priv.3
                0x08020314      0xea6 C:\Users\error414\AppData\Local\Temp\stm32-chibios.c1tKpx.ltrans3.ltrans.o
 *fill*         0x080211ba        0x2 
 .rodata.glyph_bitmap.lto_priv.4
                0x080211bc      0x2ef C:\Users\error414\AppData\Local\Temp\stm32-chibios.c1tKpx.ltrans3.ltrans.o
 *fill*         0x080214ab        0x1 
 .rodata.glyph_bitmap.lto_priv.5
                0x080214ac      0xb80 C:\Users\error414\AppData\Local\Temp\stm32-chibios.c1tKpx.ltrans3.ltrans.o
 .rodata.glyph_bitmap.lto_priv.6
                0x0802202c     0x1a2c C:\Users\error414\AppData\Local\Temp\stm32-chibios.c1tKpx.ltrans3.ltrans.o
 .rodata.glyph_bitmap.lto_priv.7
                0x08023a58     0x6580 C:\Users\error414\AppData\Local\Temp\stm32-chibios.c1tKpx.ltrans3.ltrans.o
 .rodata.glyph_dsc.lto_priv.0
                0x08029fd8      0x4d8 C:\Users\error414\AppData\Local\Temp\stm32-chibios.c1tKpx.ltrans3.ltrans.o
 .rodata.glyph_dsc.lto_priv.1
                0x0802a4b0      0xa08 C:\Users\error414\AppData\Local\Temp\stm32-chibios.c1tKpx.ltrans3.ltrans.o
 .rodata.glyph_dsc.lto_priv.2
                0x0802aeb8      0xa08 C:\Users\error414\AppData\Local\Temp\stm32-chibios.c1tKpx.ltrans3.ltrans.o
 .rodata.glyph_dsc.lto_priv.3
                0x0802b8c0      0x590 C:\Users\error414\AppData\Local\Temp\stm32-chibios.c1tKpx.ltrans3.ltrans.o
 .rodata.glyph_dsc.lto_priv.4
                0x0802be50      0x590 C:\Users\error414\AppData\Local\Temp\stm32-chibios.c1tKpx.ltrans3.ltrans.o
 .rodata.glyph_dsc.lto_priv.5
                0x0802c3e0      0x308 C:\Users\error414\AppData\Local\Temp\stm32-chibios.c1tKpx.ltrans3.ltrans.o
 .rodata.glyph_dsc.lto_priv.6
                0x0802c6e8      0x670 C:\Users\error414\AppData\Local\Temp\stm32-chibios.c1tKpx.ltrans3.ltrans.o
 .rodata.glyph_dsc.lto_priv.7
                0x0802cd58      0x670 C:\Users\error414\AppData\Local\Temp\stm32-chibios.c1tKpx.ltrans3.ltrans.o
 .rodata.glyph_dsc.lto_priv.8
                0x0802d3c8      0x670 C:\Users\error414\AppData\Local\Temp\stm32-chibios.c1tKpx.ltrans3.ltrans.o
 .rodata.gpio_default_config
                0x0802da38       0xa8 C:\Users\error414\AppData\Local\Temp\stm32-chibios.c1tKpx.ltrans3.ltrans.o
 .rodata.gylph_bitmap
                0x0802dae0     0x1961 C:\Users\error414\AppData\Local\Temp\stm32-chibios.c1tKpx.ltrans3.ltrans.o
 *fill*         0x0802f441        0x3 
 .rodata.hs_spicfg1
                0x0802f444       0x14 C:\Users\error414\AppData\Local\Temp\stm32-chibios.c1tKpx.ltrans3.ltrans.o
 .rodata.humidity36
                0x0802f458        0xc C:\Users\error414\AppData\Local\Temp\stm32-chibios.c1tKpx.ltrans3.ltrans.o
 .rodata.humidity36_map
                0x0802f464       0xb4 C:\Users\error414\AppData\Local\Temp\stm32-chibios.c1tKpx.ltrans3.ltrans.o
 .rodata.iconList
                0x0802f518        0xc C:\Users\error414\AppData\Local\Temp\stm32-chibios.c1tKpx.ltrans3.ltrans.o
 .rodata.kern_class_values
                0x0802f524      0xbad C:\Users\error414\AppData\Local\Temp\stm32-chibios.c1tKpx.ltrans3.ltrans.o
 *fill*         0x080300d1        0x3 
 .rodata.kern_classes
                0x080300d4       0x10 C:\Users\error414\AppData\Local\Temp\stm32-chibios.c1tKpx.ltrans3.ltrans.o
 .rodata.kern_left_class_mapping
                0x080300e4       0x9b C:\Users\error414\AppData\Local\Temp\stm32-chibios.c1tKpx.ltrans3.ltrans.o
 *fill*         0x0803017f        0x1 
 .rodata.kern_right_class_mapping
                0x08030180       0x9b C:\Users\error414\AppData\Local\Temp\stm32-chibios.c1tKpx.ltrans3.ltrans.o
 *fill*         0x0803021b        0x1 
 .rodata.pressure36
                0x0803021c        0xc C:\Users\error414\AppData\Local\Temp\stm32-chibios.c1tKpx.ltrans3.ltrans.o
 .rodata.pressure36_map
                0x08030228       0xb4 C:\Users\error414\AppData\Local\Temp\stm32-chibios.c1tKpx.ltrans3.ltrans.o
 .rodata.rain36
                0x080302dc        0xc C:\Users\error414\AppData\Local\Temp\stm32-chibios.c1tKpx.ltrans3.ltrans.o
 .rodata.rain36_map
                0x080302e8       0xb4 C:\Users\error414\AppData\Local\Temp\stm32-chibios.c1tKpx.ltrans3.ltrans.o
 .rodata.sd2cfg
                0x0803039c        0xc C:\Users\error414\AppData\Local\Temp\stm32-chibios.c1tKpx.ltrans3.ltrans.o
 .rodata.sun36  0x080303a8        0xc C:\Users\error414\AppData\Local\Temp\stm32-chibios.c1tKpx.ltrans3.ltrans.o
 .rodata.sun36_map
                0x080303b4       0xb4 C:\Users\error414\AppData\Local\Temp\stm32-chibios.c1tKpx.ltrans3.ltrans.o
 .rodata.temp   0x08030468        0xc C:\Users\error414\AppData\Local\Temp\stm32-chibios.c1tKpx.ltrans3.ltrans.o
 .rodata.temp_map
                0x08030474       0x92 C:\Users\error414\AppData\Local\Temp\stm32-chibios.c1tKpx.ltrans3.ltrans.o
 *fill*         0x08030506        0x2 
 .rodata.unicode_list_1.lto_priv.0
                0x08030508       0x76 C:\Users\error414\AppData\Local\Temp\stm32-chibios.c1tKpx.ltrans3.ltrans.o
 *fill*         0x0803057e        0x2 
 .rodata.unicode_list_1.lto_priv.1
                0x08030580        0xc C:\Users\error414\AppData\Local\Temp\stm32-chibios.c1tKpx.ltrans3.ltrans.o
 .rodata.unicode_list_1.lto_priv.2
                0x0803058c        0xc C:\Users\error414\AppData\Local\Temp\stm32-chibios.c1tKpx.ltrans3.ltrans.o
 .rodata.unicode_list_1.lto_priv.3
                0x08030598        0xc C:\Users\error414\AppData\Local\Temp\stm32-chibios.c1tKpx.ltrans3.ltrans.o
 .rodata.unicode_list_2.lto_priv.0
                0x080305a4        0xa C:\Users\error414\AppData\Local\Temp\stm32-chibios.c1tKpx.ltrans3.ltrans.o
 *fill*         0x080305ae        0x2 
 .rodata.unicode_list_2.lto_priv.1
                0x080305b0        0xa C:\Users\error414\AppData\Local\Temp\stm32-chibios.c1tKpx.ltrans3.ltrans.o
 *fill*         0x080305ba        0x2 
 .rodata.unicode_list_3.lto_priv.0
                0x080305bc        0xa C:\Users\error414\AppData\Local\Temp\stm32-chibios.c1tKpx.ltrans3.ltrans.o
 *fill*         0x080305c6        0x2 
 .rodata.unicode_list_3.lto_priv.1
                0x080305c8        0xa C:\Users\error414\AppData\Local\Temp\stm32-chibios.c1tKpx.ltrans3.ltrans.o
 *fill*         0x080305d2        0x2 
 .rodata.unicode_list_3.lto_priv.2
                0x080305d4        0xa C:\Users\error414\AppData\Local\Temp\stm32-chibios.c1tKpx.ltrans3.ltrans.o
 *fill*         0x080305de        0x2 
 .rodata.uv36   0x080305e0        0xc C:\Users\error414\AppData\Local\Temp\stm32-chibios.c1tKpx.ltrans3.ltrans.o
 .rodata.uv36_map
                0x080305ec       0xb4 C:\Users\error414\AppData\Local\Temp\stm32-chibios.c1tKpx.ltrans3.ltrans.o
 .rodata.wind36
                0x080306a0        0xc C:\Users\error414\AppData\Local\Temp\stm32-chibios.c1tKpx.ltrans3.ltrans.o
 .rodata.wind36_map
                0x080306ac       0xb4 C:\Users\error414\AppData\Local\Temp\stm32-chibios.c1tKpx.ltrans3.ltrans.o
 .rodata._ctype_
                0x08030760      0x101 c:/users/error414/documents/stm32-tools/gcc-arm-none-eabi-10-2020-q4-major/bin/../lib/gcc/arm-none-eabi/10.2.1/../../../../arm-none-eabi/lib/thumb/v7e-m/nofp\libg.a(lib_a-ctype_.o)
                0x08030760                _ctype_
                0x08030864                . = ALIGN (0x4)
 *fill*         0x08030861        0x3 
                0x08030864                __rodata_end__ = .

.rel.dyn        0x08030864        0x0
 .rel.iplt      0x08030864        0x0 CMakeFiles/stm32-chibios.dir/C_/Users/error414/Documents/STM32/meteo-F4/ChibiOS/os/common/startup/ARMCMx/compilers/GCC/crt0_v7m.S.obj

.ARM.extab
 *(.ARM.extab* .gnu.linkonce.armextab.*)

.ARM.exidx      0x08030864        0x0
                0x08030864                __exidx_base__ = .
                0x08030864                __exidx_start = .
 *(.ARM.exidx* .gnu.linkonce.armexidx.*)
                0x08030864                __exidx_end__ = .
                0x08030864                __exidx_end = .

.eh_frame_hdr
 *(.eh_frame_hdr)

.eh_frame
 *(.eh_frame)

.data           0x20000320      0x2ac load address 0x08030864
                [!provide]                PROVIDE (_textdata = LOADADDR (.data))
                [!provide]                PROVIDE (_data = .)
                0x08030864                __textdata_base__ = LOADADDR (.data)
                0x20000320                __data_base__ = .
 *(.data)
 .data          0x20000320        0x0 C:\Users\error414\AppData\Local\Temp\stm32-chibios.c1tKpx.ltrans0.ltrans.o
 .data          0x20000320        0x0 C:\Users\error414\AppData\Local\Temp\stm32-chibios.c1tKpx.ltrans1.ltrans.o
 .data          0x20000320        0x0 C:\Users\error414\AppData\Local\Temp\stm32-chibios.c1tKpx.ltrans2.ltrans.o
 .data          0x20000320        0x0 C:\Users\error414\AppData\Local\Temp\stm32-chibios.c1tKpx.ltrans3.ltrans.o
 .data          0x20000320        0x0 CMakeFiles/stm32-chibios.dir/C_/Users/error414/Documents/STM32/meteo-F4/ChibiOS/os/common/startup/ARMCMx/compilers/GCC/crt0_v7m.S.obj
 .data          0x20000320        0x0 CMakeFiles/stm32-chibios.dir/C_/Users/error414/Documents/STM32/meteo-F4/ChibiOS/os/common/startup/ARMCMx/compilers/GCC/vectors.S.obj
 .data          0x20000320        0x0 CMakeFiles/stm32-chibios.dir/C_/Users/error414/Documents/STM32/meteo-F4/ChibiOS/os/common/ports/ARMv7-M/compilers/GCC/chcoreasm.S.obj
 .data          0x20000320        0x0 c:/users/error414/documents/stm32-tools/gcc-arm-none-eabi-10-2020-q4-major/bin/../lib/gcc/arm-none-eabi/10.2.1/../../../../arm-none-eabi/lib/thumb/v7e-m/nofp\libg.a(lib_a-ctype_.o)
 .data          0x20000320        0x0 c:/users/error414/documents/stm32-tools/gcc-arm-none-eabi-10-2020-q4-major/bin/../lib/gcc/arm-none-eabi/10.2.1/../../../../arm-none-eabi/lib/thumb/v7e-m/nofp\libg.a(lib_a-memcmp.o)
 .data          0x20000320        0x0 c:/users/error414/documents/stm32-tools/gcc-arm-none-eabi-10-2020-q4-major/bin/../lib/gcc/arm-none-eabi/10.2.1/../../../../arm-none-eabi/lib/thumb/v7e-m/nofp\libg.a(lib_a-memcpy.o)
 .data          0x20000320        0x0 c:/users/error414/documents/stm32-tools/gcc-arm-none-eabi-10-2020-q4-major/bin/../lib/gcc/arm-none-eabi/10.2.1/../../../../arm-none-eabi/lib/thumb/v7e-m/nofp\libg.a(lib_a-strcpy.o)
 .data          0x20000320        0x0 c:/users/error414/documents/stm32-tools/gcc-arm-none-eabi-10-2020-q4-major/bin/../lib/gcc/arm-none-eabi/10.2.1/../../../../arm-none-eabi/lib/thumb/v7e-m/nofp\libg.a(lib_a-strlen.o)
 .data          0x20000320        0x0 c:/users/error414/documents/stm32-tools/gcc-arm-none-eabi-10-2020-q4-major/bin/../lib/gcc/arm-none-eabi/10.2.1/../../../../arm-none-eabi/lib/thumb/v7e-m/nofp\libg.a(lib_a-strncpy.o)
 *(.data.*)
 .data.font_dsc
                0x20000320       0x20 C:\Users\error414\AppData\Local\Temp\stm32-chibios.c1tKpx.ltrans0.ltrans.o
 .data.lv_font_montserrat_14
                0x20000340       0x14 C:\Users\error414\AppData\Local\Temp\stm32-chibios.c1tKpx.ltrans0.ltrans.o
                0x20000340                lv_font_montserrat_14
 .data.mem_buf_small
                0x20000354       0x10 C:\Users\error414\AppData\Local\Temp\stm32-chibios.c1tKpx.ltrans2.ltrans.o
 .data.blackTransmission
                0x20000364        0x1 C:\Users\error414\AppData\Local\Temp\stm32-chibios.c1tKpx.ltrans3.ltrans.o
 *fill*         0x20000365        0x3 
 .data.font_dsc.lto_priv.0
                0x20000368       0x20 C:\Users\error414\AppData\Local\Temp\stm32-chibios.c1tKpx.ltrans3.ltrans.o
 .data.font_dsc.lto_priv.1
                0x20000388       0x20 C:\Users\error414\AppData\Local\Temp\stm32-chibios.c1tKpx.ltrans3.ltrans.o
 .data.font_dsc.lto_priv.2
                0x200003a8       0x20 C:\Users\error414\AppData\Local\Temp\stm32-chibios.c1tKpx.ltrans3.ltrans.o
 .data.font_dsc.lto_priv.3
                0x200003c8       0x20 C:\Users\error414\AppData\Local\Temp\stm32-chibios.c1tKpx.ltrans3.ltrans.o
 .data.font_dsc.lto_priv.4
                0x200003e8       0x20 C:\Users\error414\AppData\Local\Temp\stm32-chibios.c1tKpx.ltrans3.ltrans.o
 .data.font_dsc.lto_priv.5
                0x20000408       0x20 C:\Users\error414\AppData\Local\Temp\stm32-chibios.c1tKpx.ltrans3.ltrans.o
 .data.font_dsc.lto_priv.6
                0x20000428       0x20 C:\Users\error414\AppData\Local\Temp\stm32-chibios.c1tKpx.ltrans3.ltrans.o
 .data.font_dsc.lto_priv.7
                0x20000448       0x20 C:\Users\error414\AppData\Local\Temp\stm32-chibios.c1tKpx.ltrans3.ltrans.o
 .data.font_dsc.lto_priv.8
                0x20000468       0x20 C:\Users\error414\AppData\Local\Temp\stm32-chibios.c1tKpx.ltrans3.ltrans.o
 .data.hc12cfg.0
                0x20000488        0x6 C:\Users\error414\AppData\Local\Temp\stm32-chibios.c1tKpx.ltrans3.ltrans.o
 *fill*         0x2000048e        0x2 
 .data.lineTopPoints1
                0x20000490        0x8 C:\Users\error414\AppData\Local\Temp\stm32-chibios.c1tKpx.ltrans3.ltrans.o
 .data.lineTopPoints2
                0x20000498        0x8 C:\Users\error414\AppData\Local\Temp\stm32-chibios.c1tKpx.ltrans3.ltrans.o
 .data.lineTopPoints3
                0x200004a0        0x8 C:\Users\error414\AppData\Local\Temp\stm32-chibios.c1tKpx.ltrans3.ltrans.o
 .data.lineTopPoints4
                0x200004a8        0x8 C:\Users\error414\AppData\Local\Temp\stm32-chibios.c1tKpx.ltrans3.ltrans.o
 .data.lineTopPoints5
                0x200004b0        0x8 C:\Users\error414\AppData\Local\Temp\stm32-chibios.c1tKpx.ltrans3.ltrans.o
 .data.lv_font_montserrat_12
                0x200004b8       0x14 C:\Users\error414\AppData\Local\Temp\stm32-chibios.c1tKpx.ltrans3.ltrans.o
 .data.press14  0x200004cc       0x14 C:\Users\error414\AppData\Local\Temp\stm32-chibios.c1tKpx.ltrans3.ltrans.o
 .data.press16  0x200004e0       0x14 C:\Users\error414\AppData\Local\Temp\stm32-chibios.c1tKpx.ltrans3.ltrans.o
 .data.retro12  0x200004f4       0x14 C:\Users\error414\AppData\Local\Temp\stm32-chibios.c1tKpx.ltrans3.ltrans.o
 .data.retro20  0x20000508       0x14 C:\Users\error414\AppData\Local\Temp\stm32-chibios.c1tKpx.ltrans3.ltrans.o
 .data.streamMemPool
                0x2000051c       0x10 C:\Users\error414\AppData\Local\Temp\stm32-chibios.c1tKpx.ltrans3.ltrans.o
 .data.streamRxMail
                0x2000052c       0x28 C:\Users\error414\AppData\Local\Temp\stm32-chibios.c1tKpx.ltrans3.ltrans.o
 .data.streamTxMail
                0x20000554       0x28 C:\Users\error414\AppData\Local\Temp\stm32-chibios.c1tKpx.ltrans3.ltrans.o
 .data.upheaval16
                0x2000057c       0x14 C:\Users\error414\AppData\Local\Temp\stm32-chibios.c1tKpx.ltrans3.ltrans.o
 .data.upheaval20
                0x20000590       0x14 C:\Users\error414\AppData\Local\Temp\stm32-chibios.c1tKpx.ltrans3.ltrans.o
 .data.upheaval30
                0x200005a4       0x14 C:\Users\error414\AppData\Local\Temp\stm32-chibios.c1tKpx.ltrans3.ltrans.o
 .data.upheaval48
                0x200005b8       0x14 C:\Users\error414\AppData\Local\Temp\stm32-chibios.c1tKpx.ltrans3.ltrans.o
 *(.ramtext)
                0x200005cc                . = ALIGN (0x4)
                [!provide]                PROVIDE (_edata = .)
                0x200005cc                __data_end__ = .

.igot.plt       0x200005cc        0x0 load address 0x08030b10
 .igot.plt      0x200005cc        0x0 CMakeFiles/stm32-chibios.dir/C_/Users/error414/Documents/STM32/meteo-F4/ChibiOS/os/common/startup/ARMCMx/compilers/GCC/crt0_v7m.S.obj

.bss            0x200005d0     0xcf28 load address 0x08030b10
                0x200005d0                __bss_base__ = .
 *(.bss)
 .bss           0x200005d0        0x0 C:\Users\error414\AppData\Local\Temp\stm32-chibios.c1tKpx.ltrans0.ltrans.o
 .bss           0x200005d0        0x0 C:\Users\error414\AppData\Local\Temp\stm32-chibios.c1tKpx.ltrans1.ltrans.o
 .bss           0x200005d0        0x0 C:\Users\error414\AppData\Local\Temp\stm32-chibios.c1tKpx.ltrans2.ltrans.o
 .bss           0x200005d0        0x0 C:\Users\error414\AppData\Local\Temp\stm32-chibios.c1tKpx.ltrans3.ltrans.o
 .bss           0x200005d0        0x0 CMakeFiles/stm32-chibios.dir/C_/Users/error414/Documents/STM32/meteo-F4/ChibiOS/os/common/startup/ARMCMx/compilers/GCC/crt0_v7m.S.obj
 .bss           0x200005d0        0x0 CMakeFiles/stm32-chibios.dir/C_/Users/error414/Documents/STM32/meteo-F4/ChibiOS/os/common/startup/ARMCMx/compilers/GCC/vectors.S.obj
 .bss           0x200005d0        0x0 CMakeFiles/stm32-chibios.dir/C_/Users/error414/Documents/STM32/meteo-F4/ChibiOS/os/common/ports/ARMv7-M/compilers/GCC/chcoreasm.S.obj
 .bss           0x200005d0        0x0 c:/users/error414/documents/stm32-tools/gcc-arm-none-eabi-10-2020-q4-major/bin/../lib/gcc/arm-none-eabi/10.2.1/../../../../arm-none-eabi/lib/thumb/v7e-m/nofp\libg.a(lib_a-ctype_.o)
 .bss           0x200005d0        0x0 c:/users/error414/documents/stm32-tools/gcc-arm-none-eabi-10-2020-q4-major/bin/../lib/gcc/arm-none-eabi/10.2.1/../../../../arm-none-eabi/lib/thumb/v7e-m/nofp\libg.a(lib_a-memcmp.o)
 .bss           0x200005d0        0x0 c:/users/error414/documents/stm32-tools/gcc-arm-none-eabi-10-2020-q4-major/bin/../lib/gcc/arm-none-eabi/10.2.1/../../../../arm-none-eabi/lib/thumb/v7e-m/nofp\libg.a(lib_a-memcpy.o)
 .bss           0x200005d0        0x0 c:/users/error414/documents/stm32-tools/gcc-arm-none-eabi-10-2020-q4-major/bin/../lib/gcc/arm-none-eabi/10.2.1/../../../../arm-none-eabi/lib/thumb/v7e-m/nofp\libg.a(lib_a-strcpy.o)
 .bss           0x200005d0        0x0 c:/users/error414/documents/stm32-tools/gcc-arm-none-eabi-10-2020-q4-major/bin/../lib/gcc/arm-none-eabi/10.2.1/../../../../arm-none-eabi/lib/thumb/v7e-m/nofp\libg.a(lib_a-strlen.o)
 .bss           0x200005d0        0x0 c:/users/error414/documents/stm32-tools/gcc-arm-none-eabi-10-2020-q4-major/bin/../lib/gcc/arm-none-eabi/10.2.1/../../../../arm-none-eabi/lib/thumb/v7e-m/nofp\libg.a(lib_a-strncpy.o)
 *(.bss.*)
 .bss.I2CD1     0x200005d0       0x38 C:\Users\error414\AppData\Local\Temp\stm32-chibios.c1tKpx.ltrans0.ltrans.o
 .bss.PWMD1     0x20000608       0x1c C:\Users\error414\AppData\Local\Temp\stm32-chibios.c1tKpx.ltrans0.ltrans.o
 .bss.PWMD3     0x20000624       0x1c C:\Users\error414\AppData\Local\Temp\stm32-chibios.c1tKpx.ltrans0.ltrans.o
 .bss.SD2       0x20000640       0x80 C:\Users\error414\AppData\Local\Temp\stm32-chibios.c1tKpx.ltrans0.ltrans.o
                0x20000640                SD2
 .bss.SPID1     0x200006c0       0x30 C:\Users\error414\AppData\Local\Temp\stm32-chibios.c1tKpx.ltrans0.ltrans.o
                0x200006c0                SPID1
 .bss.SPID2     0x200006f0       0x30 C:\Users\error414\AppData\Local\Temp\stm32-chibios.c1tKpx.ltrans0.ltrans.o
 .bss._lv_disp_ll
                0x20000720        0xc C:\Users\error414\AppData\Local\Temp\stm32-chibios.c1tKpx.ltrans0.ltrans.o
                0x20000720                _lv_disp_ll
 .bss._lv_group_ll
                0x2000072c        0xc C:\Users\error414\AppData\Local\Temp\stm32-chibios.c1tKpx.ltrans0.ltrans.o
 .bss._lv_indev_ll
                0x20000738        0xc C:\Users\error414\AppData\Local\Temp\stm32-chibios.c1tKpx.ltrans0.ltrans.o
                0x20000738                _lv_indev_ll
 .bss._lv_obj_style_trans_ll
                0x20000744        0xc C:\Users\error414\AppData\Local\Temp\stm32-chibios.c1tKpx.ltrans0.ltrans.o
 .bss._pal_events
                0x20000750       0x80 C:\Users\error414\AppData\Local\Temp\stm32-chibios.c1tKpx.ltrans0.ltrans.o
 .bss.ch0       0x200007d0       0x90 C:\Users\error414\AppData\Local\Temp\stm32-chibios.c1tKpx.ltrans0.ltrans.o
                0x200007d0                ch0
 .bss.ch_c0_idle_thread_wa
                0x20000860      0x1d0 C:\Users\error414\AppData\Local\Temp\stm32-chibios.c1tKpx.ltrans0.ltrans.o
 .bss.ch_factory
                0x20000a30       0x48 C:\Users\error414\AppData\Local\Temp\stm32-chibios.c1tKpx.ltrans0.ltrans.o
 .bss.ch_memcore
                0x20000a78        0x8 C:\Users\error414\AppData\Local\Temp\stm32-chibios.c1tKpx.ltrans0.ltrans.o
 .bss.ch_system
                0x20000a80        0xc C:\Users\error414\AppData\Local\Temp\stm32-chibios.c1tKpx.ltrans0.ltrans.o
 .bss.default_heap
                0x20000a8c       0x1c C:\Users\error414\AppData\Local\Temp\stm32-chibios.c1tKpx.ltrans0.ltrans.o
 .bss.disp_refr
                0x20000aa8        0x4 C:\Users\error414\AppData\Local\Temp\stm32-chibios.c1tKpx.ltrans0.ltrans.o
 .bss.dma       0x20000aac       0x84 C:\Users\error414\AppData\Local\Temp\stm32-chibios.c1tKpx.ltrans0.ltrans.o
 .bss.dummyrx   0x20000b30        0x2 C:\Users\error414\AppData\Local\Temp\stm32-chibios.c1tKpx.ltrans0.ltrans.o
 *fill*         0x20000b32        0x2 
 .bss.event_act_data
                0x20000b34        0x4 C:\Users\error414\AppData\Local\Temp\stm32-chibios.c1tKpx.ltrans0.ltrans.o
 .bss.event_temp_data_head
                0x20000b38        0x4 C:\Users\error414\AppData\Local\Temp\stm32-chibios.c1tKpx.ltrans0.ltrans.o
 .bss.indev_obj_act
                0x20000b3c        0x4 C:\Users\error414\AppData\Local\Temp\stm32-chibios.c1tKpx.ltrans0.ltrans.o
 .bss.lv_initialized
                0x20000b40        0x1 C:\Users\error414\AppData\Local\Temp\stm32-chibios.c1tKpx.ltrans0.ltrans.o
 *fill*         0x20000b41        0x3 
 .bss.px_num    0x20000b44        0x4 C:\Users\error414\AppData\Local\Temp\stm32-chibios.c1tKpx.ltrans0.ltrans.o
 .bss._lv_draw_mask_list
                0x20000b48       0x80 C:\Users\error414\AppData\Local\Temp\stm32-chibios.c1tKpx.ltrans1.ltrans.o
 .bss._lv_font_decompr_buf
                0x20000bc8        0x4 C:\Users\error414\AppData\Local\Temp\stm32-chibios.c1tKpx.ltrans1.ltrans.o
 .bss._lv_img_defoder_ll
                0x20000bcc        0xc C:\Users\error414\AppData\Local\Temp\stm32-chibios.c1tKpx.ltrans1.ltrans.o
 .bss.cache_temp
                0x20000bd8       0x24 C:\Users\error414\AppData\Local\Temp\stm32-chibios.c1tKpx.ltrans1.ltrans.o
 .bss.disp_def  0x20000bfc        0x4 C:\Users\error414\AppData\Local\Temp\stm32-chibios.c1tKpx.ltrans1.ltrans.o
 .bss.opa_table.0
                0x20000c00      0x100 C:\Users\error414\AppData\Local\Temp\stm32-chibios.c1tKpx.ltrans1.ltrans.o
 .bss.prev_bpp.1
                0x20000d00        0x4 C:\Users\error414\AppData\Local\Temp\stm32-chibios.c1tKpx.ltrans1.ltrans.o
 .bss.prev_opa.2
                0x20000d04        0x1 C:\Users\error414\AppData\Local\Temp\stm32-chibios.c1tKpx.ltrans1.ltrans.o
 .bss.rle_bpp   0x20000d05        0x1 C:\Users\error414\AppData\Local\Temp\stm32-chibios.c1tKpx.ltrans1.ltrans.o
 .bss.rle_cnt   0x20000d06        0x1 C:\Users\error414\AppData\Local\Temp\stm32-chibios.c1tKpx.ltrans1.ltrans.o
 *fill*         0x20000d07        0x1 
 .bss.rle_in    0x20000d08        0x4 C:\Users\error414\AppData\Local\Temp\stm32-chibios.c1tKpx.ltrans1.ltrans.o
 .bss.rle_prev_v
                0x20000d0c        0x1 C:\Users\error414\AppData\Local\Temp\stm32-chibios.c1tKpx.ltrans1.ltrans.o
 *fill*         0x20000d0d        0x3 
 .bss.rle_rdp   0x20000d10        0x4 C:\Users\error414\AppData\Local\Temp\stm32-chibios.c1tKpx.ltrans1.ltrans.o
 .bss.rle_state
                0x20000d14        0x1 C:\Users\error414\AppData\Local\Temp\stm32-chibios.c1tKpx.ltrans1.ltrans.o
 *fill*         0x20000d15        0x3 
 .bss.sys_time  0x20000d18        0x4 C:\Users\error414\AppData\Local\Temp\stm32-chibios.c1tKpx.ltrans1.ltrans.o
 .bss.tick_irq_flag
                0x20000d1c        0x1 C:\Users\error414\AppData\Local\Temp\stm32-chibios.c1tKpx.ltrans1.ltrans.o
 *fill*         0x20000d1d        0x3 
 .bss._lv_mem_buf
                0x20000d20       0x80 C:\Users\error414\AppData\Local\Temp\stm32-chibios.c1tKpx.ltrans2.ltrans.o
 .bss._lv_task_act
                0x20000da0        0x4 C:\Users\error414\AppData\Local\Temp\stm32-chibios.c1tKpx.ltrans2.ltrans.o
 .bss._lv_task_ll
                0x20000da4        0xc C:\Users\error414\AppData\Local\Temp\stm32-chibios.c1tKpx.ltrans2.ltrans.o
 .bss._lv_theme_mono_styles
                0x20000db0        0x4 C:\Users\error414\AppData\Local\Temp\stm32-chibios.c1tKpx.ltrans2.ltrans.o
 .bss.act_theme
                0x20000db4        0x4 C:\Users\error414\AppData\Local\Temp\stm32-chibios.c1tKpx.ltrans2.ltrans.o
 .bss.already_running.2
                0x20000db8        0x1 C:\Users\error414\AppData\Local\Temp\stm32-chibios.c1tKpx.ltrans2.ltrans.o
 *fill*         0x20000db9        0x3 
 .bss.ancestor_design.lto_priv.0
                0x20000dbc        0x4 C:\Users\error414\AppData\Local\Temp\stm32-chibios.c1tKpx.ltrans2.ltrans.o
 .bss.ancestor_design.lto_priv.1
                0x20000dc0        0x4 C:\Users\error414\AppData\Local\Temp\stm32-chibios.c1tKpx.ltrans2.ltrans.o
 .bss.ancestor_signal.lto_priv.0
                0x20000dc4        0x4 C:\Users\error414\AppData\Local\Temp\stm32-chibios.c1tKpx.ltrans2.ltrans.o
 .bss.ancestor_signal.lto_priv.1
                0x20000dc8        0x4 C:\Users\error414\AppData\Local\Temp\stm32-chibios.c1tKpx.ltrans2.ltrans.o
 .bss.ancestor_signal.lto_priv.2
                0x20000dcc        0x4 C:\Users\error414\AppData\Local\Temp\stm32-chibios.c1tKpx.ltrans2.ltrans.o
                0x20000dcc                ancestor_signal.lto_priv.2
 .bss.busy_time.1
                0x20000dd0        0x4 C:\Users\error414\AppData\Local\Temp\stm32-chibios.c1tKpx.ltrans2.ltrans.o
 .bss.full_defrag_cnt.0
                0x20000dd4        0x2 C:\Users\error414\AppData\Local\Temp\stm32-chibios.c1tKpx.ltrans2.ltrans.o
 .bss.idle_last
                0x20000dd6        0x1 C:\Users\error414\AppData\Local\Temp\stm32-chibios.c1tKpx.ltrans2.ltrans.o
 *fill*         0x20000dd7        0x1 
 .bss.idle_period_start.0
                0x20000dd8        0x4 C:\Users\error414\AppData\Local\Temp\stm32-chibios.c1tKpx.ltrans2.ltrans.o
 .bss.lv_task_run
                0x20000ddc        0x1 C:\Users\error414\AppData\Local\Temp\stm32-chibios.c1tKpx.ltrans2.ltrans.o
 *fill*         0x20000ddd        0x3 
 .bss.mem_buf1_32
                0x20000de0       0x10 C:\Users\error414\AppData\Local\Temp\stm32-chibios.c1tKpx.ltrans2.ltrans.o
 .bss.mem_buf2_32
                0x20000df0       0x10 C:\Users\error414\AppData\Local\Temp\stm32-chibios.c1tKpx.ltrans2.ltrans.o
 .bss.mem_max_size
                0x20000e00        0x4 C:\Users\error414\AppData\Local\Temp\stm32-chibios.c1tKpx.ltrans2.ltrans.o
 .bss.recursion_level.0
                0x20000e04        0x4 C:\Users\error414\AppData\Local\Temp\stm32-chibios.c1tKpx.ltrans2.ltrans.o
 .bss.styles    0x20000e08        0x4 C:\Users\error414\AppData\Local\Temp\stm32-chibios.c1tKpx.ltrans2.ltrans.o
 .bss.task_created
                0x20000e0c        0x1 C:\Users\error414\AppData\Local\Temp\stm32-chibios.c1tKpx.ltrans2.ltrans.o
 .bss.task_deleted
                0x20000e0d        0x1 C:\Users\error414\AppData\Local\Temp\stm32-chibios.c1tKpx.ltrans2.ltrans.o
 .bss.task_list_changed
                0x20000e0e        0x1 C:\Users\error414\AppData\Local\Temp\stm32-chibios.c1tKpx.ltrans2.ltrans.o
 *fill*         0x20000e0f        0x1 
 .bss.theme     0x20000e10       0x28 C:\Users\error414\AppData\Local\Temp\stm32-chibios.c1tKpx.ltrans2.ltrans.o
 .bss.work_mem  0x20000e38        0x4 C:\Users\error414\AppData\Local\Temp\stm32-chibios.c1tKpx.ltrans2.ltrans.o
 .bss.work_mem_int.1
                0x20000e3c     0x8000 C:\Users\error414\AppData\Local\Temp\stm32-chibios.c1tKpx.ltrans2.ltrans.o
 .bss.zero_mem  0x20008e3c        0x4 C:\Users\error414\AppData\Local\Temp\stm32-chibios.c1tKpx.ltrans2.ltrans.o
 .bss.GUIVA     0x20008e40      0x3e8 C:\Users\error414\AppData\Local\Temp\stm32-chibios.c1tKpx.ltrans3.ltrans.o
 .bss.MSP_status
                0x20009228      0x104 C:\Users\error414\AppData\Local\Temp\stm32-chibios.c1tKpx.ltrans3.ltrans.o
 .bss.ancestor_signal.lto_priv.3
                0x2000932c        0x4 C:\Users\error414\AppData\Local\Temp\stm32-chibios.c1tKpx.ltrans3.ltrans.o
 .bss.ancestor_signal.lto_priv.4
                0x20009330        0x4 C:\Users\error414\AppData\Local\Temp\stm32-chibios.c1tKpx.ltrans3.ltrans.o
 .bss.color_buff_1
                0x20009334     0x2260 C:\Users\error414\AppData\Local\Temp\stm32-chibios.c1tKpx.ltrans3.ltrans.o
 .bss.disp_buf_lvgl
                0x2000b594       0x24 C:\Users\error414\AppData\Local\Temp\stm32-chibios.c1tKpx.ltrans3.ltrans.o
 .bss.disp_drv  0x2000b5b8       0x2c C:\Users\error414\AppData\Local\Temp\stm32-chibios.c1tKpx.ltrans3.ltrans.o
 .bss.epd7In5HdCfg
                0x2000b5e4        0x4 C:\Users\error414\AppData\Local\Temp\stm32-chibios.c1tKpx.ltrans3.ltrans.o
 .bss.flush_buff
                0x2000b5e8      0x44c C:\Users\error414\AppData\Local\Temp\stm32-chibios.c1tKpx.ltrans3.ltrans.o
 .bss.forecastValues
                0x2000ba34       0x28 C:\Users\error414\AppData\Local\Temp\stm32-chibios.c1tKpx.ltrans3.ltrans.o
 .bss.guiForecastObject
                0x2000ba5c       0x54 C:\Users\error414\AppData\Local\Temp\stm32-chibios.c1tKpx.ltrans3.ltrans.o
 .bss.guiMainHeaderObject
                0x2000bab0        0xc C:\Users\error414\AppData\Local\Temp\stm32-chibios.c1tKpx.ltrans3.ltrans.o
 .bss.guiOutsideChartTempSer
                0x2000babc        0x4 C:\Users\error414\AppData\Local\Temp\stm32-chibios.c1tKpx.ltrans3.ltrans.o
 .bss.guiOutsideObject
                0x2000bac0       0x28 C:\Users\error414\AppData\Local\Temp\stm32-chibios.c1tKpx.ltrans3.ltrans.o
 .bss.guiThreadCfg
                0x2000bae8        0x4 C:\Users\error414\AppData\Local\Temp\stm32-chibios.c1tKpx.ltrans3.ltrans.o
 .bss.hc12State
                0x2000baec       0x98 C:\Users\error414\AppData\Local\Temp\stm32-chibios.c1tKpx.ltrans3.ltrans.o
 *fill*         0x2000bb84        0x4 
 .bss.hc12StreamVA
                0x2000bb88      0x240 C:\Users\error414\AppData\Local\Temp\stm32-chibios.c1tKpx.ltrans3.ltrans.o
 .bss.headerValues
                0x2000bdc8        0x4 C:\Users\error414\AppData\Local\Temp\stm32-chibios.c1tKpx.ltrans3.ltrans.o
 *fill*         0x2000bdcc        0x4 
 .bss.mspRXVA   0x2000bdd0      0x240 C:\Users\error414\AppData\Local\Temp\stm32-chibios.c1tKpx.ltrans3.ltrans.o
 .bss.noBorder  0x2000c010        0x4 C:\Users\error414\AppData\Local\Temp\stm32-chibios.c1tKpx.ltrans3.ltrans.o
 .bss.outsideValues
                0x2000c014       0x14 C:\Users\error414\AppData\Local\Temp\stm32-chibios.c1tKpx.ltrans3.ltrans.o
 .bss.streamPoolObject
                0x2000c028     0x1400 C:\Users\error414\AppData\Local\Temp\stm32-chibios.c1tKpx.ltrans3.ltrans.o
 .bss.streamRxDataLetter
                0x2000d428       0x50 C:\Users\error414\AppData\Local\Temp\stm32-chibios.c1tKpx.ltrans3.ltrans.o
 .bss.streamTxDataLetter
                0x2000d478       0x50 C:\Users\error414\AppData\Local\Temp\stm32-chibios.c1tKpx.ltrans3.ltrans.o
 .bss.styleChart
                0x2000d4c8        0x4 C:\Users\error414\AppData\Local\Temp\stm32-chibios.c1tKpx.ltrans3.ltrans.o
 .bss.styleChartSeries
                0x2000d4cc        0x4 C:\Users\error414\AppData\Local\Temp\stm32-chibios.c1tKpx.ltrans3.ltrans.o
 .bss.styleFont16
                0x2000d4d0        0x4 C:\Users\error414\AppData\Local\Temp\stm32-chibios.c1tKpx.ltrans3.ltrans.o
 .bss.styleFont20
                0x2000d4d4        0x4 C:\Users\error414\AppData\Local\Temp\stm32-chibios.c1tKpx.ltrans3.ltrans.o
 .bss.styleFont30
                0x2000d4d8        0x4 C:\Users\error414\AppData\Local\Temp\stm32-chibios.c1tKpx.ltrans3.ltrans.o
 .bss.styleFont48
                0x2000d4dc        0x4 C:\Users\error414\AppData\Local\Temp\stm32-chibios.c1tKpx.ltrans3.ltrans.o
 .bss.styleFontText12
                0x2000d4e0        0x4 C:\Users\error414\AppData\Local\Temp\stm32-chibios.c1tKpx.ltrans3.ltrans.o
 .bss.styleFontText14
                0x2000d4e4        0x4 C:\Users\error414\AppData\Local\Temp\stm32-chibios.c1tKpx.ltrans3.ltrans.o
 .bss.styleFontText16
                0x2000d4e8        0x4 C:\Users\error414\AppData\Local\Temp\stm32-chibios.c1tKpx.ltrans3.ltrans.o
 .bss.styleFontText20
                0x2000d4ec        0x4 C:\Users\error414\AppData\Local\Temp\stm32-chibios.c1tKpx.ltrans3.ltrans.o
 .bss.styleLine
                0x2000d4f0        0x4 C:\Users\error414\AppData\Local\Temp\stm32-chibios.c1tKpx.ltrans3.ltrans.o
 .bss.txBuffer  0x2000d4f4        0x1 C:\Users\error414\AppData\Local\Temp\stm32-chibios.c1tKpx.ltrans3.ltrans.o
 *(COMMON)
                0x2000d4f8                . = ALIGN (0x4)
 *fill*         0x2000d4f5        0x3 
                0x2000d4f8                __bss_end__ = .
                [!provide]                PROVIDE (end = .)
                0x20000000                __ram0_base__ = ORIGIN (ram0)
                0x00018000                __ram0_size__ = LENGTH (ram0)
                0x20018000                __ram0_end__ = (__ram0_base__ + __ram0_size__)
                0x00000000                __ram1_base__ = ORIGIN (ram1)
                0x00000000                __ram1_size__ = LENGTH (ram1)
                0x00000000                __ram1_end__ = (__ram1_base__ + __ram1_size__)
                0x00000000                __ram2_base__ = ORIGIN (ram2)
                0x00000000                __ram2_size__ = LENGTH (ram2)
                0x00000000                __ram2_end__ = (__ram2_base__ + __ram2_size__)
                0x00000000                __ram3_base__ = ORIGIN (ram3)
                0x00000000                __ram3_size__ = LENGTH (ram3)
                0x00000000                __ram3_end__ = (__ram3_base__ + __ram3_size__)
                0x00000000                __ram4_base__ = ORIGIN (ram4)
                0x00000000                __ram4_size__ = LENGTH (ram4)
                0x00000000                __ram4_end__ = (__ram4_base__ + __ram4_size__)
                0x00000000                __ram5_base__ = ORIGIN (ram5)
                0x00000000                __ram5_size__ = LENGTH (ram5)
                0x00000000                __ram5_end__ = (__ram5_base__ + __ram5_size__)
                0x00000000                __ram6_base__ = ORIGIN (ram6)
                0x00000000                __ram6_size__ = LENGTH (ram6)
                0x00000000                __ram6_end__ = (__ram6_base__ + __ram6_size__)
                0x00000000                __ram7_base__ = ORIGIN (ram7)
                0x00000000                __ram7_size__ = LENGTH (ram7)
                0x00000000                __ram7_end__ = (__ram7_base__ + __ram7_size__)
                0x08000000                __flash0_base__ = ORIGIN (flash0)
                0x00080000                __flash0_size__ = LENGTH (flash0)
                0x08080000                __flash0_end__ = (__flash0_base__ + __flash0_size__)
                0x00000000                __flash1_base__ = ORIGIN (flash1)
                0x00000000                __flash1_size__ = LENGTH (flash1)
                0x00000000                __flash1_end__ = (__flash1_base__ + __flash1_size__)
                0x00000000                __flash2_base__ = ORIGIN (flash2)
                0x00000000                __flash2_size__ = LENGTH (flash2)
                0x00000000                __flash2_end__ = (__flash2_base__ + __flash2_size__)
                0x00000000                __flash3_base__ = ORIGIN (flash3)
                0x00000000                __flash3_size__ = LENGTH (flash3)
                0x00000000                __flash3_end__ = (__flash3_base__ + __flash3_size__)
                0x00000000                __flash4_base__ = ORIGIN (flash4)
                0x00000000                __flash4_size__ = LENGTH (flash4)
                0x00000000                __flash4_end__ = (__flash4_base__ + __flash4_size__)
                0x00000000                __flash5_base__ = ORIGIN (flash5)
                0x00000000                __flash5_size__ = LENGTH (flash5)
                0x00000000                __flash5_end__ = (__flash5_base__ + __flash5_size__)
                0x00000000                __flash6_base__ = ORIGIN (flash6)
                0x00000000                __flash6_size__ = LENGTH (flash6)
                0x00000000                __flash6_end__ = (__flash6_base__ + __flash6_size__)
                0x00000000                __flash7_base__ = ORIGIN (flash7)
                0x00000000                __flash7_size__ = LENGTH (flash7)
                0x00000000                __flash7_end__ = (__flash7_base__ + __flash7_size__)

.ram0_init      0x2000d4f8        0x0 load address 0x08030b10
                0x08030b10                __ram0_init_text__ = LOADADDR (.ram0_init)
                0x2000d4f8                __ram0_init__ = .
 *(.ram0_init)
 *(.ram0_init.*)
                0x2000d4f8                . = ALIGN (0x4)

.ram0           0x2000d4f8        0x0 load address 0x08030b10
                0x2000d4f8                __ram0_clear__ = .
 *(.ram0_clear)
 *(.ram0_clear.*)
                0x2000d4f8                . = ALIGN (0x4)
                0x2000d4f8                __ram0_noinit__ = .
 *(.ram0)
 *(.ram0.*)
                0x2000d4f8                . = ALIGN (0x4)
                0x2000d4f8                __ram0_free__ = .

.ram1_init      0x00000000        0x0 load address 0x08030b10
                0x08030b10                __ram1_init_text__ = LOADADDR (.ram1_init)
                0x00000000                __ram1_init__ = .
 *(.ram1_init)
 *(.ram1_init.*)
                0x00000000                . = ALIGN (0x4)

.ram1           0x00000000        0x0 load address 0x08030b10
                0x00000000                __ram1_clear__ = .
 *(.ram1_clear)
 *(.ram1_clear.*)
                0x00000000                . = ALIGN (0x4)
                0x00000000                __ram1_noinit__ = .
 *(.ram1)
 *(.ram1.*)
                0x00000000                . = ALIGN (0x4)
                0x00000000                __ram1_free__ = .

.ram2_init      0x00000000        0x0 load address 0x08030b10
                0x08030b10                __ram2_init_text__ = LOADADDR (.ram2_init)
                0x00000000                __ram2_init__ = .
 *(.ram2_init)
 *(.ram2_init.*)
                0x00000000                . = ALIGN (0x4)

.ram2           0x00000000        0x0 load address 0x08030b10
                0x00000000                __ram2_clear__ = .
 *(.ram2_clear)
 *(.ram2_clear.*)
                0x00000000                . = ALIGN (0x4)
                0x00000000                __ram2_noinit__ = .
 *(.ram2)
 *(.ram2.*)
                0x00000000                . = ALIGN (0x4)
                0x00000000                __ram2_free__ = .

.ram3_init      0x00000000        0x0 load address 0x08030b10
                0x08030b10                __ram3_init_text__ = LOADADDR (.ram3_init)
                0x00000000                __ram3_init__ = .
 *(.ram3_init)
 *(.ram3_init.*)
                0x00000000                . = ALIGN (0x4)

.ram3           0x00000000        0x0 load address 0x08030b10
                0x00000000                __ram3_clear__ = .
 *(.ram3_clear)
 *(.ram3_clear.*)
                0x00000000                . = ALIGN (0x4)
                0x00000000                __ram3_noinit__ = .
 *(.ram3)
 *(.ram3.*)
                0x00000000                . = ALIGN (0x4)
                0x00000000                __ram3_free__ = .

.ram4_init      0x00000000        0x0 load address 0x08030b10
                0x08030b10                __ram4_init_text__ = LOADADDR (.ram4_init)
                0x00000000                __ram4_init__ = .
 *(.ram4_init)
 *(.ram4_init.*)
                0x00000000                . = ALIGN (0x4)

.ram4           0x00000000        0x0 load address 0x08030b10
                0x00000000                __ram4_clear__ = .
 *(.ram4_clear)
 *(.ram4_clear.*)
                0x00000000                . = ALIGN (0x4)
                0x00000000                __ram4_noinit__ = .
 *(.ram4)
 *(.ram4.*)
                0x00000000                . = ALIGN (0x4)
                0x00000000                __ram4_free__ = .

.ram5_init      0x00000000        0x0 load address 0x08030b10
                0x08030b10                __ram5_init_text__ = LOADADDR (.ram5_init)
                0x00000000                __ram5_init__ = .
 *(.ram5_init)
 *(.ram5_init.*)
                0x00000000                . = ALIGN (0x4)

.ram5           0x00000000        0x0 load address 0x08030b10
                0x00000000                __ram5_clear__ = .
 *(.ram5_clear)
 *(.ram5_clear.*)
                0x00000000                . = ALIGN (0x4)
                0x00000000                __ram5_noinit__ = .
 *(.ram5)
 *(.ram5.*)
                0x00000000                . = ALIGN (0x4)
                0x00000000                __ram5_free__ = .

.ram6_init      0x00000000        0x0 load address 0x08030b10
                0x08030b10                __ram6_init_text__ = LOADADDR (.ram6_init)
                0x00000000                __ram6_init__ = .
 *(.ram6_init)
 *(.ram6_init.*)
                0x00000000                . = ALIGN (0x4)

.ram6           0x00000000        0x0 load address 0x08030b10
                0x00000000                __ram6_clear__ = .
 *(.ram6_clear)
 *(.ram6_clear.*)
                0x00000000                . = ALIGN (0x4)
                0x00000000                __ram6_noinit__ = .
 *(.ram6)
 *(.ram6.*)
                0x00000000                . = ALIGN (0x4)
                0x00000000                __ram6_free__ = .

.ram7_init      0x00000000        0x0 load address 0x08030b10
                0x08030b10                __ram7_init_text__ = LOADADDR (.ram7_init)
                0x00000000                __ram7_init__ = .
 *(.ram7_init)
 *(.ram7_init.*)
                0x00000000                . = ALIGN (0x4)

.ram7           0x00000000        0x0 load address 0x08030b10
                0x00000000                __ram7_clear__ = .
 *(.ram7_clear)
 *(.ram7_clear.*)
                0x00000000                . = ALIGN (0x4)
                0x00000000                __ram7_noinit__ = .
 *(.ram7)
 *(.ram7.*)
                0x00000000                . = ALIGN (0x4)
                0x00000000                __ram7_free__ = .

.flash0         0x08030b10        0x0
                0x08030b10                __flash0_init__ = .
 *(.flash0_init)
 *(.flash0_init.*)
                0x08030b10                __flash0_free__ = .

.flash1         0x00000000        0x0
                0x00000000                __flash1_init__ = .
 *(.flash1_init)
 *(.flash1_init.*)
                0x00000000                __flash1_free__ = .

.flash2         0x00000000        0x0
                0x00000000                __flash2_init__ = .
 *(.flash2_init)
 *(.flash2_init.*)
                0x00000000                __flash2_free__ = .

.flash3         0x00000000        0x0
                0x00000000                __flash3_init__ = .
 *(.flash3_init)
 *(.flash3_init.*)
                0x00000000                __flash3_free__ = .

.flash4         0x00000000        0x0
                0x00000000                __flash4_init__ = .
 *(.flash4_init)
 *(.flash4_init.*)
                0x00000000                __flash4_free__ = .

.flash5         0x00000000        0x0
                0x00000000                __flash5_init__ = .
 *(.flash5_init)
 *(.flash5_init.*)
                0x00000000                __flash5_free__ = .

.flash6         0x00000000        0x0
                0x00000000                __flash6_init__ = .
 *(.flash6_init)
 *(.flash6_init.*)
                0x00000000                __flash6_free__ = .

.flash7         0x00000000        0x0
                0x00000000                __flash7_init__ = .
 *(.flash7_init)
 *(.flash7_init.*)
                0x00000000                __flash7_free__ = .

.heap           0x2000d4f8     0xab08
                0x2000d4f8                . = ALIGN (0x8)
                0x2000d4f8                __heap_base__ = .
                0x20018000                . = (ORIGIN (HEAP_RAM) + LENGTH (HEAP_RAM))
 *fill*         0x2000d4f8     0xab08 
                0x20018000                __heap_end__ = .
OUTPUT(stm32-chibios elf32-littlearm)
LOAD linker stubs

.debug_info     0x00000000    0xcc336
 .debug_info    0x00000000    0x12686 C:\Users\error414\AppData\Local\Temp\stm32-chibios.c1tKpx.ltrans0.ltrans.o
 .debug_info    0x00012686     0x9398 C:\Users\error414\AppData\Local\Temp\stm32-chibios.c1tKpx.ltrans1.ltrans.o
 .debug_info    0x0001ba1e     0xc489 C:\Users\error414\AppData\Local\Temp\stm32-chibios.c1tKpx.ltrans2.ltrans.o
 .debug_info    0x00027ea7     0x67df C:\Users\error414\AppData\Local\Temp\stm32-chibios.c1tKpx.ltrans3.ltrans.o
 .debug_info    0x0002e686      0x2c8 C:\Users\error414\AppData\Local\Temp\ccTMTdwX.debug.temp.o
                0x0002e686                crt1.c.68b51e9f
 .debug_info    0x0002e94e       0x8a C:\Users\error414\AppData\Local\Temp\cc4XNc53.debug.temp.o
                0x0002e94e                hal.c.3ef107ef
 .debug_info    0x0002e9d8      0x315 C:\Users\error414\AppData\Local\Temp\ccBKBzRa.debug.temp.o
                0x0002e9d8                hal_st.c.fd0707fe
 .debug_info    0x0002eced     0x100e C:\Users\error414\AppData\Local\Temp\ccs3IMMh.debug.temp.o
                0x0002eced                hal_buffers.c.288e3382
 .debug_info    0x0002fcfb      0xee4 C:\Users\error414\AppData\Local\Temp\ccfSnk2n.debug.temp.o
                0x0002fcfb                hal_queues.c.1c477f5b
 .debug_info    0x00030bdf      0x4c5 C:\Users\error414\AppData\Local\Temp\ccSdgPHt.debug.temp.o
                0x00030bdf                hal_flash.c.8f0a40db
 .debug_info    0x000310a4       0x79 C:\Users\error414\AppData\Local\Temp\ccNM8uvC.debug.temp.o
                0x000310a4                hal_mmcsd.c.979a51b1
 .debug_info    0x0003111d      0xe77 C:\Users\error414\AppData\Local\Temp\ccABnNzL.debug.temp.o
                0x0003111d                hal_i2c.c.022c6a57
 .debug_info    0x00031f94      0x3ea C:\Users\error414\AppData\Local\Temp\ccDwFXWU.debug.temp.o
                0x00031f94                hal_pal.c.caf20f42
 .debug_info    0x0003237e      0xddb C:\Users\error414\AppData\Local\Temp\ccgmlOm3.debug.temp.o
                0x0003237e                hal_pwm.c.0212ad69
 .debug_info    0x00033159     0x1192 C:\Users\error414\AppData\Local\Temp\ccf7SgUb.debug.temp.o
                0x00033159                hal_serial.c.6b712e71
 .debug_info    0x000342eb     0x10ee C:\Users\error414\AppData\Local\Temp\ccCwB7Ek.debug.temp.o
                0x000342eb                hal_spi.c.a61101dd
 .debug_info    0x000353d9      0x4bc C:\Users\error414\AppData\Local\Temp\ccfYmjps.debug.temp.o
                0x000353d9                nvic.c.345a14db
 .debug_info    0x00035895     0x13ee C:\Users\error414\AppData\Local\Temp\ccM04ECD.debug.temp.o
                0x00035895                stm32_isr.c.34bb671b
 .debug_info    0x00036c83      0x594 C:\Users\error414\AppData\Local\Temp\ccfT0fJN.debug.temp.o
                0x00036c83                hal_lld.c.035687c7
 .debug_info    0x00037217       0x79 C:\Users\error414\AppData\Local\Temp\cca0862X.debug.temp.o
                0x00037217                hal_efl_lld.c.a99c5bcb
 .debug_info    0x00037290      0xf4d C:\Users\error414\AppData\Local\Temp\cclpQHu8.debug.temp.o
                0x00037290                stm32_dma.c.9885815b
 .debug_info    0x000381dd       0x79 C:\Users\error414\AppData\Local\Temp\ccuhVuUh.debug.temp.o
                0x000381dd                stm32_exti.c.4cbceca6
 .debug_info    0x00038256      0x513 C:\Users\error414\AppData\Local\Temp\cchAH0Mv.debug.temp.o
                0x00038256                hal_pal_lld.c.748941bc
 .debug_info    0x00038769     0x149d C:\Users\error414\AppData\Local\Temp\cca4hI7I.debug.temp.o
                0x00038769                hal_i2c_lld.c.04387278
 .debug_info    0x00039c06     0x1129 C:\Users\error414\AppData\Local\Temp\cctnEYEV.debug.temp.o
                0x00039c06                hal_spi_lld.c.765486ae
 .debug_info    0x0003ad2f      0x4cc C:\Users\error414\AppData\Local\Temp\cc87oZj8.debug.temp.o
                0x0003ad2f                hal_st_lld.c.4e585d82
 .debug_info    0x0003b1fb      0x789 C:\Users\error414\AppData\Local\Temp\ccZeGmcl.debug.temp.o
                0x0003b1fb                hal_pwm_lld.c.0de2d8c0
 .debug_info    0x0003b984     0x1105 C:\Users\error414\AppData\Local\Temp\cccxP53w.debug.temp.o
                0x0003b984                hal_serial_lld.c.e3d7c2f6
 .debug_info    0x0003ca89       0x79 C:\Users\error414\AppData\Local\Temp\ccXIIEVM.debug.temp.o
                0x0003ca89                osal.c.b45dbdd2
 .debug_info    0x0003cb02      0xde3 C:\Users\error414\AppData\Local\Temp\ccY2Dgy2.debug.temp.o
                0x0003cb02                chsys.c.09f397d9
 .debug_info    0x0003d8e5      0x947 C:\Users\error414\AppData\Local\Temp\cczrIsnh.debug.temp.o
                0x0003d8e5                chdebug.c.19d9f0be
 .debug_info    0x0003e22c       0x79 C:\Users\error414\AppData\Local\Temp\ccsbDokw.debug.temp.o
                0x0003e22c                chtrace.c.f4f8431c
 .debug_info    0x0003e2a5      0xc00 C:\Users\error414\AppData\Local\Temp\ccZVBdqL.debug.temp.o
                0x0003e2a5                chvt.c.1301a199
 .debug_info    0x0003eea5      0xd7a C:\Users\error414\AppData\Local\Temp\ccuVCzI3.debug.temp.o
                0x0003eea5                chschd.c.347a9a5b
 .debug_info    0x0003fc1f      0xba4 C:\Users\error414\AppData\Local\Temp\ccFyvmll.debug.temp.o
                0x0003fc1f                chinstances.c.f91ae22c
 .debug_info    0x000407c3     0x1117 C:\Users\error414\AppData\Local\Temp\ccEFk6nC.debug.temp.o
                0x000407c3                chthreads.c.1ab24bd8
 .debug_info    0x000418da      0xb44 C:\Users\error414\AppData\Local\Temp\ccfa6OLT.debug.temp.o
                0x000418da                chtm.c.0ed9d2d9
 .debug_info    0x0004241e      0xae2 C:\Users\error414\AppData\Local\Temp\ccWtQoda.debug.temp.o
                0x0004241e                chregistry.c.5357e456
 .debug_info    0x00042f00      0xbf6 C:\Users\error414\AppData\Local\Temp\ccL3ykSq.debug.temp.o
                0x00042f00                chsem.c.a3413877
 .debug_info    0x00043af6      0xb45 C:\Users\error414\AppData\Local\Temp\ccsJCYPL.debug.temp.o
                0x00043af6                chmtx.c.aae55d99
 .debug_info    0x0004463b      0xb30 C:\Users\error414\AppData\Local\Temp\ccLIC4O5.debug.temp.o
                0x0004463b                chcond.c.efb5c0e3
 .debug_info    0x0004516b      0xd78 C:\Users\error414\AppData\Local\Temp\ccSbz7dp.debug.temp.o
                0x0004516b                chevents.c.3f8c687e
 .debug_info    0x00045ee3      0xa05 C:\Users\error414\AppData\Local\Temp\cclmIu6H.debug.temp.o
                0x00045ee3                chmsg.c.2c318172
 .debug_info    0x000468e8      0xb70 C:\Users\error414\AppData\Local\Temp\ccCGFtf1.debug.temp.o
                0x000468e8                chdynamic.c.3501f3a0
 .debug_info    0x00047458      0xced C:\Users\error414\AppData\Local\Temp\ccvOorzo.debug.temp.o
                0x00047458                chmboxes.c.89ba9821
 .debug_info    0x00048145      0xa37 C:\Users\error414\AppData\Local\Temp\ccIk7WUK.debug.temp.o
                0x00048145                chmemcore.c.9663f2d8
 .debug_info    0x00048b7c      0xade C:\Users\error414\AppData\Local\Temp\ccDBqRu7.debug.temp.o
                0x00048b7c                chmemheaps.c.fff52488
 .debug_info    0x0004965a      0xc31 C:\Users\error414\AppData\Local\Temp\ccEB5jgt.debug.temp.o
                0x0004965a                chmempools.c.e6a6c172
 .debug_info    0x0004a28b      0xb8d C:\Users\error414\AppData\Local\Temp\ccpRWCqO.debug.temp.o
                0x0004a28b                chpipes.c.b5f15442
 .debug_info    0x0004ae18      0xd31 C:\Users\error414\AppData\Local\Temp\ccGVLNJ9.debug.temp.o
                0x0004ae18                chobjcaches.c.0e707a63
 .debug_info    0x0004bb49      0xc14 C:\Users\error414\AppData\Local\Temp\cc5Xlkhz.debug.temp.o
                0x0004bb49                chdelegates.c.f01975ee
 .debug_info    0x0004c75d     0x1367 C:\Users\error414\AppData\Local\Temp\ccuq5W0Y.debug.temp.o
                0x0004c75d                chfactory.c.79941106
 .debug_info    0x0004dac4     0x115d C:\Users\error414\AppData\Local\Temp\ccXeba6n.debug.temp.o
                0x0004dac4                chcore.c.592cbc7d
 .debug_info    0x0004ec21      0x5c2 C:\Users\error414\AppData\Local\Temp\ccuzQhhM.debug.temp.o
                0x0004ec21                chprintf.c.96c1b9f9
 .debug_info    0x0004f1e3      0x4d1 C:\Users\error414\AppData\Local\Temp\cc5F15Z9.debug.temp.o
                0x0004f1e3                chscanf.c.12a6c33e
 .debug_info    0x0004f6b4      0x35a C:\Users\error414\AppData\Local\Temp\ccqcqaCB.debug.temp.o
                0x0004f6b4                memstreams.c.fe477482
 .debug_info    0x0004fa0e      0x2bc C:\Users\error414\AppData\Local\Temp\ccjA36m3.debug.temp.o
                0x0004fa0e                nullstreams.c.7f7c80a7
 .debug_info    0x0004fcca      0x3e2 C:\Users\error414\AppData\Local\Temp\ccCDPUgv.debug.temp.o
                0x0004fcca                bufstreams.c.29f98fd4
 .debug_info    0x000500ac      0xcb5 C:\Users\error414\AppData\Local\Temp\cch8ZsiX.debug.temp.o
                0x000500ac                lv_disp.c.dfc46d94
 .debug_info    0x00050d61      0xda5 C:\Users\error414\AppData\Local\Temp\ccuuhHmo.debug.temp.o
                0x00050d61                lv_group.c.7b8ac079
 .debug_info    0x00051b06     0x18fd C:\Users\error414\AppData\Local\Temp\ccrEqkFP.debug.temp.o
                0x00051b06                lv_indev.c.a34644f5
 .debug_info    0x00053403     0x56cf C:\Users\error414\AppData\Local\Temp\ccUCxP6g.debug.temp.o
                0x00053403                lv_obj.c.aae43860
 .debug_info    0x00058ad2     0x1864 C:\Users\error414\AppData\Local\Temp\ccRe1TzH.debug.temp.o
                0x00058ad2                lv_refr.c.b84a1845
 .debug_info    0x0005a336     0x10f4 C:\Users\error414\AppData\Local\Temp\cc4M2cg8.debug.temp.o
                0x0005a336                lv_style.c.ccd03dad
 .debug_info    0x0005b42a      0xc6f C:\Users\error414\AppData\Local\Temp\cc3Fqw6y.debug.temp.o
                0x0005b42a                lv_draw_arc.c.0af52e51
 .debug_info    0x0005c099     0x1536 C:\Users\error414\AppData\Local\Temp\ccKFixZY.debug.temp.o
                0x0005c099                lv_draw_blend.c.47cc9e00
 .debug_info    0x0005d5cf     0x1d7c C:\Users\error414\AppData\Local\Temp\ccN6yi0o.debug.temp.o
                0x0005d5cf                lv_draw_img.c.3c6235d8
 .debug_info    0x0005f34b     0x1bc3 C:\Users\error414\AppData\Local\Temp\cckjwV9O.debug.temp.o
                0x0005f34b                lv_draw_label.c.8ed75df4
 .debug_info    0x00060f0e     0x16a2 C:\Users\error414\AppData\Local\Temp\ccpnIqsf.debug.temp.o
                0x00060f0e                lv_draw_line.c.1a855e20
 .debug_info    0x000625b0     0x10ff C:\Users\error414\AppData\Local\Temp\ccyNMivJ.debug.temp.o
                0x000625b0                lv_draw_mask.c.c25c7f5b
 .debug_info    0x000636af     0x1cb9 C:\Users\error414\AppData\Local\Temp\ccz92ggc.debug.temp.o
                0x000636af                lv_draw_rect.c.78eb6195
 .debug_info    0x00065368      0x8dc C:\Users\error414\AppData\Local\Temp\ccaqP79E.debug.temp.o
                0x00065368                lv_draw_triangle.c.20f44169
 .debug_info    0x00065c44      0xe00 C:\Users\error414\AppData\Local\Temp\ccFn5hAa.debug.temp.o
                0x00065c44                lv_img_buf.c.c22d850a
 .debug_info    0x00066a44      0x486 C:\Users\error414\AppData\Local\Temp\ccuTXPdG.debug.temp.o
                0x00066a44                lv_img_cache.c.dffae8dc
 .debug_info    0x00066eca      0xc49 C:\Users\error414\AppData\Local\Temp\ccP3aqOa.debug.temp.o
                0x00066eca                lv_img_decoder.c.9da6a5f9
 .debug_info    0x00067b13      0x2fe C:\Users\error414\AppData\Local\Temp\ccUnhUxF.debug.temp.o
                0x00067b13                lv_font.c.261fbd70
 .debug_info    0x00067e11       0x79 C:\Users\error414\AppData\Local\Temp\ccvwlgqa.debug.temp.o
                0x00067e11                lv_font_dejavu_16_persian_hebrew.c.b12a12c9
 .debug_info    0x00067e8a      0xb61 C:\Users\error414\AppData\Local\Temp\ccuFdjwI.debug.temp.o
                0x00067e8a                lv_font_fmt_txt.c.58f669be
 .debug_info    0x000689eb       0x79 C:\Users\error414\AppData\Local\Temp\ccJKDAPg.debug.temp.o
                0x000689eb                lv_font_loader.c.44a2a6e1
 .debug_info    0x00068a64       0x79 C:\Users\error414\AppData\Local\Temp\ccc5lBgP.debug.temp.o
                0x00068a64                lv_font_montserrat_10.c.a3b52637
 .debug_info    0x00068add      0x731 C:\Users\error414\AppData\Local\Temp\ccHYZOFm.debug.temp.o
                0x00068add                lv_font_montserrat_12.c.c065e2ce
 .debug_info    0x0006920e       0x79 C:\Users\error414\AppData\Local\Temp\ccQCJ6uT.debug.temp.o
                0x0006920e                lv_font_montserrat_12_subpx.c.7f8743ff
 .debug_info    0x00069287      0x731 C:\Users\error414\AppData\Local\Temp\ccvF5ZKq.debug.temp.o
                0x00069287                lv_font_montserrat_14.c.98f6f290
 .debug_info    0x000699b8      0x731 C:\Users\error414\AppData\Local\Temp\ccQfgE9X.debug.temp.o
                0x000699b8                lv_font_montserrat_16.c.d4adbac1
 .debug_info    0x0006a0e9       0x79 C:\Users\error414\AppData\Local\Temp\ccfykadz.debug.temp.o
                0x0006a0e9                lv_font_montserrat_18.c.c1d0f62e
 .debug_info    0x0006a162      0x731 C:\Users\error414\AppData\Local\Temp\ccujiSS9.debug.temp.o
                0x0006a162                lv_font_montserrat_20.c.e1f6b440
 .debug_info    0x0006a893       0x79 C:\Users\error414\AppData\Local\Temp\ccBOPNKK.debug.temp.o
                0x0006a893                lv_font_montserrat_22.c.b80becbd
 .debug_info    0x0006a90c       0x79 C:\Users\error414\AppData\Local\Temp\ccSInsGk.debug.temp.o
                0x0006a90c                lv_font_montserrat_24.c.eb1c79a4
 .debug_info    0x0006a985       0x79 C:\Users\error414\AppData\Local\Temp\cc10tPTU.debug.temp.o
                0x0006a985                lv_font_montserrat_26.c.c0551f2e
 .debug_info    0x0006a9fe       0x79 C:\Users\error414\AppData\Local\Temp\cc2uWh4t.debug.temp.o
                0x0006a9fe                lv_font_montserrat_28.c.a8e27ac6
 .debug_info    0x0006aa77       0x79 C:\Users\error414\AppData\Local\Temp\cchSFYr3.debug.temp.o
                0x0006aa77                lv_font_montserrat_28_compressed.c.6d0396f1
 .debug_info    0x0006aaf0      0x731 C:\Users\error414\AppData\Local\Temp\ccUxyy8C.debug.temp.o
                0x0006aaf0                lv_font_montserrat_30.c.72500b74
 .debug_info    0x0006b221       0x79 C:\Users\error414\AppData\Local\Temp\ccFrMQBg.debug.temp.o
                0x0006b221                lv_font_montserrat_32.c.68df200c
 .debug_info    0x0006b29a       0x79 C:\Users\error414\AppData\Local\Temp\ccuFbosU.debug.temp.o
                0x0006b29a                lv_font_montserrat_34.c.6a793635
 .debug_info    0x0006b313       0x79 C:\Users\error414\AppData\Local\Temp\cc32lDlx.debug.temp.o
                0x0006b313                lv_font_montserrat_36.c.ea5a7700
 .debug_info    0x0006b38c      0x731 C:\Users\error414\AppData\Local\Temp\ccK2LZqa.debug.temp.o
                0x0006b38c                lv_font_montserrat_38.c.6996a27f
 .debug_info    0x0006babd       0x79 C:\Users\error414\AppData\Local\Temp\cc1WHeFN.debug.temp.o
                0x0006babd                lv_font_montserrat_40.c.63522b2c
 .debug_info    0x0006bb36      0x733 C:\Users\error414\AppData\Local\Temp\cci1gbXp.debug.temp.o
                0x0006bb36                lv_font_montserrat_42.c.8a2e8ec0
 .debug_info    0x0006c269       0x79 C:\Users\error414\AppData\Local\Temp\ccHlOts2.debug.temp.o
                0x0006c269                lv_font_montserrat_44.c.a3771744
 .debug_info    0x0006c2e2      0x733 C:\Users\error414\AppData\Local\Temp\ccs7Jw5E.debug.temp.o
                0x0006c2e2                lv_font_montserrat_46.c.8182ef29
 .debug_info    0x0006ca15      0x733 C:\Users\error414\AppData\Local\Temp\ccXwU8Kg.debug.temp.o
                0x0006ca15                lv_font_montserrat_48.c.e5fcfef0
 .debug_info    0x0006d148       0x79 C:\Users\error414\AppData\Local\Temp\ccAUP6EW.debug.temp.o
                0x0006d148                lv_font_montserrat_8.c.68ee474a
 .debug_info    0x0006d1c1       0x79 C:\Users\error414\AppData\Local\Temp\ccNmMANC.debug.temp.o
                0x0006d1c1                lv_font_simsun_16_cjk.c.aab23a14
 .debug_info    0x0006d23a       0x79 C:\Users\error414\AppData\Local\Temp\ccOyvEYh.debug.temp.o
                0x0006d23a                lv_font_unscii_16.c.e5110ada
 .debug_info    0x0006d2b3       0x79 C:\Users\error414\AppData\Local\Temp\cc1WfrhX.debug.temp.o
                0x0006d2b3                lv_font_unscii_8.c.5ebaa159
 .debug_info    0x0006d32c      0x707 C:\Users\error414\AppData\Local\Temp\ccKP7VMB.debug.temp.o
                0x0006d32c                montserrat_10medium_1bp.c.ab40af40
 .debug_info    0x0006da33      0x707 C:\Users\error414\AppData\Local\Temp\cc55VpDg.debug.temp.o
                0x0006da33                montserrat_12medium_1bp.c.eebd5244
 .debug_info    0x0006e13a      0x707 C:\Users\error414\AppData\Local\Temp\ccQ1SKCV.debug.temp.o
                0x0006e13a                montserrat_12medium_4bp.c.506d10d2
 .debug_info    0x0006e841      0x707 C:\Users\error414\AppData\Local\Temp\ccBtuiAz.debug.temp.o
                0x0006e841                montserrat_14medium_1bp.c.acc5c4ec
 .debug_info    0x0006ef48      0x707 C:\Users\error414\AppData\Local\Temp\ccajJQHd.debug.temp.o
                0x0006ef48                montserrat_14medium_4bp.c.15caf52a
 .debug_info    0x0006f64f       0x64 C:\Users\error414\AppData\Local\Temp\cc3GAM2R.debug.temp.o
                0x0006f64f                lv_gpu_nxp_pxp.c.32f3fd03
 .debug_info    0x0006f6b3       0x64 C:\Users\error414\AppData\Local\Temp\ccMjes1z.debug.temp.o
                0x0006f6b3                lv_gpu_nxp_pxp_osa.c.29354faa
 .debug_info    0x0006f717       0x64 C:\Users\error414\AppData\Local\Temp\cczsFfTg.debug.temp.o
                0x0006f717                lv_gpu_nxp_vglite.c.f7f7ee8b
 .debug_info    0x0006f77b       0x79 C:\Users\error414\AppData\Local\Temp\ccQit95X.debug.temp.o
                0x0006f77b                lv_gpu_stm32_dma2d.c.4f56bc9f
 .debug_info    0x0006f7f4     0x1256 C:\Users\error414\AppData\Local\Temp\ccRMvClE.debug.temp.o
                0x0006f7f4                lv_hal_disp.c.8c0b06ef
 .debug_info    0x00070a4a     0x1096 C:\Users\error414\AppData\Local\Temp\ccaqSXTk.debug.temp.o
                0x00070a4a                lv_hal_indev.c.b56522d4
 .debug_info    0x00071ae0      0x113 C:\Users\error414\AppData\Local\Temp\ccZRcbB1.debug.temp.o
                0x00071ae0                lv_hal_tick.c.da41f2d2
 .debug_info    0x00071bf3       0x72 C:\Users\error414\AppData\Local\Temp\cci3AC0L.debug.temp.o
                0x00071bf3                lv_anim.c.b1e35aca
 .debug_info    0x00071c65      0x539 C:\Users\error414\AppData\Local\Temp\cczns81v.debug.temp.o
                0x00071c65                lv_area.c.4e6c5695
 .debug_info    0x0007219e      0x261 C:\Users\error414\AppData\Local\Temp\cciqJvcg.debug.temp.o
                0x0007219e                lv_async.c.a1cffa43
 .debug_info    0x000723ff       0x79 C:\Users\error414\AppData\Local\Temp\ccNj15uZ.debug.temp.o
                0x000723ff                lv_bidi.c.42cf8084
 .debug_info    0x00072478      0x4a2 C:\Users\error414\AppData\Local\Temp\ccgCuj4I.debug.temp.o
                0x00072478                lv_color.c.21f03554
 .debug_info    0x0007291a       0x64 C:\Users\error414\AppData\Local\Temp\ccDhNIBr.debug.temp.o
                0x0007291a                lv_debug.c.37e7baa5
 .debug_info    0x0007297e       0x64 C:\Users\error414\AppData\Local\Temp\ccMhs8ia.debug.temp.o
                0x0007297e                lv_fs.c.2c41dcbc
 .debug_info    0x000729e2      0x6dd C:\Users\error414\AppData\Local\Temp\cc7DDUdT.debug.temp.o
                0x000729e2                lv_gc.c.8da04ebd
 .debug_info    0x000730bf      0x4a6 C:\Users\error414\AppData\Local\Temp\ccIioqgC.debug.temp.o
                0x000730bf                lv_ll.c.68fd41e1
 .debug_info    0x00073565       0x64 C:\Users\error414\AppData\Local\Temp\ccrLAOXo.debug.temp.o
                0x00073565                lv_log.c.55d26653
 .debug_info    0x000735c9      0x374 C:\Users\error414\AppData\Local\Temp\ccCAbzTb.debug.temp.o
                0x000735c9                lv_math.c.aa94057e
 .debug_info    0x0007393d      0x7b9 C:\Users\error414\AppData\Local\Temp\ccvwodYY.debug.temp.o
                0x0007393d                lv_mem.c.9993b354
 .debug_info    0x000740f6      0x69a C:\Users\error414\AppData\Local\Temp\cc4vOy5K.debug.temp.o
                0x000740f6                lv_printf.c.7107cb67
 .debug_info    0x00074790      0x4d1 C:\Users\error414\AppData\Local\Temp\ccNEYCkx.debug.temp.o
                0x00074790                lv_task.c.935429d9
 .debug_info    0x00074c61       0x25 C:\Users\error414\AppData\Local\Temp\cc2B6yIj.debug.temp.o
                0x00074c61                lv_templ.c.5b159259
 .debug_info    0x00074c86      0xb09 C:\Users\error414\AppData\Local\Temp\ccJr9Zk6.debug.temp.o
                0x00074c86                lv_txt.c.ef31955f
 .debug_info    0x0007578f       0x79 C:\Users\error414\AppData\Local\Temp\ccKFrf3R.debug.temp.o
                0x0007578f                lv_txt_ap.c.34cc5ee8
 .debug_info    0x00075808      0x1b1 C:\Users\error414\AppData\Local\Temp\cc3o5RYD.debug.temp.o
                0x00075808                lv_utils.c.e6408484
 .debug_info    0x000759b9     0x1094 C:\Users\error414\AppData\Local\Temp\ccoHEHSo.debug.temp.o
                0x000759b9                lv_theme.c.f3ffd691
 .debug_info    0x00076a4d       0x79 C:\Users\error414\AppData\Local\Temp\ccdpTT09.debug.temp.o
                0x00076a4d                lv_theme_empty.c.b61b6174
 .debug_info    0x00076ac6     0x21ef C:\Users\error414\AppData\Local\Temp\ccyV5XhV.debug.temp.o
                0x00076ac6                lv_theme_material.c.49d7fb20
 .debug_info    0x00078cb5     0x1c91 C:\Users\error414\AppData\Local\Temp\ccjBAElK.debug.temp.o
                0x00078cb5                lv_theme_mono.c.a95c7d25
 .debug_info    0x0007a946       0x79 C:\Users\error414\AppData\Local\Temp\ccWKgmzz.debug.temp.o
                0x0007a946                lv_theme_template.c.179c1293
 .debug_info    0x0007a9bf     0x26e2 C:\Users\error414\AppData\Local\Temp\ccTqgUVo.debug.temp.o
                0x0007a9bf                lv_arc.c.d0bc312c
 .debug_info    0x0007d0a1     0x1a23 C:\Users\error414\AppData\Local\Temp\ccUSL8Pd.debug.temp.o
                0x0007d0a1                lv_bar.c.89ded046
 .debug_info    0x0007eac4      0xd76 C:\Users\error414\AppData\Local\Temp\ccHXsbZ1.debug.temp.o
                0x0007eac4                lv_btn.c.d9c55b57
 .debug_info    0x0007f83a     0x29b8 C:\Users\error414\AppData\Local\Temp\cc2zyWkP.debug.temp.o
                0x0007f83a                lv_btnmatrix.c.f641c5fb
 .debug_info    0x000821f2     0x2816 C:\Users\error414\AppData\Local\Temp\ccV3SzPC.debug.temp.o
                0x000821f2                lv_calendar.c.721008ec
 .debug_info    0x00084a08     0x2a5b C:\Users\error414\AppData\Local\Temp\ccOXmjwq.debug.temp.o
                0x00084a08                lv_canvas.c.935afe76
 .debug_info    0x00087463     0x2d4e C:\Users\error414\AppData\Local\Temp\ccft3flh.debug.temp.o
                0x00087463                lv_chart.c.dc34c742
 .debug_info    0x0008a1b1     0x133a C:\Users\error414\AppData\Local\Temp\cc6DS3i8.debug.temp.o
                0x0008a1b1                lv_checkbox.c.03a2efad
 .debug_info    0x0008b4eb     0x161e C:\Users\error414\AppData\Local\Temp\ccRVGqCY.debug.temp.o
                0x0008b4eb                lv_cont.c.f2402a89
 .debug_info    0x0008cb09     0x2907 C:\Users\error414\AppData\Local\Temp\ccsAd7fO.debug.temp.o
                0x0008cb09                lv_cpicker.c.2ea3f1f5
 .debug_info    0x0008f410     0x2e0d C:\Users\error414\AppData\Local\Temp\ccjbi26D.debug.temp.o
                0x0008f410                lv_dropdown.c.e76cb723
 .debug_info    0x0009221d     0x1d61 C:\Users\error414\AppData\Local\Temp\ccgRRcau.debug.temp.o
                0x0009221d                lv_gauge.c.c99f6db3
 .debug_info    0x00093f7e     0x2049 C:\Users\error414\AppData\Local\Temp\ccTGlJWn.debug.temp.o
                0x00093f7e                lv_img.c.d7c5165b
 .debug_info    0x00095fc7     0x1b48 C:\Users\error414\AppData\Local\Temp\ccu5DA3g.debug.temp.o
                0x00095fc7                lv_imgbtn.c.977a2beb
 .debug_info    0x00097b0f       0x64 C:\Users\error414\AppData\Local\Temp\cc5JyRZ9.debug.temp.o
                0x00097b0f                lv_keyboard.c.a50691c2
 .debug_info    0x00097b73     0x227d C:\Users\error414\AppData\Local\Temp\ccsful41.debug.temp.o
                0x00097b73                lv_label.c.a75f7370
 .debug_info    0x00099df0       0x64 C:\Users\error414\AppData\Local\Temp\ccDUdrpU.debug.temp.o
                0x00099df0                lv_led.c.121b34fd
 .debug_info    0x00099e54      0xf83 C:\Users\error414\AppData\Local\Temp\ccwq7nzQ.debug.temp.o
                0x00099e54                lv_line.c.2241450c
 .debug_info    0x0009add7     0x1a37 C:\Users\error414\AppData\Local\Temp\ccr1gwbM.debug.temp.o
                0x0009add7                lv_linemeter.c.e33a2aa1
 .debug_info    0x0009c80e     0x2507 C:\Users\error414\AppData\Local\Temp\ccw5qUaI.debug.temp.o
                0x0009c80e                lv_list.c.9218049d
 .debug_info    0x0009ed15     0x20d6 C:\Users\error414\AppData\Local\Temp\ccjQJJuD.debug.temp.o
                0x0009ed15                lv_msgbox.c.b1164584
 .debug_info    0x000a0deb     0x10dc C:\Users\error414\AppData\Local\Temp\ccavGv5B.debug.temp.o
                0x000a0deb                lv_objmask.c.299e46ed
 .debug_info    0x000a1ec7       0x64 C:\Users\error414\AppData\Local\Temp\cclGW7OA.debug.temp.o
                0x000a1ec7                lv_objx_templ.c.1e368ade
 .debug_info    0x000a1f2b     0x2995 C:\Users\error414\AppData\Local\Temp\ccKurbDA.debug.temp.o
                0x000a1f2b                lv_page.c.5da2e511
 .debug_info    0x000a48c0     0x2adf C:\Users\error414\AppData\Local\Temp\ccXmxV8z.debug.temp.o
                0x000a48c0                lv_roller.c.a7702267
 .debug_info    0x000a739f     0x1a90 C:\Users\error414\AppData\Local\Temp\cc07nUnD.debug.temp.o
                0x000a739f                lv_slider.c.463dea83
 .debug_info    0x000a8e2f     0x1af6 C:\Users\error414\AppData\Local\Temp\ccnhmDKG.debug.temp.o
                0x000a8e2f                lv_spinbox.c.65d1f335
 .debug_info    0x000aa925       0x64 C:\Users\error414\AppData\Local\Temp\cca8DyeJ.debug.temp.o
                0x000aa925                lv_spinner.c.a2b8c033
 .debug_info    0x000aa989     0x1625 C:\Users\error414\AppData\Local\Temp\cczAHRWL.debug.temp.o
                0x000aa989                lv_switch.c.24a7fad1
 .debug_info    0x000abfae     0x21ac C:\Users\error414\AppData\Local\Temp\ccuRI2NO.debug.temp.o
                0x000abfae                lv_table.c.86684484
 .debug_info    0x000ae15a     0x24f9 C:\Users\error414\AppData\Local\Temp\cc91aXlT.debug.temp.o
                0x000ae15a                lv_tabview.c.b0291887
 .debug_info    0x000b0653     0x30fe C:\Users\error414\AppData\Local\Temp\cco78J2X.debug.temp.o
                0x000b0653                lv_textarea.c.aa1b7ca7
 .debug_info    0x000b3751     0x1b58 C:\Users\error414\AppData\Local\Temp\ccjk2zS4.debug.temp.o
                0x000b3751                lv_tileview.c.302ed3fe
 .debug_info    0x000b52a9     0x1c70 C:\Users\error414\AppData\Local\Temp\ccACiFVb.debug.temp.o
                0x000b52a9                lv_win.c.d9cd336d
 .debug_info    0x000b6f19     0x12c2 C:\Users\error414\AppData\Local\Temp\cc59qeVl.debug.temp.o
                0x000b6f19                main.c.8c408a50
 .debug_info    0x000b81db      0xdc5 C:\Users\error414\AppData\Local\Temp\cclbZe3n.debug.temp.o
                0x000b81db                shell.c.1f2dc333
 .debug_info    0x000b8fa0      0xad0 C:\Users\error414\AppData\Local\Temp\ccnpzXdp.debug.temp.o
                0x000b8fa0                shellCmd.c.4548e297
 .debug_info    0x000b9a70      0x4b9 C:\Users\error414\AppData\Local\Temp\ccPWg2Cq.debug.temp.o
                0x000b9a70                board.c.9e0a497e
 .debug_info    0x000b9f29     0x1128 C:\Users\error414\AppData\Local\Temp\ccJIU6as.debug.temp.o
                0x000b9f29                hw.c.bf8ce2d6
 .debug_info    0x000bb051      0x3c5 C:\Users\error414\AppData\Local\Temp\ccPcmjVt.debug.temp.o
                0x000bb051                fc_cloud.c.d021ea9b
 .debug_info    0x000bb416      0x3c5 C:\Users\error414\AppData\Local\Temp\ccP3CHDu.debug.temp.o
                0x000bb416                fc_part_clound.c.b2cfe53b
 .debug_info    0x000bb7db      0x3c5 C:\Users\error414\AppData\Local\Temp\ccfKxAAv.debug.temp.o
                0x000bb7db                fc_rain.c.676a7012
 .debug_info    0x000bbba0      0x3c5 C:\Users\error414\AppData\Local\Temp\ccpQFBiy.debug.temp.o
                0x000bbba0                fc_snow.c.c54a2c39
 .debug_info    0x000bbf65      0x3c4 C:\Users\error414\AppData\Local\Temp\ccPSlRdB.debug.temp.o
                0x000bbf65                humidity36.c.d628e6ac
 .debug_info    0x000bc329      0x3c4 C:\Users\error414\AppData\Local\Temp\ccNKDlRH.debug.temp.o
                0x000bc329                pressure36.c.7703d26f
 .debug_info    0x000bc6ed      0x3c4 C:\Users\error414\AppData\Local\Temp\cc9eNGDO.debug.temp.o
                0x000bc6ed                rain36.c.ba492c19
 .debug_info    0x000bcab1      0x3c4 C:\Users\error414\AppData\Local\Temp\ccduxqEV.debug.temp.o
                0x000bcab1                sun36.c.6406a790
 .debug_info    0x000bce75      0x3c4 C:\Users\error414\AppData\Local\Temp\ccL0CeM1.debug.temp.o
                0x000bce75                temp.c.d4c6d94b
 .debug_info    0x000bd239      0x3c4 C:\Users\error414\AppData\Local\Temp\cctG2vQa.debug.temp.o
                0x000bd239                uv36.c.9c97b822
 .debug_info    0x000bd5fd      0x3c4 C:\Users\error414\AppData\Local\Temp\ccNjfG3j.debug.temp.o
                0x000bd5fd                wind36.c.579e987b
 .debug_info    0x000bd9c1      0x641 C:\Users\error414\AppData\Local\Temp\cc30wxks.debug.temp.o
                0x000bd9c1                digital_16.c.3e6a4861
 .debug_info    0x000be002      0x641 C:\Users\error414\AppData\Local\Temp\ccPC5c0z.debug.temp.o
                0x000be002                digital_20.c.7c7b55b1
 .debug_info    0x000be643      0x641 C:\Users\error414\AppData\Local\Temp\ccb99KOH.debug.temp.o
                0x000be643                digital_48.c.87a37848
 .debug_info    0x000bec84      0x663 C:\Users\error414\AppData\Local\Temp\ccL41FQP.debug.temp.o
                0x000bec84                dogica12.c.9450a0c3
 .debug_info    0x000bf2e7      0x685 C:\Users\error414\AppData\Local\Temp\ccHril0X.debug.temp.o
                0x000bf2e7                omega12.c.945ad534
 .debug_info    0x000bf96c      0x663 C:\Users\error414\AppData\Local\Temp\ccnsNzc5.debug.temp.o
                0x000bf96c                omega16.c.3f95c532
 .debug_info    0x000bffcf      0x663 C:\Users\error414\AppData\Local\Temp\ccDPCRPf.debug.temp.o
                0x000bffcf                omega20.c.e56fffff
 .debug_info    0x000c0632      0x642 C:\Users\error414\AppData\Local\Temp\cc9u1SAq.debug.temp.o
                0x000c0632                press12.c.d27e574b
 .debug_info    0x000c0c74      0x642 C:\Users\error414\AppData\Local\Temp\ccZcw9yB.debug.temp.o
                0x000c0c74                press14.c.73bed5fd
 .debug_info    0x000c12b6      0x642 C:\Users\error414\AppData\Local\Temp\ccx9OpHM.debug.temp.o
                0x000c12b6                press16.c.8d6b71a5
 .debug_info    0x000c18f8      0x663 C:\Users\error414\AppData\Local\Temp\ccL9knSW.debug.temp.o
                0x000c18f8                retro12.c.d7c2182d
 .debug_info    0x000c1f5b      0x663 C:\Users\error414\AppData\Local\Temp\ccFdcec7.debug.temp.o
                0x000c1f5b                retro20.c.1ba0bf5c
 .debug_info    0x000c25be      0x641 C:\Users\error414\AppData\Local\Temp\ccvBEaIh.debug.temp.o
                0x000c25be                upheaval16.c.bbc958eb
 .debug_info    0x000c2bff      0x685 C:\Users\error414\AppData\Local\Temp\ccrEAkcr.debug.temp.o
                0x000c2bff                upheaval20.c.22f05410
 .debug_info    0x000c3284      0x685 C:\Users\error414\AppData\Local\Temp\ccTFZZUA.debug.temp.o
                0x000c3284                upheaval30.c.7824c6da
 .debug_info    0x000c3909      0x685 C:\Users\error414\AppData\Local\Temp\cch1ZKPK.debug.temp.o
                0x000c3909                upheaval48.c.32ed4171
 .debug_info    0x000c3f8e      0x980 C:\Users\error414\AppData\Local\Temp\ccnzbStY.debug.temp.o
                0x000c3f8e                guHeader.c.874677d2
 .debug_info    0x000c490e      0xb6d C:\Users\error414\AppData\Local\Temp\cc5Ewqle.debug.temp.o
                0x000c490e                guiForecast.c.3151de63
 .debug_info    0x000c547b     0x1114 C:\Users\error414\AppData\Local\Temp\ccbp2mqu.debug.temp.o
                0x000c547b                guiMain.c.f6f0aeca
 .debug_info    0x000c658f     0x134d C:\Users\error414\AppData\Local\Temp\ccRbgiFK.debug.temp.o
                0x000c658f                guiOutside.c.ebf914d1
 .debug_info    0x000c78dc      0xd1f C:\Users\error414\AppData\Local\Temp\cct03kv2.debug.temp.o
                0x000c78dc                EPD_7in5_HD.c.80c1e609
 .debug_info    0x000c85fb      0x213 C:\Users\error414\AppData\Local\Temp\cczK3Szk.debug.temp.o
                0x000c85fb                msp.c.b4f68d1e
 .debug_info    0x000c880e     0x190c C:\Users\error414\AppData\Local\Temp\ccvh70GB.debug.temp.o
                0x000c880e                guiThread.c.0862ec5f
 .debug_info    0x000ca11a     0x1432 C:\Users\error414\AppData\Local\Temp\ccF3sSVS.debug.temp.o
                0x000ca11a                hc12Thread.c.3a0fb872
 .debug_info    0x000cb54c      0xa1a C:\Users\error414\AppData\Local\Temp\cc9nr7na.debug.temp.o
                0x000cb54c                mspRxThread.c.b4a5579b
 .debug_info    0x000cbf66      0x35e C:\Users\error414\AppData\Local\Temp\ccPEUGPq.debug.temp.o
                0x000cbf66                pools.c.11579b99
 .debug_info    0x000cc2c4       0x26 CMakeFiles/stm32-chibios.dir/C_/Users/error414/Documents/STM32/meteo-F4/ChibiOS/os/common/startup/ARMCMx/compilers/GCC/crt0_v7m.S.obj
 .debug_info    0x000cc2ea       0x26 CMakeFiles/stm32-chibios.dir/C_/Users/error414/Documents/STM32/meteo-F4/ChibiOS/os/common/startup/ARMCMx/compilers/GCC/vectors.S.obj
 .debug_info    0x000cc310       0x26 CMakeFiles/stm32-chibios.dir/C_/Users/error414/Documents/STM32/meteo-F4/ChibiOS/os/common/ports/ARMv7-M/compilers/GCC/chcoreasm.S.obj

.debug_abbrev   0x00000000    0x14dc0
 .debug_abbrev  0x00000000      0x2b3 C:\Users\error414\AppData\Local\Temp\stm32-chibios.c1tKpx.ltrans0.ltrans.o
 .debug_abbrev  0x000002b3      0x219 C:\Users\error414\AppData\Local\Temp\stm32-chibios.c1tKpx.ltrans1.ltrans.o
 .debug_abbrev  0x000004cc      0x1fd C:\Users\error414\AppData\Local\Temp\stm32-chibios.c1tKpx.ltrans2.ltrans.o
 .debug_abbrev  0x000006c9      0x1b3 C:\Users\error414\AppData\Local\Temp\stm32-chibios.c1tKpx.ltrans3.ltrans.o
 .debug_abbrev  0x0000087c       0xe5 C:\Users\error414\AppData\Local\Temp\ccTMTdwX.debug.temp.o
 .debug_abbrev  0x00000961       0x46 C:\Users\error414\AppData\Local\Temp\cc4XNc53.debug.temp.o
 .debug_abbrev  0x000009a7      0x13b C:\Users\error414\AppData\Local\Temp\ccBKBzRa.debug.temp.o
 .debug_abbrev  0x00000ae2      0x235 C:\Users\error414\AppData\Local\Temp\ccs3IMMh.debug.temp.o
 .debug_abbrev  0x00000d17      0x248 C:\Users\error414\AppData\Local\Temp\ccfSnk2n.debug.temp.o
 .debug_abbrev  0x00000f5f      0x13e C:\Users\error414\AppData\Local\Temp\ccSdgPHt.debug.temp.o
 .debug_abbrev  0x0000109d       0x26 C:\Users\error414\AppData\Local\Temp\ccNM8uvC.debug.temp.o
 .debug_abbrev  0x000010c3      0x229 C:\Users\error414\AppData\Local\Temp\ccABnNzL.debug.temp.o
 .debug_abbrev  0x000012ec      0x13c C:\Users\error414\AppData\Local\Temp\ccDwFXWU.debug.temp.o
 .debug_abbrev  0x00001428      0x1e4 C:\Users\error414\AppData\Local\Temp\ccgmlOm3.debug.temp.o
 .debug_abbrev  0x0000160c      0x251 C:\Users\error414\AppData\Local\Temp\ccf7SgUb.debug.temp.o
 .debug_abbrev  0x0000185d      0x238 C:\Users\error414\AppData\Local\Temp\ccCwB7Ek.debug.temp.o
 .debug_abbrev  0x00001a95      0x130 C:\Users\error414\AppData\Local\Temp\ccfYmjps.debug.temp.o
 .debug_abbrev  0x00001bc5      0x1da C:\Users\error414\AppData\Local\Temp\ccM04ECD.debug.temp.o
 .debug_abbrev  0x00001d9f      0x12d C:\Users\error414\AppData\Local\Temp\ccfT0fJN.debug.temp.o
 .debug_abbrev  0x00001ecc       0x26 C:\Users\error414\AppData\Local\Temp\cca0862X.debug.temp.o
 .debug_abbrev  0x00001ef2      0x23c C:\Users\error414\AppData\Local\Temp\cclpQHu8.debug.temp.o
 .debug_abbrev  0x0000212e       0x26 C:\Users\error414\AppData\Local\Temp\ccuhVuUh.debug.temp.o
 .debug_abbrev  0x00002154      0x194 C:\Users\error414\AppData\Local\Temp\cchAH0Mv.debug.temp.o
 .debug_abbrev  0x000022e8      0x2c4 C:\Users\error414\AppData\Local\Temp\cca4hI7I.debug.temp.o
 .debug_abbrev  0x000025ac      0x245 C:\Users\error414\AppData\Local\Temp\cctnEYEV.debug.temp.o
 .debug_abbrev  0x000027f1      0x137 C:\Users\error414\AppData\Local\Temp\cc87oZj8.debug.temp.o
 .debug_abbrev  0x00002928      0x157 C:\Users\error414\AppData\Local\Temp\ccZeGmcl.debug.temp.o
 .debug_abbrev  0x00002a7f      0x251 C:\Users\error414\AppData\Local\Temp\cccxP53w.debug.temp.o
 .debug_abbrev  0x00002cd0       0x26 C:\Users\error414\AppData\Local\Temp\ccXIIEVM.debug.temp.o
 .debug_abbrev  0x00002cf6      0x2ff C:\Users\error414\AppData\Local\Temp\ccY2Dgy2.debug.temp.o
 .debug_abbrev  0x00002ff5      0x179 C:\Users\error414\AppData\Local\Temp\cczrIsnh.debug.temp.o
 .debug_abbrev  0x0000316e       0x26 C:\Users\error414\AppData\Local\Temp\ccsbDokw.debug.temp.o
 .debug_abbrev  0x00003194      0x286 C:\Users\error414\AppData\Local\Temp\ccZVBdqL.debug.temp.o
 .debug_abbrev  0x0000341a      0x235 C:\Users\error414\AppData\Local\Temp\ccuVCzI3.debug.temp.o
 .debug_abbrev  0x0000364f      0x23a C:\Users\error414\AppData\Local\Temp\ccFyvmll.debug.temp.o
 .debug_abbrev  0x00003889      0x29b C:\Users\error414\AppData\Local\Temp\ccEFk6nC.debug.temp.o
 .debug_abbrev  0x00003b24      0x1a7 C:\Users\error414\AppData\Local\Temp\ccfa6OLT.debug.temp.o
 .debug_abbrev  0x00003ccb      0x232 C:\Users\error414\AppData\Local\Temp\ccWtQoda.debug.temp.o
 .debug_abbrev  0x00003efd      0x269 C:\Users\error414\AppData\Local\Temp\ccL3ykSq.debug.temp.o
 .debug_abbrev  0x00004166      0x256 C:\Users\error414\AppData\Local\Temp\ccsJCYPL.debug.temp.o
 .debug_abbrev  0x000043bc      0x258 C:\Users\error414\AppData\Local\Temp\ccLIC4O5.debug.temp.o
 .debug_abbrev  0x00004614      0x250 C:\Users\error414\AppData\Local\Temp\ccSbz7dp.debug.temp.o
 .debug_abbrev  0x00004864      0x22d C:\Users\error414\AppData\Local\Temp\cclmIu6H.debug.temp.o
 .debug_abbrev  0x00004a91      0x1e0 C:\Users\error414\AppData\Local\Temp\ccCGFtf1.debug.temp.o
 .debug_abbrev  0x00004c71      0x20d C:\Users\error414\AppData\Local\Temp\ccvOorzo.debug.temp.o
 .debug_abbrev  0x00004e7e      0x1ff C:\Users\error414\AppData\Local\Temp\ccIk7WUK.debug.temp.o
 .debug_abbrev  0x0000507d      0x229 C:\Users\error414\AppData\Local\Temp\ccDBqRu7.debug.temp.o
 .debug_abbrev  0x000052a6      0x23f C:\Users\error414\AppData\Local\Temp\ccEB5jgt.debug.temp.o
 .debug_abbrev  0x000054e5      0x1fd C:\Users\error414\AppData\Local\Temp\ccpRWCqO.debug.temp.o
 .debug_abbrev  0x000056e2      0x242 C:\Users\error414\AppData\Local\Temp\ccGVLNJ9.debug.temp.o
 .debug_abbrev  0x00005924      0x225 C:\Users\error414\AppData\Local\Temp\cc5Xlkhz.debug.temp.o
 .debug_abbrev  0x00005b49      0x23e C:\Users\error414\AppData\Local\Temp\ccuq5W0Y.debug.temp.o
 .debug_abbrev  0x00005d87      0x23e C:\Users\error414\AppData\Local\Temp\ccXeba6n.debug.temp.o
 .debug_abbrev  0x00005fc5      0x1a6 C:\Users\error414\AppData\Local\Temp\ccuzQhhM.debug.temp.o
 .debug_abbrev  0x0000616b      0x19a C:\Users\error414\AppData\Local\Temp\cc5F15Z9.debug.temp.o
 .debug_abbrev  0x00006305      0x104 C:\Users\error414\AppData\Local\Temp\ccqcqaCB.debug.temp.o
 .debug_abbrev  0x00006409      0x108 C:\Users\error414\AppData\Local\Temp\ccjA36m3.debug.temp.o
 .debug_abbrev  0x00006511      0x125 C:\Users\error414\AppData\Local\Temp\ccCDPUgv.debug.temp.o
 .debug_abbrev  0x00006636      0x265 C:\Users\error414\AppData\Local\Temp\cch8ZsiX.debug.temp.o
 .debug_abbrev  0x0000689b      0x210 C:\Users\error414\AppData\Local\Temp\ccuuhHmo.debug.temp.o
 .debug_abbrev  0x00006aab      0x2df C:\Users\error414\AppData\Local\Temp\ccrEqkFP.debug.temp.o
 .debug_abbrev  0x00006d8a      0x328 C:\Users\error414\AppData\Local\Temp\ccUCxP6g.debug.temp.o
 .debug_abbrev  0x000070b2      0x2cd C:\Users\error414\AppData\Local\Temp\ccRe1TzH.debug.temp.o
 .debug_abbrev  0x0000737f      0x224 C:\Users\error414\AppData\Local\Temp\cc4M2cg8.debug.temp.o
 .debug_abbrev  0x000075a3      0x20e C:\Users\error414\AppData\Local\Temp\cc3Fqw6y.debug.temp.o
 .debug_abbrev  0x000077b1      0x2a0 C:\Users\error414\AppData\Local\Temp\ccKFixZY.debug.temp.o
 .debug_abbrev  0x00007a51      0x2b3 C:\Users\error414\AppData\Local\Temp\ccN6yi0o.debug.temp.o
 .debug_abbrev  0x00007d04      0x2b6 C:\Users\error414\AppData\Local\Temp\cckjwV9O.debug.temp.o
 .debug_abbrev  0x00007fba      0x273 C:\Users\error414\AppData\Local\Temp\ccpnIqsf.debug.temp.o
 .debug_abbrev  0x0000822d      0x23b C:\Users\error414\AppData\Local\Temp\ccyNMivJ.debug.temp.o
 .debug_abbrev  0x00008468      0x2b3 C:\Users\error414\AppData\Local\Temp\ccz92ggc.debug.temp.o
 .debug_abbrev  0x0000871b      0x1a6 C:\Users\error414\AppData\Local\Temp\ccaqP79E.debug.temp.o
 .debug_abbrev  0x000088c1      0x24f C:\Users\error414\AppData\Local\Temp\ccFn5hAa.debug.temp.o
 .debug_abbrev  0x00008b10      0x1b1 C:\Users\error414\AppData\Local\Temp\ccuTXPdG.debug.temp.o
 .debug_abbrev  0x00008cc1      0x27b C:\Users\error414\AppData\Local\Temp\ccP3aqOa.debug.temp.o
 .debug_abbrev  0x00008f3c       0xfd C:\Users\error414\AppData\Local\Temp\ccUnhUxF.debug.temp.o
 .debug_abbrev  0x00009039       0x26 C:\Users\error414\AppData\Local\Temp\ccvwlgqa.debug.temp.o
 .debug_abbrev  0x0000905f      0x1e7 C:\Users\error414\AppData\Local\Temp\ccuFdjwI.debug.temp.o
 .debug_abbrev  0x00009246       0x26 C:\Users\error414\AppData\Local\Temp\ccJKDAPg.debug.temp.o
 .debug_abbrev  0x0000926c       0x26 C:\Users\error414\AppData\Local\Temp\ccc5lBgP.debug.temp.o
 .debug_abbrev  0x00009292      0x148 C:\Users\error414\AppData\Local\Temp\ccHYZOFm.debug.temp.o
 .debug_abbrev  0x000093da       0x26 C:\Users\error414\AppData\Local\Temp\ccQCJ6uT.debug.temp.o
 .debug_abbrev  0x00009400      0x148 C:\Users\error414\AppData\Local\Temp\ccvF5ZKq.debug.temp.o
 .debug_abbrev  0x00009548      0x148 C:\Users\error414\AppData\Local\Temp\ccQfgE9X.debug.temp.o
 .debug_abbrev  0x00009690       0x26 C:\Users\error414\AppData\Local\Temp\ccfykadz.debug.temp.o
 .debug_abbrev  0x000096b6      0x148 C:\Users\error414\AppData\Local\Temp\ccujiSS9.debug.temp.o
 .debug_abbrev  0x000097fe       0x26 C:\Users\error414\AppData\Local\Temp\ccBOPNKK.debug.temp.o
 .debug_abbrev  0x00009824       0x26 C:\Users\error414\AppData\Local\Temp\ccSInsGk.debug.temp.o
 .debug_abbrev  0x0000984a       0x26 C:\Users\error414\AppData\Local\Temp\cc10tPTU.debug.temp.o
 .debug_abbrev  0x00009870       0x26 C:\Users\error414\AppData\Local\Temp\cc2uWh4t.debug.temp.o
 .debug_abbrev  0x00009896       0x26 C:\Users\error414\AppData\Local\Temp\cchSFYr3.debug.temp.o
 .debug_abbrev  0x000098bc      0x148 C:\Users\error414\AppData\Local\Temp\ccUxyy8C.debug.temp.o
 .debug_abbrev  0x00009a04       0x26 C:\Users\error414\AppData\Local\Temp\ccFrMQBg.debug.temp.o
 .debug_abbrev  0x00009a2a       0x26 C:\Users\error414\AppData\Local\Temp\ccuFbosU.debug.temp.o
 .debug_abbrev  0x00009a50       0x26 C:\Users\error414\AppData\Local\Temp\cc32lDlx.debug.temp.o
 .debug_abbrev  0x00009a76      0x148 C:\Users\error414\AppData\Local\Temp\ccK2LZqa.debug.temp.o
 .debug_abbrev  0x00009bbe       0x26 C:\Users\error414\AppData\Local\Temp\cc1WHeFN.debug.temp.o
 .debug_abbrev  0x00009be4      0x151 C:\Users\error414\AppData\Local\Temp\cci1gbXp.debug.temp.o
 .debug_abbrev  0x00009d35       0x26 C:\Users\error414\AppData\Local\Temp\ccHlOts2.debug.temp.o
 .debug_abbrev  0x00009d5b      0x151 C:\Users\error414\AppData\Local\Temp\ccs7Jw5E.debug.temp.o
 .debug_abbrev  0x00009eac      0x151 C:\Users\error414\AppData\Local\Temp\ccXwU8Kg.debug.temp.o
 .debug_abbrev  0x00009ffd       0x26 C:\Users\error414\AppData\Local\Temp\ccAUP6EW.debug.temp.o
 .debug_abbrev  0x0000a023       0x26 C:\Users\error414\AppData\Local\Temp\ccNmMANC.debug.temp.o
 .debug_abbrev  0x0000a049       0x26 C:\Users\error414\AppData\Local\Temp\ccOyvEYh.debug.temp.o
 .debug_abbrev  0x0000a06f       0x26 C:\Users\error414\AppData\Local\Temp\cc1WfrhX.debug.temp.o
 .debug_abbrev  0x0000a095      0x139 C:\Users\error414\AppData\Local\Temp\ccKP7VMB.debug.temp.o
 .debug_abbrev  0x0000a1ce      0x139 C:\Users\error414\AppData\Local\Temp\cc55VpDg.debug.temp.o
 .debug_abbrev  0x0000a307      0x139 C:\Users\error414\AppData\Local\Temp\ccQ1SKCV.debug.temp.o
 .debug_abbrev  0x0000a440      0x139 C:\Users\error414\AppData\Local\Temp\ccBtuiAz.debug.temp.o
 .debug_abbrev  0x0000a579      0x139 C:\Users\error414\AppData\Local\Temp\ccajJQHd.debug.temp.o
 .debug_abbrev  0x0000a6b2       0x26 C:\Users\error414\AppData\Local\Temp\cc3GAM2R.debug.temp.o
 .debug_abbrev  0x0000a6d8       0x26 C:\Users\error414\AppData\Local\Temp\ccMjes1z.debug.temp.o
 .debug_abbrev  0x0000a6fe       0x26 C:\Users\error414\AppData\Local\Temp\cczsFfTg.debug.temp.o
 .debug_abbrev  0x0000a724       0x26 C:\Users\error414\AppData\Local\Temp\ccQit95X.debug.temp.o
 .debug_abbrev  0x0000a74a      0x2a9 C:\Users\error414\AppData\Local\Temp\ccRMvClE.debug.temp.o
 .debug_abbrev  0x0000a9f3      0x21a C:\Users\error414\AppData\Local\Temp\ccaqSXTk.debug.temp.o
 .debug_abbrev  0x0000ac0d       0x80 C:\Users\error414\AppData\Local\Temp\ccZRcbB1.debug.temp.o
 .debug_abbrev  0x0000ac8d       0x26 C:\Users\error414\AppData\Local\Temp\cci3AC0L.debug.temp.o
 .debug_abbrev  0x0000acb3      0x16b C:\Users\error414\AppData\Local\Temp\cczns81v.debug.temp.o
 .debug_abbrev  0x0000ae1e       0xfd C:\Users\error414\AppData\Local\Temp\cciqJvcg.debug.temp.o
 .debug_abbrev  0x0000af1b       0x26 C:\Users\error414\AppData\Local\Temp\ccNj15uZ.debug.temp.o
 .debug_abbrev  0x0000af41      0x1ea C:\Users\error414\AppData\Local\Temp\ccgCuj4I.debug.temp.o
 .debug_abbrev  0x0000b12b       0x26 C:\Users\error414\AppData\Local\Temp\ccDhNIBr.debug.temp.o
 .debug_abbrev  0x0000b151       0x26 C:\Users\error414\AppData\Local\Temp\ccMhs8ia.debug.temp.o
 .debug_abbrev  0x0000b177      0x185 C:\Users\error414\AppData\Local\Temp\cc7DDUdT.debug.temp.o
 .debug_abbrev  0x0000b2fc      0x151 C:\Users\error414\AppData\Local\Temp\ccIioqgC.debug.temp.o
 .debug_abbrev  0x0000b44d       0x26 C:\Users\error414\AppData\Local\Temp\ccrLAOXo.debug.temp.o
 .debug_abbrev  0x0000b473       0xee C:\Users\error414\AppData\Local\Temp\ccCAbzTb.debug.temp.o
 .debug_abbrev  0x0000b561      0x200 C:\Users\error414\AppData\Local\Temp\ccvwodYY.debug.temp.o
 .debug_abbrev  0x0000b761      0x16e C:\Users\error414\AppData\Local\Temp\cc4vOy5K.debug.temp.o
 .debug_abbrev  0x0000b8cf      0x1c1 C:\Users\error414\AppData\Local\Temp\ccNEYCkx.debug.temp.o
 .debug_abbrev  0x0000ba90       0x1b C:\Users\error414\AppData\Local\Temp\cc2B6yIj.debug.temp.o
 .debug_abbrev  0x0000baab      0x21c C:\Users\error414\AppData\Local\Temp\ccJr9Zk6.debug.temp.o
 .debug_abbrev  0x0000bcc7       0x26 C:\Users\error414\AppData\Local\Temp\ccKFrf3R.debug.temp.o
 .debug_abbrev  0x0000bced       0xd3 C:\Users\error414\AppData\Local\Temp\cc3o5RYD.debug.temp.o
 .debug_abbrev  0x0000bdc0      0x1d7 C:\Users\error414\AppData\Local\Temp\ccoHEHSo.debug.temp.o
 .debug_abbrev  0x0000bf97       0x26 C:\Users\error414\AppData\Local\Temp\ccdpTT09.debug.temp.o
 .debug_abbrev  0x0000bfbd      0x243 C:\Users\error414\AppData\Local\Temp\ccyV5XhV.debug.temp.o
 .debug_abbrev  0x0000c200      0x23a C:\Users\error414\AppData\Local\Temp\ccjBAElK.debug.temp.o
 .debug_abbrev  0x0000c43a       0x26 C:\Users\error414\AppData\Local\Temp\ccWKgmzz.debug.temp.o
 .debug_abbrev  0x0000c460      0x2f5 C:\Users\error414\AppData\Local\Temp\ccTqgUVo.debug.temp.o
 .debug_abbrev  0x0000c755      0x2a1 C:\Users\error414\AppData\Local\Temp\ccUSL8Pd.debug.temp.o
 .debug_abbrev  0x0000c9f6      0x1ec C:\Users\error414\AppData\Local\Temp\ccHXsbZ1.debug.temp.o
 .debug_abbrev  0x0000cbe2      0x306 C:\Users\error414\AppData\Local\Temp\cc2zyWkP.debug.temp.o
 .debug_abbrev  0x0000cee8      0x306 C:\Users\error414\AppData\Local\Temp\ccV3SzPC.debug.temp.o
 .debug_abbrev  0x0000d1ee      0x2d1 C:\Users\error414\AppData\Local\Temp\ccOXmjwq.debug.temp.o
 .debug_abbrev  0x0000d4bf      0x2cf C:\Users\error414\AppData\Local\Temp\ccft3flh.debug.temp.o
 .debug_abbrev  0x0000d78e      0x21f C:\Users\error414\AppData\Local\Temp\cc6DS3i8.debug.temp.o
 .debug_abbrev  0x0000d9ad      0x226 C:\Users\error414\AppData\Local\Temp\ccRVGqCY.debug.temp.o
 .debug_abbrev  0x0000dbd3      0x317 C:\Users\error414\AppData\Local\Temp\ccsAd7fO.debug.temp.o
 .debug_abbrev  0x0000deea      0x319 C:\Users\error414\AppData\Local\Temp\ccjbi26D.debug.temp.o
 .debug_abbrev  0x0000e203      0x2bf C:\Users\error414\AppData\Local\Temp\ccgRRcau.debug.temp.o
 .debug_abbrev  0x0000e4c2      0x292 C:\Users\error414\AppData\Local\Temp\ccTGlJWn.debug.temp.o
 .debug_abbrev  0x0000e754      0x26f C:\Users\error414\AppData\Local\Temp\ccu5DA3g.debug.temp.o
 .debug_abbrev  0x0000e9c3       0x26 C:\Users\error414\AppData\Local\Temp\cc5JyRZ9.debug.temp.o
 .debug_abbrev  0x0000e9e9      0x2fa C:\Users\error414\AppData\Local\Temp\ccsful41.debug.temp.o
 .debug_abbrev  0x0000ece3       0x26 C:\Users\error414\AppData\Local\Temp\ccDUdrpU.debug.temp.o
 .debug_abbrev  0x0000ed09      0x22f C:\Users\error414\AppData\Local\Temp\ccwq7nzQ.debug.temp.o
 .debug_abbrev  0x0000ef38      0x272 C:\Users\error414\AppData\Local\Temp\ccr1gwbM.debug.temp.o
 .debug_abbrev  0x0000f1aa      0x2f5 C:\Users\error414\AppData\Local\Temp\ccw5qUaI.debug.temp.o
 .debug_abbrev  0x0000f49f      0x327 C:\Users\error414\AppData\Local\Temp\ccjQJJuD.debug.temp.o
 .debug_abbrev  0x0000f7c6      0x1ce C:\Users\error414\AppData\Local\Temp\ccavGv5B.debug.temp.o
 .debug_abbrev  0x0000f994       0x26 C:\Users\error414\AppData\Local\Temp\cclGW7OA.debug.temp.o
 .debug_abbrev  0x0000f9ba      0x306 C:\Users\error414\AppData\Local\Temp\ccKurbDA.debug.temp.o
 .debug_abbrev  0x0000fcc0      0x319 C:\Users\error414\AppData\Local\Temp\ccXmxV8z.debug.temp.o
 .debug_abbrev  0x0000ffd9      0x279 C:\Users\error414\AppData\Local\Temp\cc07nUnD.debug.temp.o
 .debug_abbrev  0x00010252      0x2d1 C:\Users\error414\AppData\Local\Temp\ccnhmDKG.debug.temp.o
 .debug_abbrev  0x00010523       0x26 C:\Users\error414\AppData\Local\Temp\cca8DyeJ.debug.temp.o
 .debug_abbrev  0x00010549      0x26a C:\Users\error414\AppData\Local\Temp\cczAHRWL.debug.temp.o
 .debug_abbrev  0x000107b3      0x2e7 C:\Users\error414\AppData\Local\Temp\ccuRI2NO.debug.temp.o
 .debug_abbrev  0x00010a9a      0x2f3 C:\Users\error414\AppData\Local\Temp\cc91aXlT.debug.temp.o
 .debug_abbrev  0x00010d8d      0x319 C:\Users\error414\AppData\Local\Temp\cco78J2X.debug.temp.o
 .debug_abbrev  0x000110a6      0x2d1 C:\Users\error414\AppData\Local\Temp\ccjk2zS4.debug.temp.o
 .debug_abbrev  0x00011377      0x2b4 C:\Users\error414\AppData\Local\Temp\ccACiFVb.debug.temp.o
 .debug_abbrev  0x0001162b      0x1b3 C:\Users\error414\AppData\Local\Temp\cc59qeVl.debug.temp.o
 .debug_abbrev  0x000117de      0x274 C:\Users\error414\AppData\Local\Temp\cclbZe3n.debug.temp.o
 .debug_abbrev  0x00011a52      0x19b C:\Users\error414\AppData\Local\Temp\ccnpzXdp.debug.temp.o
 .debug_abbrev  0x00011bed      0x14d C:\Users\error414\AppData\Local\Temp\ccPWg2Cq.debug.temp.o
 .debug_abbrev  0x00011d3a      0x1b1 C:\Users\error414\AppData\Local\Temp\ccJIU6as.debug.temp.o
 .debug_abbrev  0x00011eeb       0xd2 C:\Users\error414\AppData\Local\Temp\ccPcmjVt.debug.temp.o
 .debug_abbrev  0x00011fbd       0xd2 C:\Users\error414\AppData\Local\Temp\ccP3CHDu.debug.temp.o
 .debug_abbrev  0x0001208f       0xd2 C:\Users\error414\AppData\Local\Temp\ccfKxAAv.debug.temp.o
 .debug_abbrev  0x00012161       0xd2 C:\Users\error414\AppData\Local\Temp\ccpQFBiy.debug.temp.o
 .debug_abbrev  0x00012233       0xd2 C:\Users\error414\AppData\Local\Temp\ccPSlRdB.debug.temp.o
 .debug_abbrev  0x00012305       0xd2 C:\Users\error414\AppData\Local\Temp\ccNKDlRH.debug.temp.o
 .debug_abbrev  0x000123d7       0xd2 C:\Users\error414\AppData\Local\Temp\cc9eNGDO.debug.temp.o
 .debug_abbrev  0x000124a9       0xd2 C:\Users\error414\AppData\Local\Temp\ccduxqEV.debug.temp.o
 .debug_abbrev  0x0001257b       0xd2 C:\Users\error414\AppData\Local\Temp\ccL0CeM1.debug.temp.o
 .debug_abbrev  0x0001264d       0xd2 C:\Users\error414\AppData\Local\Temp\cctG2vQa.debug.temp.o
 .debug_abbrev  0x0001271f       0xd2 C:\Users\error414\AppData\Local\Temp\ccNjfG3j.debug.temp.o
 .debug_abbrev  0x000127f1      0x139 C:\Users\error414\AppData\Local\Temp\cc30wxks.debug.temp.o
 .debug_abbrev  0x0001292a      0x139 C:\Users\error414\AppData\Local\Temp\ccPC5c0z.debug.temp.o
 .debug_abbrev  0x00012a63      0x139 C:\Users\error414\AppData\Local\Temp\ccb99KOH.debug.temp.o
 .debug_abbrev  0x00012b9c      0x139 C:\Users\error414\AppData\Local\Temp\ccL41FQP.debug.temp.o
 .debug_abbrev  0x00012cd5      0x139 C:\Users\error414\AppData\Local\Temp\ccHril0X.debug.temp.o
 .debug_abbrev  0x00012e0e      0x139 C:\Users\error414\AppData\Local\Temp\ccnsNzc5.debug.temp.o
 .debug_abbrev  0x00012f47      0x139 C:\Users\error414\AppData\Local\Temp\ccDPCRPf.debug.temp.o
 .debug_abbrev  0x00013080      0x139 C:\Users\error414\AppData\Local\Temp\cc9u1SAq.debug.temp.o
 .debug_abbrev  0x000131b9      0x139 C:\Users\error414\AppData\Local\Temp\ccZcw9yB.debug.temp.o
 .debug_abbrev  0x000132f2      0x139 C:\Users\error414\AppData\Local\Temp\ccx9OpHM.debug.temp.o
 .debug_abbrev  0x0001342b      0x139 C:\Users\error414\AppData\Local\Temp\ccL9knSW.debug.temp.o
 .debug_abbrev  0x00013564      0x139 C:\Users\error414\AppData\Local\Temp\ccFdcec7.debug.temp.o
 .debug_abbrev  0x0001369d      0x139 C:\Users\error414\AppData\Local\Temp\ccvBEaIh.debug.temp.o
 .debug_abbrev  0x000137d6      0x139 C:\Users\error414\AppData\Local\Temp\ccrEAkcr.debug.temp.o
 .debug_abbrev  0x0001390f      0x139 C:\Users\error414\AppData\Local\Temp\ccTFZZUA.debug.temp.o
 .debug_abbrev  0x00013a48      0x139 C:\Users\error414\AppData\Local\Temp\cch1ZKPK.debug.temp.o
 .debug_abbrev  0x00013b81      0x157 C:\Users\error414\AppData\Local\Temp\ccnzbStY.debug.temp.o
 .debug_abbrev  0x00013cd8      0x17d C:\Users\error414\AppData\Local\Temp\cc5Ewqle.debug.temp.o
 .debug_abbrev  0x00013e55      0x207 C:\Users\error414\AppData\Local\Temp\ccbp2mqu.debug.temp.o
 .debug_abbrev  0x0001405c      0x1fa C:\Users\error414\AppData\Local\Temp\ccRbgiFK.debug.temp.o
 .debug_abbrev  0x00014256      0x1f5 C:\Users\error414\AppData\Local\Temp\cct03kv2.debug.temp.o
 .debug_abbrev  0x0001444b       0xef C:\Users\error414\AppData\Local\Temp\cczK3Szk.debug.temp.o
 .debug_abbrev  0x0001453a      0x286 C:\Users\error414\AppData\Local\Temp\ccvh70GB.debug.temp.o
 .debug_abbrev  0x000147c0      0x2b6 C:\Users\error414\AppData\Local\Temp\ccF3sSVS.debug.temp.o
 .debug_abbrev  0x00014a76      0x1cf C:\Users\error414\AppData\Local\Temp\cc9nr7na.debug.temp.o
 .debug_abbrev  0x00014c45      0x13f C:\Users\error414\AppData\Local\Temp\ccPEUGPq.debug.temp.o
 .debug_abbrev  0x00014d84       0x14 CMakeFiles/stm32-chibios.dir/C_/Users/error414/Documents/STM32/meteo-F4/ChibiOS/os/common/startup/ARMCMx/compilers/GCC/crt0_v7m.S.obj
 .debug_abbrev  0x00014d98       0x14 CMakeFiles/stm32-chibios.dir/C_/Users/error414/Documents/STM32/meteo-F4/ChibiOS/os/common/startup/ARMCMx/compilers/GCC/vectors.S.obj
 .debug_abbrev  0x00014dac       0x14 CMakeFiles/stm32-chibios.dir/C_/Users/error414/Documents/STM32/meteo-F4/ChibiOS/os/common/ports/ARMv7-M/compilers/GCC/chcoreasm.S.obj

.debug_loc      0x00000000    0x31621
 .debug_loc     0x00000000    0x10e98 C:\Users\error414\AppData\Local\Temp\stm32-chibios.c1tKpx.ltrans0.ltrans.o
 .debug_loc     0x00010e98    0x10801 C:\Users\error414\AppData\Local\Temp\stm32-chibios.c1tKpx.ltrans1.ltrans.o
 .debug_loc     0x00021699     0xc794 C:\Users\error414\AppData\Local\Temp\stm32-chibios.c1tKpx.ltrans2.ltrans.o
 .debug_loc     0x0002de2d     0x37f4 C:\Users\error414\AppData\Local\Temp\stm32-chibios.c1tKpx.ltrans3.ltrans.o

.debug_aranges  0x00000000     0x1470
 .debug_aranges
                0x00000000      0xa50 C:\Users\error414\AppData\Local\Temp\stm32-chibios.c1tKpx.ltrans0.ltrans.o
 .debug_aranges
                0x00000a50      0x370 C:\Users\error414\AppData\Local\Temp\stm32-chibios.c1tKpx.ltrans1.ltrans.o
 .debug_aranges
                0x00000dc0      0x3e8 C:\Users\error414\AppData\Local\Temp\stm32-chibios.c1tKpx.ltrans2.ltrans.o
 .debug_aranges
                0x000011a8      0x268 C:\Users\error414\AppData\Local\Temp\stm32-chibios.c1tKpx.ltrans3.ltrans.o
 .debug_aranges
                0x00001410       0x20 CMakeFiles/stm32-chibios.dir/C_/Users/error414/Documents/STM32/meteo-F4/ChibiOS/os/common/startup/ARMCMx/compilers/GCC/crt0_v7m.S.obj
 .debug_aranges
                0x00001430       0x20 CMakeFiles/stm32-chibios.dir/C_/Users/error414/Documents/STM32/meteo-F4/ChibiOS/os/common/startup/ARMCMx/compilers/GCC/vectors.S.obj
 .debug_aranges
                0x00001450       0x20 CMakeFiles/stm32-chibios.dir/C_/Users/error414/Documents/STM32/meteo-F4/ChibiOS/os/common/ports/ARMv7-M/compilers/GCC/chcoreasm.S.obj

.debug_ranges   0x00000000     0x4500
 .debug_ranges  0x00000000     0x27b0 C:\Users\error414\AppData\Local\Temp\stm32-chibios.c1tKpx.ltrans0.ltrans.o
 .debug_ranges  0x000027b0     0x1078 C:\Users\error414\AppData\Local\Temp\stm32-chibios.c1tKpx.ltrans1.ltrans.o
 .debug_ranges  0x00003828      0x770 C:\Users\error414\AppData\Local\Temp\stm32-chibios.c1tKpx.ltrans2.ltrans.o
 .debug_ranges  0x00003f98      0x568 C:\Users\error414\AppData\Local\Temp\stm32-chibios.c1tKpx.ltrans3.ltrans.o

.debug_line     0x00000000    0x4abf2
 .debug_line    0x00000000     0xe8b3 C:\Users\error414\AppData\Local\Temp\stm32-chibios.c1tKpx.ltrans0.ltrans.o
 .debug_line    0x0000e8b3     0xa859 C:\Users\error414\AppData\Local\Temp\stm32-chibios.c1tKpx.ltrans1.ltrans.o
 .debug_line    0x0001910c     0x8f5b C:\Users\error414\AppData\Local\Temp\stm32-chibios.c1tKpx.ltrans2.ltrans.o
 .debug_line    0x00022067     0x315b C:\Users\error414\AppData\Local\Temp\stm32-chibios.c1tKpx.ltrans3.ltrans.o
 .debug_line    0x000251c2      0x171 C:\Users\error414\AppData\Local\Temp\ccTMTdwX.debug.temp.o
 .debug_line    0x00025333       0xb5 C:\Users\error414\AppData\Local\Temp\cc4XNc53.debug.temp.o
 .debug_line    0x000253e8      0x213 C:\Users\error414\AppData\Local\Temp\ccBKBzRa.debug.temp.o
 .debug_line    0x000255fb      0x452 C:\Users\error414\AppData\Local\Temp\ccs3IMMh.debug.temp.o
 .debug_line    0x00025a4d      0x450 C:\Users\error414\AppData\Local\Temp\ccfSnk2n.debug.temp.o
 .debug_line    0x00025e9d      0x2c4 C:\Users\error414\AppData\Local\Temp\ccSdgPHt.debug.temp.o
 .debug_line    0x00026161       0x1e C:\Users\error414\AppData\Local\Temp\ccNM8uvC.debug.temp.o
 .debug_line    0x0002617f      0x55a C:\Users\error414\AppData\Local\Temp\ccABnNzL.debug.temp.o
 .debug_line    0x000266d9      0x286 C:\Users\error414\AppData\Local\Temp\ccDwFXWU.debug.temp.o
 .debug_line    0x0002695f      0x42f C:\Users\error414\AppData\Local\Temp\ccgmlOm3.debug.temp.o
 .debug_line    0x00026d8e      0x524 C:\Users\error414\AppData\Local\Temp\ccf7SgUb.debug.temp.o
 .debug_line    0x000272b2      0x5d8 C:\Users\error414\AppData\Local\Temp\ccCwB7Ek.debug.temp.o
 .debug_line    0x0002788a      0x1cb C:\Users\error414\AppData\Local\Temp\ccfYmjps.debug.temp.o
 .debug_line    0x00027a55      0x87b C:\Users\error414\AppData\Local\Temp\ccM04ECD.debug.temp.o
 .debug_line    0x000282d0      0x245 C:\Users\error414\AppData\Local\Temp\ccfT0fJN.debug.temp.o
 .debug_line    0x00028515       0x1e C:\Users\error414\AppData\Local\Temp\cca0862X.debug.temp.o
 .debug_line    0x00028533      0x442 C:\Users\error414\AppData\Local\Temp\cclpQHu8.debug.temp.o
 .debug_line    0x00028975       0x1e C:\Users\error414\AppData\Local\Temp\ccuhVuUh.debug.temp.o
 .debug_line    0x00028993      0x28f C:\Users\error414\AppData\Local\Temp\cchAH0Mv.debug.temp.o
 .debug_line    0x00028c22      0x58c C:\Users\error414\AppData\Local\Temp\cca4hI7I.debug.temp.o
 .debug_line    0x000291ae      0x64f C:\Users\error414\AppData\Local\Temp\cctnEYEV.debug.temp.o
 .debug_line    0x000297fd      0x385 C:\Users\error414\AppData\Local\Temp\cc87oZj8.debug.temp.o
 .debug_line    0x00029b82      0x28c C:\Users\error414\AppData\Local\Temp\ccZeGmcl.debug.temp.o
 .debug_line    0x00029e0e      0x53c C:\Users\error414\AppData\Local\Temp\cccxP53w.debug.temp.o
 .debug_line    0x0002a34a       0x1e C:\Users\error414\AppData\Local\Temp\ccXIIEVM.debug.temp.o
 .debug_line    0x0002a368      0x400 C:\Users\error414\AppData\Local\Temp\ccY2Dgy2.debug.temp.o
 .debug_line    0x0002a768      0x31f C:\Users\error414\AppData\Local\Temp\cczrIsnh.debug.temp.o
 .debug_line    0x0002aa87       0x1e C:\Users\error414\AppData\Local\Temp\ccsbDokw.debug.temp.o
 .debug_line    0x0002aaa5      0x338 C:\Users\error414\AppData\Local\Temp\ccZVBdqL.debug.temp.o
 .debug_line    0x0002addd      0x328 C:\Users\error414\AppData\Local\Temp\ccuVCzI3.debug.temp.o
 .debug_line    0x0002b105      0x301 C:\Users\error414\AppData\Local\Temp\ccFyvmll.debug.temp.o
 .debug_line    0x0002b406      0x3c8 C:\Users\error414\AppData\Local\Temp\ccEFk6nC.debug.temp.o
 .debug_line    0x0002b7ce      0x325 C:\Users\error414\AppData\Local\Temp\ccfa6OLT.debug.temp.o
 .debug_line    0x0002baf3      0x3bd C:\Users\error414\AppData\Local\Temp\ccWtQoda.debug.temp.o
 .debug_line    0x0002beb0      0x32c C:\Users\error414\AppData\Local\Temp\ccL3ykSq.debug.temp.o
 .debug_line    0x0002c1dc      0x338 C:\Users\error414\AppData\Local\Temp\ccsJCYPL.debug.temp.o
 .debug_line    0x0002c514      0x345 C:\Users\error414\AppData\Local\Temp\ccLIC4O5.debug.temp.o
 .debug_line    0x0002c859      0x33d C:\Users\error414\AppData\Local\Temp\ccSbz7dp.debug.temp.o
 .debug_line    0x0002cb96      0x337 C:\Users\error414\AppData\Local\Temp\cclmIu6H.debug.temp.o
 .debug_line    0x0002cecd      0x41f C:\Users\error414\AppData\Local\Temp\ccCGFtf1.debug.temp.o
 .debug_line    0x0002d2ec      0x400 C:\Users\error414\AppData\Local\Temp\ccvOorzo.debug.temp.o
 .debug_line    0x0002d6ec      0x3f3 C:\Users\error414\AppData\Local\Temp\ccIk7WUK.debug.temp.o
 .debug_line    0x0002dadf      0x392 C:\Users\error414\AppData\Local\Temp\ccDBqRu7.debug.temp.o
 .debug_line    0x0002de71      0x404 C:\Users\error414\AppData\Local\Temp\ccEB5jgt.debug.temp.o
 .debug_line    0x0002e275      0x3ef C:\Users\error414\AppData\Local\Temp\ccpRWCqO.debug.temp.o
 .debug_line    0x0002e664      0x3f7 C:\Users\error414\AppData\Local\Temp\ccGVLNJ9.debug.temp.o
 .debug_line    0x0002ea5b      0x410 C:\Users\error414\AppData\Local\Temp\cc5Xlkhz.debug.temp.o
 .debug_line    0x0002ee6b      0x3cb C:\Users\error414\AppData\Local\Temp\ccuq5W0Y.debug.temp.o
 .debug_line    0x0002f236      0x38e C:\Users\error414\AppData\Local\Temp\ccXeba6n.debug.temp.o
 .debug_line    0x0002f5c4      0x2c0 C:\Users\error414\AppData\Local\Temp\ccuzQhhM.debug.temp.o
 .debug_line    0x0002f884      0x32b C:\Users\error414\AppData\Local\Temp\cc5F15Z9.debug.temp.o
 .debug_line    0x0002fbaf      0x255 C:\Users\error414\AppData\Local\Temp\ccqcqaCB.debug.temp.o
 .debug_line    0x0002fe04      0x257 C:\Users\error414\AppData\Local\Temp\ccjA36m3.debug.temp.o
 .debug_line    0x0003005b      0x2a8 C:\Users\error414\AppData\Local\Temp\ccCDPUgv.debug.temp.o
 .debug_line    0x00030303      0x295 C:\Users\error414\AppData\Local\Temp\cch8ZsiX.debug.temp.o
 .debug_line    0x00030598      0x283 C:\Users\error414\AppData\Local\Temp\ccuuhHmo.debug.temp.o
 .debug_line    0x0003081b      0x2e0 C:\Users\error414\AppData\Local\Temp\ccrEqkFP.debug.temp.o
 .debug_line    0x00030afb      0x509 C:\Users\error414\AppData\Local\Temp\ccUCxP6g.debug.temp.o
 .debug_line    0x00031004      0x3fe C:\Users\error414\AppData\Local\Temp\ccRe1TzH.debug.temp.o
 .debug_line    0x00031402      0x245 C:\Users\error414\AppData\Local\Temp\cc4M2cg8.debug.temp.o
 .debug_line    0x00031647      0x306 C:\Users\error414\AppData\Local\Temp\cc3Fqw6y.debug.temp.o
 .debug_line    0x0003194d      0x2fc C:\Users\error414\AppData\Local\Temp\ccKFixZY.debug.temp.o
 .debug_line    0x00031c49      0x47f C:\Users\error414\AppData\Local\Temp\ccN6yi0o.debug.temp.o
 .debug_line    0x000320c8      0x44c C:\Users\error414\AppData\Local\Temp\cckjwV9O.debug.temp.o
 .debug_line    0x00032514      0x420 C:\Users\error414\AppData\Local\Temp\ccpnIqsf.debug.temp.o
 .debug_line    0x00032934      0x2a1 C:\Users\error414\AppData\Local\Temp\ccyNMivJ.debug.temp.o
 .debug_line    0x00032bd5      0x47b C:\Users\error414\AppData\Local\Temp\ccz92ggc.debug.temp.o
 .debug_line    0x00033050      0x2f9 C:\Users\error414\AppData\Local\Temp\ccaqP79E.debug.temp.o
 .debug_line    0x00033349      0x285 C:\Users\error414\AppData\Local\Temp\ccFn5hAa.debug.temp.o
 .debug_line    0x000335ce      0x226 C:\Users\error414\AppData\Local\Temp\ccuTXPdG.debug.temp.o
 .debug_line    0x000337f4      0x2a8 C:\Users\error414\AppData\Local\Temp\ccP3aqOa.debug.temp.o
 .debug_line    0x00033a9c      0x1a0 C:\Users\error414\AppData\Local\Temp\ccUnhUxF.debug.temp.o
 .debug_line    0x00033c3c       0x1e C:\Users\error414\AppData\Local\Temp\ccvwlgqa.debug.temp.o
 .debug_line    0x00033c5a      0x212 C:\Users\error414\AppData\Local\Temp\ccuFdjwI.debug.temp.o
 .debug_line    0x00033e6c       0x1e C:\Users\error414\AppData\Local\Temp\ccJKDAPg.debug.temp.o
 .debug_line    0x00033e8a       0x1e C:\Users\error414\AppData\Local\Temp\ccc5lBgP.debug.temp.o
 .debug_line    0x00033ea8      0x325 C:\Users\error414\AppData\Local\Temp\ccHYZOFm.debug.temp.o
 .debug_line    0x000341cd       0x1e C:\Users\error414\AppData\Local\Temp\ccQCJ6uT.debug.temp.o
 .debug_line    0x000341eb      0x325 C:\Users\error414\AppData\Local\Temp\ccvF5ZKq.debug.temp.o
 .debug_line    0x00034510      0x325 C:\Users\error414\AppData\Local\Temp\ccQfgE9X.debug.temp.o
 .debug_line    0x00034835       0x1e C:\Users\error414\AppData\Local\Temp\ccfykadz.debug.temp.o
 .debug_line    0x00034853      0x325 C:\Users\error414\AppData\Local\Temp\ccujiSS9.debug.temp.o
 .debug_line    0x00034b78       0x1e C:\Users\error414\AppData\Local\Temp\ccBOPNKK.debug.temp.o
 .debug_line    0x00034b96       0x1e C:\Users\error414\AppData\Local\Temp\ccSInsGk.debug.temp.o
 .debug_line    0x00034bb4       0x1e C:\Users\error414\AppData\Local\Temp\cc10tPTU.debug.temp.o
 .debug_line    0x00034bd2       0x1e C:\Users\error414\AppData\Local\Temp\cc2uWh4t.debug.temp.o
 .debug_line    0x00034bf0       0x1e C:\Users\error414\AppData\Local\Temp\cchSFYr3.debug.temp.o
 .debug_line    0x00034c0e      0x325 C:\Users\error414\AppData\Local\Temp\ccUxyy8C.debug.temp.o
 .debug_line    0x00034f33       0x1e C:\Users\error414\AppData\Local\Temp\ccFrMQBg.debug.temp.o
 .debug_line    0x00034f51       0x1e C:\Users\error414\AppData\Local\Temp\ccuFbosU.debug.temp.o
 .debug_line    0x00034f6f       0x1e C:\Users\error414\AppData\Local\Temp\cc32lDlx.debug.temp.o
 .debug_line    0x00034f8d      0x325 C:\Users\error414\AppData\Local\Temp\ccK2LZqa.debug.temp.o
 .debug_line    0x000352b2       0x1e C:\Users\error414\AppData\Local\Temp\cc1WHeFN.debug.temp.o
 .debug_line    0x000352d0      0x325 C:\Users\error414\AppData\Local\Temp\cci1gbXp.debug.temp.o
 .debug_line    0x000355f5       0x1e C:\Users\error414\AppData\Local\Temp\ccHlOts2.debug.temp.o
 .debug_line    0x00035613      0x325 C:\Users\error414\AppData\Local\Temp\ccs7Jw5E.debug.temp.o
 .debug_line    0x00035938      0x325 C:\Users\error414\AppData\Local\Temp\ccXwU8Kg.debug.temp.o
 .debug_line    0x00035c5d       0x1e C:\Users\error414\AppData\Local\Temp\ccAUP6EW.debug.temp.o
 .debug_line    0x00035c7b       0x1e C:\Users\error414\AppData\Local\Temp\ccNmMANC.debug.temp.o
 .debug_line    0x00035c99       0x1e C:\Users\error414\AppData\Local\Temp\ccOyvEYh.debug.temp.o
 .debug_line    0x00035cb7       0x1e C:\Users\error414\AppData\Local\Temp\cc1WfrhX.debug.temp.o
 .debug_line    0x00035cd5      0x327 C:\Users\error414\AppData\Local\Temp\ccKP7VMB.debug.temp.o
 .debug_line    0x00035ffc      0x327 C:\Users\error414\AppData\Local\Temp\cc55VpDg.debug.temp.o
 .debug_line    0x00036323      0x327 C:\Users\error414\AppData\Local\Temp\ccQ1SKCV.debug.temp.o
 .debug_line    0x0003664a      0x327 C:\Users\error414\AppData\Local\Temp\ccBtuiAz.debug.temp.o
 .debug_line    0x00036971      0x327 C:\Users\error414\AppData\Local\Temp\ccajJQHd.debug.temp.o
 .debug_line    0x00036c98       0x1e C:\Users\error414\AppData\Local\Temp\cc3GAM2R.debug.temp.o
 .debug_line    0x00036cb6       0x1e C:\Users\error414\AppData\Local\Temp\ccMjes1z.debug.temp.o
 .debug_line    0x00036cd4       0x1e C:\Users\error414\AppData\Local\Temp\cczsFfTg.debug.temp.o
 .debug_line    0x00036cf2       0x1e C:\Users\error414\AppData\Local\Temp\ccQit95X.debug.temp.o
 .debug_line    0x00036d10      0x2a4 C:\Users\error414\AppData\Local\Temp\ccRMvClE.debug.temp.o
 .debug_line    0x00036fb4      0x2ee C:\Users\error414\AppData\Local\Temp\ccaqSXTk.debug.temp.o
 .debug_line    0x000372a2      0x159 C:\Users\error414\AppData\Local\Temp\ccZRcbB1.debug.temp.o
 .debug_line    0x000373fb       0x1e C:\Users\error414\AppData\Local\Temp\cci3AC0L.debug.temp.o
 .debug_line    0x00037419      0x1a0 C:\Users\error414\AppData\Local\Temp\cczns81v.debug.temp.o
 .debug_line    0x000375b9      0x180 C:\Users\error414\AppData\Local\Temp\cciqJvcg.debug.temp.o
 .debug_line    0x00037739       0x1e C:\Users\error414\AppData\Local\Temp\ccNj15uZ.debug.temp.o
 .debug_line    0x00037757      0x165 C:\Users\error414\AppData\Local\Temp\ccgCuj4I.debug.temp.o
 .debug_line    0x000378bc       0x1e C:\Users\error414\AppData\Local\Temp\ccDhNIBr.debug.temp.o
 .debug_line    0x000378da       0x1e C:\Users\error414\AppData\Local\Temp\ccMhs8ia.debug.temp.o
 .debug_line    0x000378f8      0x29c C:\Users\error414\AppData\Local\Temp\cc7DDUdT.debug.temp.o
 .debug_line    0x00037b94      0x15f C:\Users\error414\AppData\Local\Temp\ccIioqgC.debug.temp.o
 .debug_line    0x00037cf3       0x1e C:\Users\error414\AppData\Local\Temp\ccrLAOXo.debug.temp.o
 .debug_line    0x00037d11      0x163 C:\Users\error414\AppData\Local\Temp\ccCAbzTb.debug.temp.o
 .debug_line    0x00037e74      0x1eb C:\Users\error414\AppData\Local\Temp\ccvwodYY.debug.temp.o
 .debug_line    0x0003805f      0x1ee C:\Users\error414\AppData\Local\Temp\cc4vOy5K.debug.temp.o
 .debug_line    0x0003824d      0x179 C:\Users\error414\AppData\Local\Temp\ccNEYCkx.debug.temp.o
 .debug_line    0x000383c6       0x1e C:\Users\error414\AppData\Local\Temp\cc2B6yIj.debug.temp.o
 .debug_line    0x000383e4      0x296 C:\Users\error414\AppData\Local\Temp\ccJr9Zk6.debug.temp.o
 .debug_line    0x0003867a       0x1e C:\Users\error414\AppData\Local\Temp\ccKFrf3R.debug.temp.o
 .debug_line    0x00038698      0x157 C:\Users\error414\AppData\Local\Temp\cc3o5RYD.debug.temp.o
 .debug_line    0x000387ef      0x565 C:\Users\error414\AppData\Local\Temp\ccoHEHSo.debug.temp.o
 .debug_line    0x00038d54       0x1e C:\Users\error414\AppData\Local\Temp\ccdpTT09.debug.temp.o
 .debug_line    0x00038d72      0x58e C:\Users\error414\AppData\Local\Temp\ccyV5XhV.debug.temp.o
 .debug_line    0x00039300      0x58b C:\Users\error414\AppData\Local\Temp\ccjBAElK.debug.temp.o
 .debug_line    0x0003988b       0x1e C:\Users\error414\AppData\Local\Temp\ccWKgmzz.debug.temp.o
 .debug_line    0x000398a9      0x40b C:\Users\error414\AppData\Local\Temp\ccTqgUVo.debug.temp.o
 .debug_line    0x00039cb4      0x481 C:\Users\error414\AppData\Local\Temp\ccUSL8Pd.debug.temp.o
 .debug_line    0x0003a135      0x31a C:\Users\error414\AppData\Local\Temp\ccHXsbZ1.debug.temp.o
 .debug_line    0x0003a44f      0x4ba C:\Users\error414\AppData\Local\Temp\cc2zyWkP.debug.temp.o
 .debug_line    0x0003a909      0x4aa C:\Users\error414\AppData\Local\Temp\ccV3SzPC.debug.temp.o
 .debug_line    0x0003adb3      0x524 C:\Users\error414\AppData\Local\Temp\ccOXmjwq.debug.temp.o
 .debug_line    0x0003b2d7      0x49c C:\Users\error414\AppData\Local\Temp\ccft3flh.debug.temp.o
 .debug_line    0x0003b773      0x39d C:\Users\error414\AppData\Local\Temp\cc6DS3i8.debug.temp.o
 .debug_line    0x0003bb10      0x39f C:\Users\error414\AppData\Local\Temp\ccRVGqCY.debug.temp.o
 .debug_line    0x0003beaf      0x4ba C:\Users\error414\AppData\Local\Temp\ccsAd7fO.debug.temp.o
 .debug_line    0x0003c369      0x505 C:\Users\error414\AppData\Local\Temp\ccjbi26D.debug.temp.o
 .debug_line    0x0003c86e      0x435 C:\Users\error414\AppData\Local\Temp\ccgRRcau.debug.temp.o
 .debug_line    0x0003cca3      0x440 C:\Users\error414\AppData\Local\Temp\ccTGlJWn.debug.temp.o
 .debug_line    0x0003d0e3      0x4e7 C:\Users\error414\AppData\Local\Temp\ccu5DA3g.debug.temp.o
 .debug_line    0x0003d5ca       0x1e C:\Users\error414\AppData\Local\Temp\cc5JyRZ9.debug.temp.o
 .debug_line    0x0003d5e8      0x492 C:\Users\error414\AppData\Local\Temp\ccsful41.debug.temp.o
 .debug_line    0x0003da7a       0x1e C:\Users\error414\AppData\Local\Temp\ccDUdrpU.debug.temp.o
 .debug_line    0x0003da98      0x386 C:\Users\error414\AppData\Local\Temp\ccwq7nzQ.debug.temp.o
 .debug_line    0x0003de1e      0x40a C:\Users\error414\AppData\Local\Temp\ccr1gwbM.debug.temp.o
 .debug_line    0x0003e228      0x3db C:\Users\error414\AppData\Local\Temp\ccw5qUaI.debug.temp.o
 .debug_line    0x0003e603      0x455 C:\Users\error414\AppData\Local\Temp\ccjQJJuD.debug.temp.o
 .debug_line    0x0003ea58      0x3bc C:\Users\error414\AppData\Local\Temp\ccavGv5B.debug.temp.o
 .debug_line    0x0003ee14       0x1e C:\Users\error414\AppData\Local\Temp\cclGW7OA.debug.temp.o
 .debug_line    0x0003ee32      0x4dc C:\Users\error414\AppData\Local\Temp\ccKurbDA.debug.temp.o
 .debug_line    0x0003f30e      0x4db C:\Users\error414\AppData\Local\Temp\ccXmxV8z.debug.temp.o
 .debug_line    0x0003f7e9      0x482 C:\Users\error414\AppData\Local\Temp\cc07nUnD.debug.temp.o
 .debug_line    0x0003fc6b      0x427 C:\Users\error414\AppData\Local\Temp\ccnhmDKG.debug.temp.o
 .debug_line    0x00040092       0x1e C:\Users\error414\AppData\Local\Temp\cca8DyeJ.debug.temp.o
 .debug_line    0x000400b0      0x3fa C:\Users\error414\AppData\Local\Temp\cczAHRWL.debug.temp.o
 .debug_line    0x000404aa      0x4b2 C:\Users\error414\AppData\Local\Temp\ccuRI2NO.debug.temp.o
 .debug_line    0x0004095c      0x418 C:\Users\error414\AppData\Local\Temp\cc91aXlT.debug.temp.o
 .debug_line    0x00040d74      0x4d2 C:\Users\error414\AppData\Local\Temp\cco78J2X.debug.temp.o
 .debug_line    0x00041246      0x3bf C:\Users\error414\AppData\Local\Temp\ccjk2zS4.debug.temp.o
 .debug_line    0x00041605      0x489 C:\Users\error414\AppData\Local\Temp\ccACiFVb.debug.temp.o
 .debug_line    0x00041a8e      0x6a9 C:\Users\error414\AppData\Local\Temp\cc59qeVl.debug.temp.o
 .debug_line    0x00042137      0x47a C:\Users\error414\AppData\Local\Temp\cclbZe3n.debug.temp.o
 .debug_line    0x000425b1      0x380 C:\Users\error414\AppData\Local\Temp\ccnpzXdp.debug.temp.o
 .debug_line    0x00042931      0x20b C:\Users\error414\AppData\Local\Temp\ccPWg2Cq.debug.temp.o
 .debug_line    0x00042b3c      0x5fb C:\Users\error414\AppData\Local\Temp\ccJIU6as.debug.temp.o
 .debug_line    0x00043137      0x287 C:\Users\error414\AppData\Local\Temp\ccPcmjVt.debug.temp.o
 .debug_line    0x000433be      0x28d C:\Users\error414\AppData\Local\Temp\ccP3CHDu.debug.temp.o
 .debug_line    0x0004364b      0x286 C:\Users\error414\AppData\Local\Temp\ccfKxAAv.debug.temp.o
 .debug_line    0x000438d1      0x286 C:\Users\error414\AppData\Local\Temp\ccpQFBiy.debug.temp.o
 .debug_line    0x00043b57      0x289 C:\Users\error414\AppData\Local\Temp\ccPSlRdB.debug.temp.o
 .debug_line    0x00043de0      0x289 C:\Users\error414\AppData\Local\Temp\ccNKDlRH.debug.temp.o
 .debug_line    0x00044069      0x285 C:\Users\error414\AppData\Local\Temp\cc9eNGDO.debug.temp.o
 .debug_line    0x000442ee      0x284 C:\Users\error414\AppData\Local\Temp\ccduxqEV.debug.temp.o
 .debug_line    0x00044572      0x283 C:\Users\error414\AppData\Local\Temp\ccL0CeM1.debug.temp.o
 .debug_line    0x000447f5      0x283 C:\Users\error414\AppData\Local\Temp\cctG2vQa.debug.temp.o
 .debug_line    0x00044a78      0x285 C:\Users\error414\AppData\Local\Temp\ccNjfG3j.debug.temp.o
 .debug_line    0x00044cfd      0x312 C:\Users\error414\AppData\Local\Temp\cc30wxks.debug.temp.o
 .debug_line    0x0004500f      0x312 C:\Users\error414\AppData\Local\Temp\ccPC5c0z.debug.temp.o
 .debug_line    0x00045321      0x312 C:\Users\error414\AppData\Local\Temp\ccb99KOH.debug.temp.o
 .debug_line    0x00045633      0x310 C:\Users\error414\AppData\Local\Temp\ccL41FQP.debug.temp.o
 .debug_line    0x00045943      0x30f C:\Users\error414\AppData\Local\Temp\ccHril0X.debug.temp.o
 .debug_line    0x00045c52      0x30f C:\Users\error414\AppData\Local\Temp\ccnsNzc5.debug.temp.o
 .debug_line    0x00045f61      0x30f C:\Users\error414\AppData\Local\Temp\ccDPCRPf.debug.temp.o
 .debug_line    0x00046270      0x30f C:\Users\error414\AppData\Local\Temp\cc9u1SAq.debug.temp.o
 .debug_line    0x0004657f      0x30f C:\Users\error414\AppData\Local\Temp\ccZcw9yB.debug.temp.o
 .debug_line    0x0004688e      0x30f C:\Users\error414\AppData\Local\Temp\ccx9OpHM.debug.temp.o
 .debug_line    0x00046b9d      0x30f C:\Users\error414\AppData\Local\Temp\ccL9knSW.debug.temp.o
 .debug_line    0x00046eac      0x30f C:\Users\error414\AppData\Local\Temp\ccFdcec7.debug.temp.o
 .debug_line    0x000471bb      0x312 C:\Users\error414\AppData\Local\Temp\ccvBEaIh.debug.temp.o
 .debug_line    0x000474cd      0x312 C:\Users\error414\AppData\Local\Temp\ccrEAkcr.debug.temp.o
 .debug_line    0x000477df      0x312 C:\Users\error414\AppData\Local\Temp\ccTFZZUA.debug.temp.o
 .debug_line    0x00047af1      0x312 C:\Users\error414\AppData\Local\Temp\cch1ZKPK.debug.temp.o
 .debug_line    0x00047e03      0x3a4 C:\Users\error414\AppData\Local\Temp\ccnzbStY.debug.temp.o
 .debug_line    0x000481a7      0x3f5 C:\Users\error414\AppData\Local\Temp\cc5Ewqle.debug.temp.o
 .debug_line    0x0004859c      0x40e C:\Users\error414\AppData\Local\Temp\ccbp2mqu.debug.temp.o
 .debug_line    0x000489aa      0x4a4 C:\Users\error414\AppData\Local\Temp\ccRbgiFK.debug.temp.o
 .debug_line    0x00048e4e      0x4a8 C:\Users\error414\AppData\Local\Temp\cct03kv2.debug.temp.o
 .debug_line    0x000492f6      0x198 C:\Users\error414\AppData\Local\Temp\cczK3Szk.debug.temp.o
 .debug_line    0x0004948e      0x83f C:\Users\error414\AppData\Local\Temp\ccvh70GB.debug.temp.o
 .debug_line    0x00049ccd      0x5db C:\Users\error414\AppData\Local\Temp\ccF3sSVS.debug.temp.o
 .debug_line    0x0004a2a8      0x3f5 C:\Users\error414\AppData\Local\Temp\cc9nr7na.debug.temp.o
 .debug_line    0x0004a69d      0x30a C:\Users\error414\AppData\Local\Temp\ccPEUGPq.debug.temp.o
 .debug_line    0x0004a9a7      0x100 CMakeFiles/stm32-chibios.dir/C_/Users/error414/Documents/STM32/meteo-F4/ChibiOS/os/common/startup/ARMCMx/compilers/GCC/crt0_v7m.S.obj
 .debug_line    0x0004aaa7       0x99 CMakeFiles/stm32-chibios.dir/C_/Users/error414/Documents/STM32/meteo-F4/ChibiOS/os/common/startup/ARMCMx/compilers/GCC/vectors.S.obj
 .debug_line    0x0004ab40       0xb2 CMakeFiles/stm32-chibios.dir/C_/Users/error414/Documents/STM32/meteo-F4/ChibiOS/os/common/ports/ARMv7-M/compilers/GCC/chcoreasm.S.obj

.debug_str      0x00000000    0x189e8
 .debug_str     0x00000000      0x150 C:\Users\error414\AppData\Local\Temp\stm32-chibios.c1tKpx.ltrans0.ltrans.o
                                0x1a5 (size before relaxing)
 .debug_str     0x00000150        0xe C:\Users\error414\AppData\Local\Temp\stm32-chibios.c1tKpx.ltrans1.ltrans.o
                                0x179 (size before relaxing)
 .debug_str     0x0000015e        0x8 C:\Users\error414\AppData\Local\Temp\stm32-chibios.c1tKpx.ltrans2.ltrans.o
                                0x18e (size before relaxing)
 .debug_str     0x00000166       0x17 C:\Users\error414\AppData\Local\Temp\stm32-chibios.c1tKpx.ltrans3.ltrans.o
                                0x19d (size before relaxing)
 .debug_str     0x0000017d      0x3e8 C:\Users\error414\AppData\Local\Temp\ccTMTdwX.debug.temp.o
                                0x491 (size before relaxing)
 .debug_str     0x00000565       0x67 C:\Users\error414\AppData\Local\Temp\cc4XNc53.debug.temp.o
                                0x1f9 (size before relaxing)
 .debug_str     0x000005cc      0x162 C:\Users\error414\AppData\Local\Temp\ccBKBzRa.debug.temp.o
                                0x31a (size before relaxing)
 .debug_str     0x0000072e      0x686 C:\Users\error414\AppData\Local\Temp\ccs3IMMh.debug.temp.o
                                0x8eb (size before relaxing)
 .debug_str     0x00000db4      0x165 C:\Users\error414\AppData\Local\Temp\ccfSnk2n.debug.temp.o
                                0x7e1 (size before relaxing)
 .debug_str     0x00000f19      0x2aa C:\Users\error414\AppData\Local\Temp\ccSdgPHt.debug.temp.o
                                0x4d5 (size before relaxing)
 .debug_str     0x000011c3       0x4a C:\Users\error414\AppData\Local\Temp\ccNM8uvC.debug.temp.o
                                0x1ee (size before relaxing)
 .debug_str     0x0000120d      0x2ec C:\Users\error414\AppData\Local\Temp\ccABnNzL.debug.temp.o
                                0x8bb (size before relaxing)
 .debug_str     0x000014f9      0x144 C:\Users\error414\AppData\Local\Temp\ccDwFXWU.debug.temp.o
                                0x33f (size before relaxing)
 .debug_str     0x0000163d      0x1c8 C:\Users\error414\AppData\Local\Temp\ccgmlOm3.debug.temp.o
                                0x7d6 (size before relaxing)
 .debug_str     0x00001805      0x208 C:\Users\error414\AppData\Local\Temp\ccf7SgUb.debug.temp.o
                                0x8e4 (size before relaxing)
 .debug_str     0x00001a0d      0x208 C:\Users\error414\AppData\Local\Temp\ccCwB7Ek.debug.temp.o
                                0x918 (size before relaxing)
 .debug_str     0x00001c15      0x183 C:\Users\error414\AppData\Local\Temp\ccfYmjps.debug.temp.o
                                0x36c (size before relaxing)
 .debug_str     0x00001d98      0x56f C:\Users\error414\AppData\Local\Temp\ccM04ECD.debug.temp.o
                                0xd86 (size before relaxing)
 .debug_str     0x00002307      0x1d5 C:\Users\error414\AppData\Local\Temp\ccfT0fJN.debug.temp.o
                                0x42f (size before relaxing)
 .debug_str     0x000024dc       0x5e C:\Users\error414\AppData\Local\Temp\cca0862X.debug.temp.o
                                0x202 (size before relaxing)
 .debug_str     0x0000253a      0x1a9 C:\Users\error414\AppData\Local\Temp\cclpQHu8.debug.temp.o
                                0x8d7 (size before relaxing)
 .debug_str     0x000026e3       0x5e C:\Users\error414\AppData\Local\Temp\ccuhVuUh.debug.temp.o
                                0x202 (size before relaxing)
 .debug_str     0x00002741      0x14d C:\Users\error414\AppData\Local\Temp\cchAH0Mv.debug.temp.o
                                0x3e1 (size before relaxing)
 .debug_str     0x0000288e      0x662 C:\Users\error414\AppData\Local\Temp\cca4hI7I.debug.temp.o
                                0xf75 (size before relaxing)
 .debug_str     0x00002ef0      0x13b C:\Users\error414\AppData\Local\Temp\cctnEYEV.debug.temp.o
                                0xa4f (size before relaxing)
 .debug_str     0x0000302b       0x99 C:\Users\error414\AppData\Local\Temp\cc87oZj8.debug.temp.o
                                0x45f (size before relaxing)
 .debug_str     0x000030c4      0x166 C:\Users\error414\AppData\Local\Temp\ccZeGmcl.debug.temp.o
                                0x572 (size before relaxing)
 .debug_str     0x0000322a       0xc9 C:\Users\error414\AppData\Local\Temp\cccxP53w.debug.temp.o
                                0x9c8 (size before relaxing)
 .debug_str     0x000032f3       0x4d C:\Users\error414\AppData\Local\Temp\ccXIIEVM.debug.temp.o
                                0x1f1 (size before relaxing)
 .debug_str     0x00003340      0x369 C:\Users\error414\AppData\Local\Temp\ccY2Dgy2.debug.temp.o
                                0x983 (size before relaxing)
 .debug_str     0x000036a9      0x12a C:\Users\error414\AppData\Local\Temp\cczrIsnh.debug.temp.o
                                0x6c3 (size before relaxing)
 .debug_str     0x000037d3       0x47 C:\Users\error414\AppData\Local\Temp\ccsbDokw.debug.temp.o
                                0x1eb (size before relaxing)
 .debug_str     0x0000381a      0x180 C:\Users\error414\AppData\Local\Temp\ccZVBdqL.debug.temp.o
                                0x7aa (size before relaxing)
 .debug_str     0x0000399a      0x1ee C:\Users\error414\AppData\Local\Temp\ccuVCzI3.debug.temp.o
                                0x7fe (size before relaxing)
 .debug_str     0x00003b88      0x1b3 C:\Users\error414\AppData\Local\Temp\ccFyvmll.debug.temp.o
                                0x7fe (size before relaxing)
 .debug_str     0x00003d3b      0x2b5 C:\Users\error414\AppData\Local\Temp\ccEFk6nC.debug.temp.o
                                0x924 (size before relaxing)
 .debug_str     0x00003ff0       0xa8 C:\Users\error414\AppData\Local\Temp\ccfa6OLT.debug.temp.o
                                0x789 (size before relaxing)
 .debug_str     0x00004098       0xcb C:\Users\error414\AppData\Local\Temp\ccWtQoda.debug.temp.o
                                0x744 (size before relaxing)
 .debug_str     0x00004163      0x11a C:\Users\error414\AppData\Local\Temp\ccL3ykSq.debug.temp.o
                                0x718 (size before relaxing)
 .debug_str     0x0000427d       0xe4 C:\Users\error414\AppData\Local\Temp\ccsJCYPL.debug.temp.o
                                0x6d7 (size before relaxing)
 .debug_str     0x00004361      0x10a C:\Users\error414\AppData\Local\Temp\ccLIC4O5.debug.temp.o
                                0x6ff (size before relaxing)
 .debug_str     0x0000446b      0x1c7 C:\Users\error414\AppData\Local\Temp\ccSbz7dp.debug.temp.o
                                0x7d4 (size before relaxing)
 .debug_str     0x00004632       0xa2 C:\Users\error414\AppData\Local\Temp\cclmIu6H.debug.temp.o
                                0x674 (size before relaxing)
 .debug_str     0x000046d4       0xed C:\Users\error414\AppData\Local\Temp\ccCGFtf1.debug.temp.o
                                0x6e6 (size before relaxing)
 .debug_str     0x000047c1      0x138 C:\Users\error414\AppData\Local\Temp\ccvOorzo.debug.temp.o
                                0x73e (size before relaxing)
 .debug_str     0x000048f9       0xf8 C:\Users\error414\AppData\Local\Temp\ccIk7WUK.debug.temp.o
                                0x6a1 (size before relaxing)
 .debug_str     0x000049f1       0xc7 C:\Users\error414\AppData\Local\Temp\ccDBqRu7.debug.temp.o
                                0x694 (size before relaxing)
 .debug_str     0x00004ab8      0x166 C:\Users\error414\AppData\Local\Temp\ccEB5jgt.debug.temp.o
                                0x762 (size before relaxing)
 .debug_str     0x00004c1e       0xe4 C:\Users\error414\AppData\Local\Temp\ccpRWCqO.debug.temp.o
                                0x6a8 (size before relaxing)
 .debug_str     0x00004d02      0x20c C:\Users\error414\AppData\Local\Temp\ccGVLNJ9.debug.temp.o
                                0x7dd (size before relaxing)
 .debug_str     0x00004f0e      0x1aa C:\Users\error414\AppData\Local\Temp\cc5Xlkhz.debug.temp.o
                                0x74a (size before relaxing)
 .debug_str     0x000050b8      0x4ab C:\Users\error414\AppData\Local\Temp\ccuq5W0Y.debug.temp.o
                                0xaff (size before relaxing)
 .debug_str     0x00005563      0x1a0 C:\Users\error414\AppData\Local\Temp\ccXeba6n.debug.temp.o
                                0xc3d (size before relaxing)
 .debug_str     0x00005703      0x163 C:\Users\error414\AppData\Local\Temp\ccuzQhhM.debug.temp.o
                                0x3a7 (size before relaxing)
 .debug_str     0x00005866       0xcd C:\Users\error414\AppData\Local\Temp\cc5F15Z9.debug.temp.o
                                0x342 (size before relaxing)
 .debug_str     0x00005933       0x76 C:\Users\error414\AppData\Local\Temp\ccqcqaCB.debug.temp.o
                                0x2a3 (size before relaxing)
 .debug_str     0x000059a9       0x7c C:\Users\error414\AppData\Local\Temp\ccjA36m3.debug.temp.o
                                0x27f (size before relaxing)
 .debug_str     0x00005a25       0xac C:\Users\error414\AppData\Local\Temp\ccCDPUgv.debug.temp.o
                                0x2fd (size before relaxing)
 .debug_str     0x00005ad1      0x5b6 C:\Users\error414\AppData\Local\Temp\cch8ZsiX.debug.temp.o
                                0x962 (size before relaxing)
 .debug_str     0x00006087      0x7ad C:\Users\error414\AppData\Local\Temp\ccuuhHmo.debug.temp.o
                                0xdcd (size before relaxing)
 .debug_str     0x00006834      0x818 C:\Users\error414\AppData\Local\Temp\ccrEqkFP.debug.temp.o
                               0x15ca (size before relaxing)
 .debug_str     0x0000704c     0x2e41 C:\Users\error414\AppData\Local\Temp\ccUCxP6g.debug.temp.o
                               0x443d (size before relaxing)
 .debug_str     0x00009e8d      0x2ed C:\Users\error414\AppData\Local\Temp\ccRe1TzH.debug.temp.o
                               0x1904 (size before relaxing)
 .debug_str     0x0000a17a      0x465 C:\Users\error414\AppData\Local\Temp\cc4M2cg8.debug.temp.o
                                0x9d5 (size before relaxing)
 .debug_str     0x0000a5df      0x1f3 C:\Users\error414\AppData\Local\Temp\cc3Fqw6y.debug.temp.o
                                0x925 (size before relaxing)
 .debug_str     0x0000a7d2      0x2a5 C:\Users\error414\AppData\Local\Temp\ccKFixZY.debug.temp.o
                                0xc06 (size before relaxing)
 .debug_str     0x0000aa77      0x673 C:\Users\error414\AppData\Local\Temp\ccN6yi0o.debug.temp.o
                               0x15e0 (size before relaxing)
 .debug_str     0x0000b0ea      0x345 C:\Users\error414\AppData\Local\Temp\cckjwV9O.debug.temp.o
                               0x12dd (size before relaxing)
 .debug_str     0x0000b42f      0x1fc C:\Users\error414\AppData\Local\Temp\ccpnIqsf.debug.temp.o
                               0x1007 (size before relaxing)
 .debug_str     0x0000b62b      0x3c1 C:\Users\error414\AppData\Local\Temp\ccyNMivJ.debug.temp.o
                                0x8e4 (size before relaxing)
 .debug_str     0x0000b9ec      0x228 C:\Users\error414\AppData\Local\Temp\ccz92ggc.debug.temp.o
                               0x130f (size before relaxing)
 .debug_str     0x0000bc14       0xd8 C:\Users\error414\AppData\Local\Temp\ccaqP79E.debug.temp.o
                                0x7d6 (size before relaxing)
 .debug_str     0x0000bcec      0x1b1 C:\Users\error414\AppData\Local\Temp\ccFn5hAa.debug.temp.o
                                0x8c5 (size before relaxing)
 .debug_str     0x0000be9d       0xbd C:\Users\error414\AppData\Local\Temp\ccuTXPdG.debug.temp.o
                                0x489 (size before relaxing)
 .debug_str     0x0000bf5a      0x2d7 C:\Users\error414\AppData\Local\Temp\ccP3aqOa.debug.temp.o
                                0xa4e (size before relaxing)
 .debug_str     0x0000c231       0x95 C:\Users\error414\AppData\Local\Temp\ccUnhUxF.debug.temp.o
                                0x36d (size before relaxing)
 .debug_str     0x0000c2c6       0x5f C:\Users\error414\AppData\Local\Temp\ccvwlgqa.debug.temp.o
                                0x203 (size before relaxing)
 .debug_str     0x0000c325      0x55a C:\Users\error414\AppData\Local\Temp\ccuFdjwI.debug.temp.o
                                0x8cf (size before relaxing)
 .debug_str     0x0000c87f       0x4d C:\Users\error414\AppData\Local\Temp\ccJKDAPg.debug.temp.o
                                0x1f1 (size before relaxing)
 .debug_str     0x0000c8cc       0x54 C:\Users\error414\AppData\Local\Temp\ccc5lBgP.debug.temp.o
                                0x1f8 (size before relaxing)
 .debug_str     0x0000c920      0x46a C:\Users\error414\AppData\Local\Temp\ccHYZOFm.debug.temp.o
                                0x9ab (size before relaxing)
 .debug_str     0x0000cd8a       0x5a C:\Users\error414\AppData\Local\Temp\ccQCJ6uT.debug.temp.o
                                0x1fe (size before relaxing)
 .debug_str     0x0000cde4       0x54 C:\Users\error414\AppData\Local\Temp\ccvF5ZKq.debug.temp.o
                                0x9ab (size before relaxing)
 .debug_str     0x0000ce38       0x6a C:\Users\error414\AppData\Local\Temp\ccQfgE9X.debug.temp.o
                                0x9ab (size before relaxing)
 .debug_str     0x0000cea2       0x54 C:\Users\error414\AppData\Local\Temp\ccfykadz.debug.temp.o
                                0x1f8 (size before relaxing)
 .debug_str     0x0000cef6       0x6a C:\Users\error414\AppData\Local\Temp\ccujiSS9.debug.temp.o
                                0x9ab (size before relaxing)
 .debug_str     0x0000cf60       0x54 C:\Users\error414\AppData\Local\Temp\ccBOPNKK.debug.temp.o
                                0x1f8 (size before relaxing)
 .debug_str     0x0000cfb4       0x54 C:\Users\error414\AppData\Local\Temp\ccSInsGk.debug.temp.o
                                0x1f8 (size before relaxing)
 .debug_str     0x0000d008       0x54 C:\Users\error414\AppData\Local\Temp\cc10tPTU.debug.temp.o
                                0x1f8 (size before relaxing)
 .debug_str     0x0000d05c       0x54 C:\Users\error414\AppData\Local\Temp\cc2uWh4t.debug.temp.o
                                0x1f8 (size before relaxing)
 .debug_str     0x0000d0b0       0x5f C:\Users\error414\AppData\Local\Temp\cchSFYr3.debug.temp.o
                                0x203 (size before relaxing)
 .debug_str     0x0000d10f       0x6a C:\Users\error414\AppData\Local\Temp\ccUxyy8C.debug.temp.o
                                0x9ab (size before relaxing)
 .debug_str     0x0000d179       0x54 C:\Users\error414\AppData\Local\Temp\ccFrMQBg.debug.temp.o
                                0x1f8 (size before relaxing)
 .debug_str     0x0000d1cd       0x54 C:\Users\error414\AppData\Local\Temp\ccuFbosU.debug.temp.o
                                0x1f8 (size before relaxing)
 .debug_str     0x0000d221       0x54 C:\Users\error414\AppData\Local\Temp\cc32lDlx.debug.temp.o
                                0x1f8 (size before relaxing)
 .debug_str     0x0000d275       0x6a C:\Users\error414\AppData\Local\Temp\ccK2LZqa.debug.temp.o
                                0x9ab (size before relaxing)
 .debug_str     0x0000d2df       0x54 C:\Users\error414\AppData\Local\Temp\cc1WHeFN.debug.temp.o
                                0x1f8 (size before relaxing)
 .debug_str     0x0000d333       0x6a C:\Users\error414\AppData\Local\Temp\cci1gbXp.debug.temp.o
                                0x9ab (size before relaxing)
 .debug_str     0x0000d39d       0x54 C:\Users\error414\AppData\Local\Temp\ccHlOts2.debug.temp.o
                                0x1f8 (size before relaxing)
 .debug_str     0x0000d3f1       0x6a C:\Users\error414\AppData\Local\Temp\ccs7Jw5E.debug.temp.o
                                0x9ab (size before relaxing)
 .debug_str     0x0000d45b       0x6a C:\Users\error414\AppData\Local\Temp\ccXwU8Kg.debug.temp.o
                                0x9ab (size before relaxing)
 .debug_str     0x0000d4c5       0x53 C:\Users\error414\AppData\Local\Temp\ccAUP6EW.debug.temp.o
                                0x1f7 (size before relaxing)
 .debug_str     0x0000d518       0x54 C:\Users\error414\AppData\Local\Temp\ccNmMANC.debug.temp.o
                                0x1f8 (size before relaxing)
 .debug_str     0x0000d56c       0x50 C:\Users\error414\AppData\Local\Temp\ccOyvEYh.debug.temp.o
                                0x1f4 (size before relaxing)
 .debug_str     0x0000d5bc       0x4f C:\Users\error414\AppData\Local\Temp\cc1WfrhX.debug.temp.o
                                0x1f3 (size before relaxing)
 .debug_str     0x0000d60b       0x6e C:\Users\error414\AppData\Local\Temp\ccKP7VMB.debug.temp.o
                                0x9a0 (size before relaxing)
 .debug_str     0x0000d679       0x6e C:\Users\error414\AppData\Local\Temp\cc55VpDg.debug.temp.o
                                0x9a0 (size before relaxing)
 .debug_str     0x0000d6e7       0x6e C:\Users\error414\AppData\Local\Temp\ccQ1SKCV.debug.temp.o
                                0x9a0 (size before relaxing)
 .debug_str     0x0000d755       0x6e C:\Users\error414\AppData\Local\Temp\ccBtuiAz.debug.temp.o
                                0x9a0 (size before relaxing)
 .debug_str     0x0000d7c3       0x6e C:\Users\error414\AppData\Local\Temp\ccajJQHd.debug.temp.o
                                0x9a0 (size before relaxing)
 .debug_str     0x0000d831       0x4c C:\Users\error414\AppData\Local\Temp\cc3GAM2R.debug.temp.o
                                0x1d9 (size before relaxing)
 .debug_str     0x0000d87d       0x50 C:\Users\error414\AppData\Local\Temp\ccMjes1z.debug.temp.o
                                0x1dd (size before relaxing)
 .debug_str     0x0000d8cd       0x4f C:\Users\error414\AppData\Local\Temp\cczsFfTg.debug.temp.o
                                0x1dc (size before relaxing)
 .debug_str     0x0000d91c       0x50 C:\Users\error414\AppData\Local\Temp\ccQit95X.debug.temp.o
                                0x1f4 (size before relaxing)
 .debug_str     0x0000d96c      0x291 C:\Users\error414\AppData\Local\Temp\ccRMvClE.debug.temp.o
                                0xe6f (size before relaxing)
 .debug_str     0x0000dbfd       0xac C:\Users\error414\AppData\Local\Temp\ccaqSXTk.debug.temp.o
                                0xd02 (size before relaxing)
 .debug_str     0x0000dca9       0xa5 C:\Users\error414\AppData\Local\Temp\ccZRcbB1.debug.temp.o
                                0x26b (size before relaxing)
 .debug_str     0x0000dd4e       0x46 C:\Users\error414\AppData\Local\Temp\cci3AC0L.debug.temp.o
                                0x1e4 (size before relaxing)
 .debug_str     0x0000dd94      0x167 C:\Users\error414\AppData\Local\Temp\cczns81v.debug.temp.o
                                0x5ac (size before relaxing)
 .debug_str     0x0000defb       0x8f C:\Users\error414\AppData\Local\Temp\cciqJvcg.debug.temp.o
                                0x36e (size before relaxing)
 .debug_str     0x0000df8a       0x46 C:\Users\error414\AppData\Local\Temp\ccNj15uZ.debug.temp.o
                                0x1ea (size before relaxing)
 .debug_str     0x0000dfd0       0xe4 C:\Users\error414\AppData\Local\Temp\ccgCuj4I.debug.temp.o
                                0x3cc (size before relaxing)
 .debug_str     0x0000e0b4       0x47 C:\Users\error414\AppData\Local\Temp\ccDhNIBr.debug.temp.o
                                0x1d4 (size before relaxing)
 .debug_str     0x0000e0fb       0x44 C:\Users\error414\AppData\Local\Temp\ccMhs8ia.debug.temp.o
                                0x1d1 (size before relaxing)
 .debug_str     0x0000e13f      0x132 C:\Users\error414\AppData\Local\Temp\cc7DDUdT.debug.temp.o
                                0x615 (size before relaxing)
 .debug_str     0x0000e271      0x1b3 C:\Users\error414\AppData\Local\Temp\ccIioqgC.debug.temp.o
                                0x3c2 (size before relaxing)
 .debug_str     0x0000e424       0x45 C:\Users\error414\AppData\Local\Temp\ccrLAOXo.debug.temp.o
                                0x1d2 (size before relaxing)
 .debug_str     0x0000e469      0x103 C:\Users\error414\AppData\Local\Temp\ccCAbzTb.debug.temp.o
                                0x331 (size before relaxing)
 .debug_str     0x0000e56c      0x294 C:\Users\error414\AppData\Local\Temp\ccvwodYY.debug.temp.o
                                0x531 (size before relaxing)
 .debug_str     0x0000e800      0x107 C:\Users\error414\AppData\Local\Temp\cc4vOy5K.debug.temp.o
                                0x334 (size before relaxing)
 .debug_str     0x0000e907      0x22d C:\Users\error414\AppData\Local\Temp\ccNEYCkx.debug.temp.o
                                0x533 (size before relaxing)
 .debug_str     0x0000eb34       0x47 C:\Users\error414\AppData\Local\Temp\cc2B6yIj.debug.temp.o
                                0x150 (size before relaxing)
 .debug_str     0x0000eb7b      0x368 C:\Users\error414\AppData\Local\Temp\ccJr9Zk6.debug.temp.o
                                0x7d2 (size before relaxing)
 .debug_str     0x0000eee3       0x48 C:\Users\error414\AppData\Local\Temp\ccKFrf3R.debug.temp.o
                                0x1ec (size before relaxing)
 .debug_str     0x0000ef2b       0x80 C:\Users\error414\AppData\Local\Temp\cc3o5RYD.debug.temp.o
                                0x26f (size before relaxing)
 .debug_str     0x0000efab      0x8d3 C:\Users\error414\AppData\Local\Temp\ccoHEHSo.debug.temp.o
                               0x16a6 (size before relaxing)
 .debug_str     0x0000f87e       0x4f C:\Users\error414\AppData\Local\Temp\ccdpTT09.debug.temp.o
                                0x1f3 (size before relaxing)
 .debug_str     0x0000f8cd      0x958 C:\Users\error414\AppData\Local\Temp\ccyV5XhV.debug.temp.o
                               0x29a1 (size before relaxing)
 .debug_str     0x00010225      0x13d C:\Users\error414\AppData\Local\Temp\ccjBAElK.debug.temp.o
                               0x27a3 (size before relaxing)
 .debug_str     0x00010362       0x52 C:\Users\error414\AppData\Local\Temp\ccWKgmzz.debug.temp.o
                                0x1f6 (size before relaxing)
 .debug_str     0x000103b4      0x518 C:\Users\error414\AppData\Local\Temp\ccTqgUVo.debug.temp.o
                               0x26ec (size before relaxing)
 .debug_str     0x000108cc      0x2f2 C:\Users\error414\AppData\Local\Temp\ccUSL8Pd.debug.temp.o
                               0x1e0d (size before relaxing)
 .debug_str     0x00010bbe      0x222 C:\Users\error414\AppData\Local\Temp\ccHXsbZ1.debug.temp.o
                               0x11c6 (size before relaxing)
 .debug_str     0x00010de0      0x73e C:\Users\error414\AppData\Local\Temp\cc2zyWkP.debug.temp.o
                               0x2a9b (size before relaxing)
 .debug_str     0x0001151e      0x4b5 C:\Users\error414\AppData\Local\Temp\ccV3SzPC.debug.temp.o
                               0x272b (size before relaxing)
 .debug_str     0x000119d3      0x3d8 C:\Users\error414\AppData\Local\Temp\ccOXmjwq.debug.temp.o
                               0x2406 (size before relaxing)
 .debug_str     0x00011dab      0x922 C:\Users\error414\AppData\Local\Temp\ccft3flh.debug.temp.o
                               0x2718 (size before relaxing)
 .debug_str     0x000126cd      0x1a7 C:\Users\error414\AppData\Local\Temp\cc6DS3i8.debug.temp.o
                               0x1b59 (size before relaxing)
 .debug_str     0x00012874      0x23f C:\Users\error414\AppData\Local\Temp\ccRVGqCY.debug.temp.o
                               0x1c5e (size before relaxing)
 .debug_str     0x00012ab3      0x449 C:\Users\error414\AppData\Local\Temp\ccsAd7fO.debug.temp.o
                               0x2742 (size before relaxing)
 .debug_str     0x00012efc      0x597 C:\Users\error414\AppData\Local\Temp\ccjbi26D.debug.temp.o
                               0x2d44 (size before relaxing)
 .debug_str     0x00013493      0x358 C:\Users\error414\AppData\Local\Temp\ccgRRcau.debug.temp.o
                               0x1f7d (size before relaxing)
 .debug_str     0x000137eb      0x24a C:\Users\error414\AppData\Local\Temp\ccTGlJWn.debug.temp.o
                               0x22ed (size before relaxing)
 .debug_str     0x00013a35      0x14a C:\Users\error414\AppData\Local\Temp\ccu5DA3g.debug.temp.o
                               0x21a4 (size before relaxing)
 .debug_str     0x00013b7f       0x4d C:\Users\error414\AppData\Local\Temp\cc5JyRZ9.debug.temp.o
                                0x1da (size before relaxing)
 .debug_str     0x00013bcc      0x432 C:\Users\error414\AppData\Local\Temp\ccsful41.debug.temp.o
                               0x217e (size before relaxing)
 .debug_str     0x00013ffe       0x48 C:\Users\error414\AppData\Local\Temp\ccDUdrpU.debug.temp.o
                                0x1d5 (size before relaxing)
 .debug_str     0x00014046      0x128 C:\Users\error414\AppData\Local\Temp\ccwq7nzQ.debug.temp.o
                               0x1647 (size before relaxing)
 .debug_str     0x0001416e      0x2bc C:\Users\error414\AppData\Local\Temp\ccr1gwbM.debug.temp.o
                               0x1eb0 (size before relaxing)
 .debug_str     0x0001442a      0x3ae C:\Users\error414\AppData\Local\Temp\ccw5qUaI.debug.temp.o
                               0x26f1 (size before relaxing)
 .debug_str     0x000147d8      0x258 C:\Users\error414\AppData\Local\Temp\ccjQJJuD.debug.temp.o
                               0x2668 (size before relaxing)
 .debug_str     0x00014a30      0x10c C:\Users\error414\AppData\Local\Temp\ccavGv5B.debug.temp.o
                                0xfa1 (size before relaxing)
 .debug_str     0x00014b3c       0x4f C:\Users\error414\AppData\Local\Temp\cclGW7OA.debug.temp.o
                                0x1dc (size before relaxing)
 .debug_str     0x00014b8b      0x4ce C:\Users\error414\AppData\Local\Temp\ccKurbDA.debug.temp.o
                               0x2962 (size before relaxing)
 .debug_str     0x00015059      0x3d2 C:\Users\error414\AppData\Local\Temp\ccXmxV8z.debug.temp.o
                               0x2b25 (size before relaxing)
 .debug_str     0x0001542b      0x22f C:\Users\error414\AppData\Local\Temp\cc07nUnD.debug.temp.o
                               0x20cf (size before relaxing)
 .debug_str     0x0001565a      0x2ba C:\Users\error414\AppData\Local\Temp\ccnhmDKG.debug.temp.o
                               0x176f (size before relaxing)
 .debug_str     0x00015914       0x4c C:\Users\error414\AppData\Local\Temp\cca8DyeJ.debug.temp.o
                                0x1d9 (size before relaxing)
 .debug_str     0x00015960       0xfa C:\Users\error414\AppData\Local\Temp\cczAHRWL.debug.temp.o
                               0x1e77 (size before relaxing)
 .debug_str     0x00015a5a      0x378 C:\Users\error414\AppData\Local\Temp\ccuRI2NO.debug.temp.o
                               0x20d1 (size before relaxing)
 .debug_str     0x00015dd2      0x42a C:\Users\error414\AppData\Local\Temp\cc91aXlT.debug.temp.o
                               0x29a4 (size before relaxing)
 .debug_str     0x000161fc      0x6ae C:\Users\error414\AppData\Local\Temp\cco78J2X.debug.temp.o
                               0x2e7c (size before relaxing)
 .debug_str     0x000168aa      0x1cf C:\Users\error414\AppData\Local\Temp\ccjk2zS4.debug.temp.o
                               0x1fa4 (size before relaxing)
 .debug_str     0x00016a79      0x400 C:\Users\error414\AppData\Local\Temp\ccACiFVb.debug.temp.o
                               0x224e (size before relaxing)
 .debug_str     0x00016e79      0x10f C:\Users\error414\AppData\Local\Temp\cc59qeVl.debug.temp.o
                                0xa03 (size before relaxing)
 .debug_str     0x00016f88      0x19f C:\Users\error414\AppData\Local\Temp\cclbZe3n.debug.temp.o
                                0x817 (size before relaxing)
 .debug_str     0x00017127       0x7e C:\Users\error414\AppData\Local\Temp\ccnpzXdp.debug.temp.o
                                0x66e (size before relaxing)
 .debug_str     0x000171a5       0xbe C:\Users\error414\AppData\Local\Temp\ccPWg2Cq.debug.temp.o
                                0x414 (size before relaxing)
 .debug_str     0x00017263       0x5e C:\Users\error414\AppData\Local\Temp\ccJIU6as.debug.temp.o
                                0x94c (size before relaxing)
 .debug_str     0x000172c1       0x57 C:\Users\error414\AppData\Local\Temp\ccPcmjVt.debug.temp.o
                                0x8e8 (size before relaxing)
 .debug_str     0x00017318       0x69 C:\Users\error414\AppData\Local\Temp\ccP3CHDu.debug.temp.o
                                0x8fa (size before relaxing)
 .debug_str     0x00017381       0x54 C:\Users\error414\AppData\Local\Temp\ccfKxAAv.debug.temp.o
                                0x8e5 (size before relaxing)
 .debug_str     0x000173d5       0x54 C:\Users\error414\AppData\Local\Temp\ccpQFBiy.debug.temp.o
                                0x8e5 (size before relaxing)
 .debug_str     0x00017429       0x5d C:\Users\error414\AppData\Local\Temp\ccPSlRdB.debug.temp.o
                                0x8ee (size before relaxing)
 .debug_str     0x00017486       0x5d C:\Users\error414\AppData\Local\Temp\ccNKDlRH.debug.temp.o
                                0x8ee (size before relaxing)
 .debug_str     0x000174e3       0x51 C:\Users\error414\AppData\Local\Temp\cc9eNGDO.debug.temp.o
                                0x8e2 (size before relaxing)
 .debug_str     0x00017534       0x4e C:\Users\error414\AppData\Local\Temp\ccduxqEV.debug.temp.o
                                0x8df (size before relaxing)
 .debug_str     0x00017582       0x46 C:\Users\error414\AppData\Local\Temp\ccL0CeM1.debug.temp.o
                                0x8dc (size before relaxing)
 .debug_str     0x000175c8       0x4b C:\Users\error414\AppData\Local\Temp\cctG2vQa.debug.temp.o
                                0x8dc (size before relaxing)
 .debug_str     0x00017613       0x51 C:\Users\error414\AppData\Local\Temp\ccNjfG3j.debug.temp.o
                                0x8e2 (size before relaxing)
 .debug_str     0x00017664       0x4c C:\Users\error414\AppData\Local\Temp\cc30wxks.debug.temp.o
                                0x8b7 (size before relaxing)
 .debug_str     0x000176b0       0x4c C:\Users\error414\AppData\Local\Temp\ccPC5c0z.debug.temp.o
                                0x8b7 (size before relaxing)
 .debug_str     0x000176fc       0x4c C:\Users\error414\AppData\Local\Temp\ccb99KOH.debug.temp.o
                                0x8b7 (size before relaxing)
 .debug_str     0x00017748       0x57 C:\Users\error414\AppData\Local\Temp\ccL41FQP.debug.temp.o
                                0x8c2 (size before relaxing)
 .debug_str     0x0001779f       0x69 C:\Users\error414\AppData\Local\Temp\ccHril0X.debug.temp.o
                                0x8d4 (size before relaxing)
 .debug_str     0x00017808       0x5a C:\Users\error414\AppData\Local\Temp\ccnsNzc5.debug.temp.o
                                0x8c5 (size before relaxing)
 .debug_str     0x00017862       0x46 C:\Users\error414\AppData\Local\Temp\ccDPCRPf.debug.temp.o
                                0x8c5 (size before relaxing)
 .debug_str     0x000178a8       0x46 C:\Users\error414\AppData\Local\Temp\cc9u1SAq.debug.temp.o
                                0x8b1 (size before relaxing)
 .debug_str     0x000178ee       0x46 C:\Users\error414\AppData\Local\Temp\ccZcw9yB.debug.temp.o
                                0x8b1 (size before relaxing)
 .debug_str     0x00017934       0x46 C:\Users\error414\AppData\Local\Temp\ccx9OpHM.debug.temp.o
                                0x8b1 (size before relaxing)
 .debug_str     0x0001797a       0x46 C:\Users\error414\AppData\Local\Temp\ccL9knSW.debug.temp.o
                                0x8c0 (size before relaxing)
 .debug_str     0x000179c0       0x46 C:\Users\error414\AppData\Local\Temp\ccFdcec7.debug.temp.o
                                0x8c0 (size before relaxing)
 .debug_str     0x00017a06       0x4c C:\Users\error414\AppData\Local\Temp\ccvBEaIh.debug.temp.o
                                0x8b7 (size before relaxing)
 .debug_str     0x00017a52       0x5b C:\Users\error414\AppData\Local\Temp\ccrEAkcr.debug.temp.o
                                0x8d5 (size before relaxing)
 .debug_str     0x00017aad       0x4c C:\Users\error414\AppData\Local\Temp\ccTFZZUA.debug.temp.o
                                0x8d5 (size before relaxing)
 .debug_str     0x00017af9       0x4c C:\Users\error414\AppData\Local\Temp\cch1ZKPK.debug.temp.o
                                0x8d5 (size before relaxing)
 .debug_str     0x00017b45      0x12f C:\Users\error414\AppData\Local\Temp\ccnzbStY.debug.temp.o
                                0xc85 (size before relaxing)
 .debug_str     0x00017c74      0x11b C:\Users\error414\AppData\Local\Temp\cc5Ewqle.debug.temp.o
                                0xe08 (size before relaxing)
 .debug_str     0x00017d8f      0x16e C:\Users\error414\AppData\Local\Temp\ccbp2mqu.debug.temp.o
                               0x165e (size before relaxing)
 .debug_str     0x00017efd      0x2bc C:\Users\error414\AppData\Local\Temp\ccRbgiFK.debug.temp.o
                               0x1b50 (size before relaxing)
 .debug_str     0x000181b9      0x124 C:\Users\error414\AppData\Local\Temp\cct03kv2.debug.temp.o
                                0x89a (size before relaxing)
 .debug_str     0x000182dd       0xee C:\Users\error414\AppData\Local\Temp\cczK3Szk.debug.temp.o
                                0x2c7 (size before relaxing)
 .debug_str     0x000183cb      0x122 C:\Users\error414\AppData\Local\Temp\ccvh70GB.debug.temp.o
                               0x1226 (size before relaxing)
 .debug_str     0x000184ed      0x272 C:\Users\error414\AppData\Local\Temp\ccF3sSVS.debug.temp.o
                                0xb8d (size before relaxing)
 .debug_str     0x0001875f       0x84 C:\Users\error414\AppData\Local\Temp\cc9nr7na.debug.temp.o
                                0x6a9 (size before relaxing)
 .debug_str     0x000187e3       0x88 C:\Users\error414\AppData\Local\Temp\ccPEUGPq.debug.temp.o
                                0x369 (size before relaxing)
 .debug_str     0x0001886b       0xb4 CMakeFiles/stm32-chibios.dir/C_/Users/error414/Documents/STM32/meteo-F4/ChibiOS/os/common/startup/ARMCMx/compilers/GCC/crt0_v7m.S.obj
 .debug_str     0x0001891f       0x64 CMakeFiles/stm32-chibios.dir/C_/Users/error414/Documents/STM32/meteo-F4/ChibiOS/os/common/startup/ARMCMx/compilers/GCC/vectors.S.obj
                                 0xb3 (size before relaxing)
 .debug_str     0x00018983       0x65 CMakeFiles/stm32-chibios.dir/C_/Users/error414/Documents/STM32/meteo-F4/ChibiOS/os/common/ports/ARMv7-M/compilers/GCC/chcoreasm.S.obj
                                 0xb4 (size before relaxing)

.comment        0x00000000       0x4d
 .comment       0x00000000       0x4d C:\Users\error414\AppData\Local\Temp\stm32-chibios.c1tKpx.ltrans0.ltrans.o
                                 0x4e (size before relaxing)
 .comment       0x0000004d       0x4e C:\Users\error414\AppData\Local\Temp\stm32-chibios.c1tKpx.ltrans1.ltrans.o
 .comment       0x0000004d       0x4e C:\Users\error414\AppData\Local\Temp\stm32-chibios.c1tKpx.ltrans2.ltrans.o
 .comment       0x0000004d       0x4e C:\Users\error414\AppData\Local\Temp\stm32-chibios.c1tKpx.ltrans3.ltrans.o
 .comment       0x0000004d       0x4e C:\Users\error414\AppData\Local\Temp\ccTMTdwX.debug.temp.o
 .comment       0x0000004d       0x4e C:\Users\error414\AppData\Local\Temp\cc4XNc53.debug.temp.o
 .comment       0x0000004d       0x4e C:\Users\error414\AppData\Local\Temp\ccBKBzRa.debug.temp.o
 .comment       0x0000004d       0x4e C:\Users\error414\AppData\Local\Temp\ccs3IMMh.debug.temp.o
 .comment       0x0000004d       0x4e C:\Users\error414\AppData\Local\Temp\ccfSnk2n.debug.temp.o
 .comment       0x0000004d       0x4e C:\Users\error414\AppData\Local\Temp\ccSdgPHt.debug.temp.o
 .comment       0x0000004d       0x4e C:\Users\error414\AppData\Local\Temp\ccNM8uvC.debug.temp.o
 .comment       0x0000004d       0x4e C:\Users\error414\AppData\Local\Temp\ccABnNzL.debug.temp.o
 .comment       0x0000004d       0x4e C:\Users\error414\AppData\Local\Temp\ccDwFXWU.debug.temp.o
 .comment       0x0000004d       0x4e C:\Users\error414\AppData\Local\Temp\ccgmlOm3.debug.temp.o
 .comment       0x0000004d       0x4e C:\Users\error414\AppData\Local\Temp\ccf7SgUb.debug.temp.o
 .comment       0x0000004d       0x4e C:\Users\error414\AppData\Local\Temp\ccCwB7Ek.debug.temp.o
 .comment       0x0000004d       0x4e C:\Users\error414\AppData\Local\Temp\ccfYmjps.debug.temp.o
 .comment       0x0000004d       0x4e C:\Users\error414\AppData\Local\Temp\ccM04ECD.debug.temp.o
 .comment       0x0000004d       0x4e C:\Users\error414\AppData\Local\Temp\ccfT0fJN.debug.temp.o
 .comment       0x0000004d       0x4e C:\Users\error414\AppData\Local\Temp\cca0862X.debug.temp.o
 .comment       0x0000004d       0x4e C:\Users\error414\AppData\Local\Temp\cclpQHu8.debug.temp.o
 .comment       0x0000004d       0x4e C:\Users\error414\AppData\Local\Temp\ccuhVuUh.debug.temp.o
 .comment       0x0000004d       0x4e C:\Users\error414\AppData\Local\Temp\cchAH0Mv.debug.temp.o
 .comment       0x0000004d       0x4e C:\Users\error414\AppData\Local\Temp\cca4hI7I.debug.temp.o
 .comment       0x0000004d       0x4e C:\Users\error414\AppData\Local\Temp\cctnEYEV.debug.temp.o
 .comment       0x0000004d       0x4e C:\Users\error414\AppData\Local\Temp\cc87oZj8.debug.temp.o
 .comment       0x0000004d       0x4e C:\Users\error414\AppData\Local\Temp\ccZeGmcl.debug.temp.o
 .comment       0x0000004d       0x4e C:\Users\error414\AppData\Local\Temp\cccxP53w.debug.temp.o
 .comment       0x0000004d       0x4e C:\Users\error414\AppData\Local\Temp\ccXIIEVM.debug.temp.o
 .comment       0x0000004d       0x4e C:\Users\error414\AppData\Local\Temp\ccY2Dgy2.debug.temp.o
 .comment       0x0000004d       0x4e C:\Users\error414\AppData\Local\Temp\cczrIsnh.debug.temp.o
 .comment       0x0000004d       0x4e C:\Users\error414\AppData\Local\Temp\ccsbDokw.debug.temp.o
 .comment       0x0000004d       0x4e C:\Users\error414\AppData\Local\Temp\ccZVBdqL.debug.temp.o
 .comment       0x0000004d       0x4e C:\Users\error414\AppData\Local\Temp\ccuVCzI3.debug.temp.o
 .comment       0x0000004d       0x4e C:\Users\error414\AppData\Local\Temp\ccFyvmll.debug.temp.o
 .comment       0x0000004d       0x4e C:\Users\error414\AppData\Local\Temp\ccEFk6nC.debug.temp.o
 .comment       0x0000004d       0x4e C:\Users\error414\AppData\Local\Temp\ccfa6OLT.debug.temp.o
 .comment       0x0000004d       0x4e C:\Users\error414\AppData\Local\Temp\ccWtQoda.debug.temp.o
 .comment       0x0000004d       0x4e C:\Users\error414\AppData\Local\Temp\ccL3ykSq.debug.temp.o
 .comment       0x0000004d       0x4e C:\Users\error414\AppData\Local\Temp\ccsJCYPL.debug.temp.o
 .comment       0x0000004d       0x4e C:\Users\error414\AppData\Local\Temp\ccLIC4O5.debug.temp.o
 .comment       0x0000004d       0x4e C:\Users\error414\AppData\Local\Temp\ccSbz7dp.debug.temp.o
 .comment       0x0000004d       0x4e C:\Users\error414\AppData\Local\Temp\cclmIu6H.debug.temp.o
 .comment       0x0000004d       0x4e C:\Users\error414\AppData\Local\Temp\ccCGFtf1.debug.temp.o
 .comment       0x0000004d       0x4e C:\Users\error414\AppData\Local\Temp\ccvOorzo.debug.temp.o
 .comment       0x0000004d       0x4e C:\Users\error414\AppData\Local\Temp\ccIk7WUK.debug.temp.o
 .comment       0x0000004d       0x4e C:\Users\error414\AppData\Local\Temp\ccDBqRu7.debug.temp.o
 .comment       0x0000004d       0x4e C:\Users\error414\AppData\Local\Temp\ccEB5jgt.debug.temp.o
 .comment       0x0000004d       0x4e C:\Users\error414\AppData\Local\Temp\ccpRWCqO.debug.temp.o
 .comment       0x0000004d       0x4e C:\Users\error414\AppData\Local\Temp\ccGVLNJ9.debug.temp.o
 .comment       0x0000004d       0x4e C:\Users\error414\AppData\Local\Temp\cc5Xlkhz.debug.temp.o
 .comment       0x0000004d       0x4e C:\Users\error414\AppData\Local\Temp\ccuq5W0Y.debug.temp.o
 .comment       0x0000004d       0x4e C:\Users\error414\AppData\Local\Temp\ccXeba6n.debug.temp.o
 .comment       0x0000004d       0x4e C:\Users\error414\AppData\Local\Temp\ccuzQhhM.debug.temp.o
 .comment       0x0000004d       0x4e C:\Users\error414\AppData\Local\Temp\cc5F15Z9.debug.temp.o
 .comment       0x0000004d       0x4e C:\Users\error414\AppData\Local\Temp\ccqcqaCB.debug.temp.o
 .comment       0x0000004d       0x4e C:\Users\error414\AppData\Local\Temp\ccjA36m3.debug.temp.o
 .comment       0x0000004d       0x4e C:\Users\error414\AppData\Local\Temp\ccCDPUgv.debug.temp.o
 .comment       0x0000004d       0x4e C:\Users\error414\AppData\Local\Temp\cch8ZsiX.debug.temp.o
 .comment       0x0000004d       0x4e C:\Users\error414\AppData\Local\Temp\ccuuhHmo.debug.temp.o
 .comment       0x0000004d       0x4e C:\Users\error414\AppData\Local\Temp\ccrEqkFP.debug.temp.o
 .comment       0x0000004d       0x4e C:\Users\error414\AppData\Local\Temp\ccUCxP6g.debug.temp.o
 .comment       0x0000004d       0x4e C:\Users\error414\AppData\Local\Temp\ccRe1TzH.debug.temp.o
 .comment       0x0000004d       0x4e C:\Users\error414\AppData\Local\Temp\cc4M2cg8.debug.temp.o
 .comment       0x0000004d       0x4e C:\Users\error414\AppData\Local\Temp\cc3Fqw6y.debug.temp.o
 .comment       0x0000004d       0x4e C:\Users\error414\AppData\Local\Temp\ccKFixZY.debug.temp.o
 .comment       0x0000004d       0x4e C:\Users\error414\AppData\Local\Temp\ccN6yi0o.debug.temp.o
 .comment       0x0000004d       0x4e C:\Users\error414\AppData\Local\Temp\cckjwV9O.debug.temp.o
 .comment       0x0000004d       0x4e C:\Users\error414\AppData\Local\Temp\ccpnIqsf.debug.temp.o
 .comment       0x0000004d       0x4e C:\Users\error414\AppData\Local\Temp\ccyNMivJ.debug.temp.o
 .comment       0x0000004d       0x4e C:\Users\error414\AppData\Local\Temp\ccz92ggc.debug.temp.o
 .comment       0x0000004d       0x4e C:\Users\error414\AppData\Local\Temp\ccaqP79E.debug.temp.o
 .comment       0x0000004d       0x4e C:\Users\error414\AppData\Local\Temp\ccFn5hAa.debug.temp.o
 .comment       0x0000004d       0x4e C:\Users\error414\AppData\Local\Temp\ccuTXPdG.debug.temp.o
 .comment       0x0000004d       0x4e C:\Users\error414\AppData\Local\Temp\ccP3aqOa.debug.temp.o
 .comment       0x0000004d       0x4e C:\Users\error414\AppData\Local\Temp\ccUnhUxF.debug.temp.o
 .comment       0x0000004d       0x4e C:\Users\error414\AppData\Local\Temp\ccvwlgqa.debug.temp.o
 .comment       0x0000004d       0x4e C:\Users\error414\AppData\Local\Temp\ccuFdjwI.debug.temp.o
 .comment       0x0000004d       0x4e C:\Users\error414\AppData\Local\Temp\ccJKDAPg.debug.temp.o
 .comment       0x0000004d       0x4e C:\Users\error414\AppData\Local\Temp\ccc5lBgP.debug.temp.o
 .comment       0x0000004d       0x4e C:\Users\error414\AppData\Local\Temp\ccHYZOFm.debug.temp.o
 .comment       0x0000004d       0x4e C:\Users\error414\AppData\Local\Temp\ccQCJ6uT.debug.temp.o
 .comment       0x0000004d       0x4e C:\Users\error414\AppData\Local\Temp\ccvF5ZKq.debug.temp.o
 .comment       0x0000004d       0x4e C:\Users\error414\AppData\Local\Temp\ccQfgE9X.debug.temp.o
 .comment       0x0000004d       0x4e C:\Users\error414\AppData\Local\Temp\ccfykadz.debug.temp.o
 .comment       0x0000004d       0x4e C:\Users\error414\AppData\Local\Temp\ccujiSS9.debug.temp.o
 .comment       0x0000004d       0x4e C:\Users\error414\AppData\Local\Temp\ccBOPNKK.debug.temp.o
 .comment       0x0000004d       0x4e C:\Users\error414\AppData\Local\Temp\ccSInsGk.debug.temp.o
 .comment       0x0000004d       0x4e C:\Users\error414\AppData\Local\Temp\cc10tPTU.debug.temp.o
 .comment       0x0000004d       0x4e C:\Users\error414\AppData\Local\Temp\cc2uWh4t.debug.temp.o
 .comment       0x0000004d       0x4e C:\Users\error414\AppData\Local\Temp\cchSFYr3.debug.temp.o
 .comment       0x0000004d       0x4e C:\Users\error414\AppData\Local\Temp\ccUxyy8C.debug.temp.o
 .comment       0x0000004d       0x4e C:\Users\error414\AppData\Local\Temp\ccFrMQBg.debug.temp.o
 .comment       0x0000004d       0x4e C:\Users\error414\AppData\Local\Temp\ccuFbosU.debug.temp.o
 .comment       0x0000004d       0x4e C:\Users\error414\AppData\Local\Temp\cc32lDlx.debug.temp.o
 .comment       0x0000004d       0x4e C:\Users\error414\AppData\Local\Temp\ccK2LZqa.debug.temp.o
 .comment       0x0000004d       0x4e C:\Users\error414\AppData\Local\Temp\cc1WHeFN.debug.temp.o
 .comment       0x0000004d       0x4e C:\Users\error414\AppData\Local\Temp\cci1gbXp.debug.temp.o
 .comment       0x0000004d       0x4e C:\Users\error414\AppData\Local\Temp\ccHlOts2.debug.temp.o
 .comment       0x0000004d       0x4e C:\Users\error414\AppData\Local\Temp\ccs7Jw5E.debug.temp.o
 .comment       0x0000004d       0x4e C:\Users\error414\AppData\Local\Temp\ccXwU8Kg.debug.temp.o
 .comment       0x0000004d       0x4e C:\Users\error414\AppData\Local\Temp\ccAUP6EW.debug.temp.o
 .comment       0x0000004d       0x4e C:\Users\error414\AppData\Local\Temp\ccNmMANC.debug.temp.o
 .comment       0x0000004d       0x4e C:\Users\error414\AppData\Local\Temp\ccOyvEYh.debug.temp.o
 .comment       0x0000004d       0x4e C:\Users\error414\AppData\Local\Temp\cc1WfrhX.debug.temp.o
 .comment       0x0000004d       0x4e C:\Users\error414\AppData\Local\Temp\ccKP7VMB.debug.temp.o
 .comment       0x0000004d       0x4e C:\Users\error414\AppData\Local\Temp\cc55VpDg.debug.temp.o
 .comment       0x0000004d       0x4e C:\Users\error414\AppData\Local\Temp\ccQ1SKCV.debug.temp.o
 .comment       0x0000004d       0x4e C:\Users\error414\AppData\Local\Temp\ccBtuiAz.debug.temp.o
 .comment       0x0000004d       0x4e C:\Users\error414\AppData\Local\Temp\ccajJQHd.debug.temp.o
 .comment       0x0000004d       0x4e C:\Users\error414\AppData\Local\Temp\cc3GAM2R.debug.temp.o
 .comment       0x0000004d       0x4e C:\Users\error414\AppData\Local\Temp\ccMjes1z.debug.temp.o
 .comment       0x0000004d       0x4e C:\Users\error414\AppData\Local\Temp\cczsFfTg.debug.temp.o
 .comment       0x0000004d       0x4e C:\Users\error414\AppData\Local\Temp\ccQit95X.debug.temp.o
 .comment       0x0000004d       0x4e C:\Users\error414\AppData\Local\Temp\ccRMvClE.debug.temp.o
 .comment       0x0000004d       0x4e C:\Users\error414\AppData\Local\Temp\ccaqSXTk.debug.temp.o
 .comment       0x0000004d       0x4e C:\Users\error414\AppData\Local\Temp\ccZRcbB1.debug.temp.o
 .comment       0x0000004d       0x4e C:\Users\error414\AppData\Local\Temp\cci3AC0L.debug.temp.o
 .comment       0x0000004d       0x4e C:\Users\error414\AppData\Local\Temp\cczns81v.debug.temp.o
 .comment       0x0000004d       0x4e C:\Users\error414\AppData\Local\Temp\cciqJvcg.debug.temp.o
 .comment       0x0000004d       0x4e C:\Users\error414\AppData\Local\Temp\ccNj15uZ.debug.temp.o
 .comment       0x0000004d       0x4e C:\Users\error414\AppData\Local\Temp\ccgCuj4I.debug.temp.o
 .comment       0x0000004d       0x4e C:\Users\error414\AppData\Local\Temp\ccDhNIBr.debug.temp.o
 .comment       0x0000004d       0x4e C:\Users\error414\AppData\Local\Temp\ccMhs8ia.debug.temp.o
 .comment       0x0000004d       0x4e C:\Users\error414\AppData\Local\Temp\cc7DDUdT.debug.temp.o
 .comment       0x0000004d       0x4e C:\Users\error414\AppData\Local\Temp\ccIioqgC.debug.temp.o
 .comment       0x0000004d       0x4e C:\Users\error414\AppData\Local\Temp\ccrLAOXo.debug.temp.o
 .comment       0x0000004d       0x4e C:\Users\error414\AppData\Local\Temp\ccCAbzTb.debug.temp.o
 .comment       0x0000004d       0x4e C:\Users\error414\AppData\Local\Temp\ccvwodYY.debug.temp.o
 .comment       0x0000004d       0x4e C:\Users\error414\AppData\Local\Temp\cc4vOy5K.debug.temp.o
 .comment       0x0000004d       0x4e C:\Users\error414\AppData\Local\Temp\ccNEYCkx.debug.temp.o
 .comment       0x0000004d       0x4e C:\Users\error414\AppData\Local\Temp\cc2B6yIj.debug.temp.o
 .comment       0x0000004d       0x4e C:\Users\error414\AppData\Local\Temp\ccJr9Zk6.debug.temp.o
 .comment       0x0000004d       0x4e C:\Users\error414\AppData\Local\Temp\ccKFrf3R.debug.temp.o
 .comment       0x0000004d       0x4e C:\Users\error414\AppData\Local\Temp\cc3o5RYD.debug.temp.o
 .comment       0x0000004d       0x4e C:\Users\error414\AppData\Local\Temp\ccoHEHSo.debug.temp.o
 .comment       0x0000004d       0x4e C:\Users\error414\AppData\Local\Temp\ccdpTT09.debug.temp.o
 .comment       0x0000004d       0x4e C:\Users\error414\AppData\Local\Temp\ccyV5XhV.debug.temp.o
 .comment       0x0000004d       0x4e C:\Users\error414\AppData\Local\Temp\ccjBAElK.debug.temp.o
 .comment       0x0000004d       0x4e C:\Users\error414\AppData\Local\Temp\ccWKgmzz.debug.temp.o
 .comment       0x0000004d       0x4e C:\Users\error414\AppData\Local\Temp\ccTqgUVo.debug.temp.o
 .comment       0x0000004d       0x4e C:\Users\error414\AppData\Local\Temp\ccUSL8Pd.debug.temp.o
 .comment       0x0000004d       0x4e C:\Users\error414\AppData\Local\Temp\ccHXsbZ1.debug.temp.o
 .comment       0x0000004d       0x4e C:\Users\error414\AppData\Local\Temp\cc2zyWkP.debug.temp.o
 .comment       0x0000004d       0x4e C:\Users\error414\AppData\Local\Temp\ccV3SzPC.debug.temp.o
 .comment       0x0000004d       0x4e C:\Users\error414\AppData\Local\Temp\ccOXmjwq.debug.temp.o
 .comment       0x0000004d       0x4e C:\Users\error414\AppData\Local\Temp\ccft3flh.debug.temp.o
 .comment       0x0000004d       0x4e C:\Users\error414\AppData\Local\Temp\cc6DS3i8.debug.temp.o
 .comment       0x0000004d       0x4e C:\Users\error414\AppData\Local\Temp\ccRVGqCY.debug.temp.o
 .comment       0x0000004d       0x4e C:\Users\error414\AppData\Local\Temp\ccsAd7fO.debug.temp.o
 .comment       0x0000004d       0x4e C:\Users\error414\AppData\Local\Temp\ccjbi26D.debug.temp.o
 .comment       0x0000004d       0x4e C:\Users\error414\AppData\Local\Temp\ccgRRcau.debug.temp.o
 .comment       0x0000004d       0x4e C:\Users\error414\AppData\Local\Temp\ccTGlJWn.debug.temp.o
 .comment       0x0000004d       0x4e C:\Users\error414\AppData\Local\Temp\ccu5DA3g.debug.temp.o
 .comment       0x0000004d       0x4e C:\Users\error414\AppData\Local\Temp\cc5JyRZ9.debug.temp.o
 .comment       0x0000004d       0x4e C:\Users\error414\AppData\Local\Temp\ccsful41.debug.temp.o
 .comment       0x0000004d       0x4e C:\Users\error414\AppData\Local\Temp\ccDUdrpU.debug.temp.o
 .comment       0x0000004d       0x4e C:\Users\error414\AppData\Local\Temp\ccwq7nzQ.debug.temp.o
 .comment       0x0000004d       0x4e C:\Users\error414\AppData\Local\Temp\ccr1gwbM.debug.temp.o
 .comment       0x0000004d       0x4e C:\Users\error414\AppData\Local\Temp\ccw5qUaI.debug.temp.o
 .comment       0x0000004d       0x4e C:\Users\error414\AppData\Local\Temp\ccjQJJuD.debug.temp.o
 .comment       0x0000004d       0x4e C:\Users\error414\AppData\Local\Temp\ccavGv5B.debug.temp.o
 .comment       0x0000004d       0x4e C:\Users\error414\AppData\Local\Temp\cclGW7OA.debug.temp.o
 .comment       0x0000004d       0x4e C:\Users\error414\AppData\Local\Temp\ccKurbDA.debug.temp.o
 .comment       0x0000004d       0x4e C:\Users\error414\AppData\Local\Temp\ccXmxV8z.debug.temp.o
 .comment       0x0000004d       0x4e C:\Users\error414\AppData\Local\Temp\cc07nUnD.debug.temp.o
 .comment       0x0000004d       0x4e C:\Users\error414\AppData\Local\Temp\ccnhmDKG.debug.temp.o
 .comment       0x0000004d       0x4e C:\Users\error414\AppData\Local\Temp\cca8DyeJ.debug.temp.o
 .comment       0x0000004d       0x4e C:\Users\error414\AppData\Local\Temp\cczAHRWL.debug.temp.o
 .comment       0x0000004d       0x4e C:\Users\error414\AppData\Local\Temp\ccuRI2NO.debug.temp.o
 .comment       0x0000004d       0x4e C:\Users\error414\AppData\Local\Temp\cc91aXlT.debug.temp.o
 .comment       0x0000004d       0x4e C:\Users\error414\AppData\Local\Temp\cco78J2X.debug.temp.o
 .comment       0x0000004d       0x4e C:\Users\error414\AppData\Local\Temp\ccjk2zS4.debug.temp.o
 .comment       0x0000004d       0x4e C:\Users\error414\AppData\Local\Temp\ccACiFVb.debug.temp.o
 .comment       0x0000004d       0x4e C:\Users\error414\AppData\Local\Temp\cc59qeVl.debug.temp.o
 .comment       0x0000004d       0x4e C:\Users\error414\AppData\Local\Temp\cclbZe3n.debug.temp.o
 .comment       0x0000004d       0x4e C:\Users\error414\AppData\Local\Temp\ccnpzXdp.debug.temp.o
 .comment       0x0000004d       0x4e C:\Users\error414\AppData\Local\Temp\ccPWg2Cq.debug.temp.o
 .comment       0x0000004d       0x4e C:\Users\error414\AppData\Local\Temp\ccJIU6as.debug.temp.o
 .comment       0x0000004d       0x4e C:\Users\error414\AppData\Local\Temp\ccPcmjVt.debug.temp.o
 .comment       0x0000004d       0x4e C:\Users\error414\AppData\Local\Temp\ccP3CHDu.debug.temp.o
 .comment       0x0000004d       0x4e C:\Users\error414\AppData\Local\Temp\ccfKxAAv.debug.temp.o
 .comment       0x0000004d       0x4e C:\Users\error414\AppData\Local\Temp\ccpQFBiy.debug.temp.o
 .comment       0x0000004d       0x4e C:\Users\error414\AppData\Local\Temp\ccPSlRdB.debug.temp.o
 .comment       0x0000004d       0x4e C:\Users\error414\AppData\Local\Temp\ccNKDlRH.debug.temp.o
 .comment       0x0000004d       0x4e C:\Users\error414\AppData\Local\Temp\cc9eNGDO.debug.temp.o
 .comment       0x0000004d       0x4e C:\Users\error414\AppData\Local\Temp\ccduxqEV.debug.temp.o
 .comment       0x0000004d       0x4e C:\Users\error414\AppData\Local\Temp\ccL0CeM1.debug.temp.o
 .comment       0x0000004d       0x4e C:\Users\error414\AppData\Local\Temp\cctG2vQa.debug.temp.o
 .comment       0x0000004d       0x4e C:\Users\error414\AppData\Local\Temp\ccNjfG3j.debug.temp.o
 .comment       0x0000004d       0x4e C:\Users\error414\AppData\Local\Temp\cc30wxks.debug.temp.o
 .comment       0x0000004d       0x4e C:\Users\error414\AppData\Local\Temp\ccPC5c0z.debug.temp.o
 .comment       0x0000004d       0x4e C:\Users\error414\AppData\Local\Temp\ccb99KOH.debug.temp.o
 .comment       0x0000004d       0x4e C:\Users\error414\AppData\Local\Temp\ccL41FQP.debug.temp.o
 .comment       0x0000004d       0x4e C:\Users\error414\AppData\Local\Temp\ccHril0X.debug.temp.o
 .comment       0x0000004d       0x4e C:\Users\error414\AppData\Local\Temp\ccnsNzc5.debug.temp.o
 .comment       0x0000004d       0x4e C:\Users\error414\AppData\Local\Temp\ccDPCRPf.debug.temp.o
 .comment       0x0000004d       0x4e C:\Users\error414\AppData\Local\Temp\cc9u1SAq.debug.temp.o
 .comment       0x0000004d       0x4e C:\Users\error414\AppData\Local\Temp\ccZcw9yB.debug.temp.o
 .comment       0x0000004d       0x4e C:\Users\error414\AppData\Local\Temp\ccx9OpHM.debug.temp.o
 .comment       0x0000004d       0x4e C:\Users\error414\AppData\Local\Temp\ccL9knSW.debug.temp.o
 .comment       0x0000004d       0x4e C:\Users\error414\AppData\Local\Temp\ccFdcec7.debug.temp.o
 .comment       0x0000004d       0x4e C:\Users\error414\AppData\Local\Temp\ccvBEaIh.debug.temp.o
 .comment       0x0000004d       0x4e C:\Users\error414\AppData\Local\Temp\ccrEAkcr.debug.temp.o
 .comment       0x0000004d       0x4e C:\Users\error414\AppData\Local\Temp\ccTFZZUA.debug.temp.o
 .comment       0x0000004d       0x4e C:\Users\error414\AppData\Local\Temp\cch1ZKPK.debug.temp.o
 .comment       0x0000004d       0x4e C:\Users\error414\AppData\Local\Temp\ccnzbStY.debug.temp.o
 .comment       0x0000004d       0x4e C:\Users\error414\AppData\Local\Temp\cc5Ewqle.debug.temp.o
 .comment       0x0000004d       0x4e C:\Users\error414\AppData\Local\Temp\ccbp2mqu.debug.temp.o
 .comment       0x0000004d       0x4e C:\Users\error414\AppData\Local\Temp\ccRbgiFK.debug.temp.o
 .comment       0x0000004d       0x4e C:\Users\error414\AppData\Local\Temp\cct03kv2.debug.temp.o
 .comment       0x0000004d       0x4e C:\Users\error414\AppData\Local\Temp\cczK3Szk.debug.temp.o
 .comment       0x0000004d       0x4e C:\Users\error414\AppData\Local\Temp\ccvh70GB.debug.temp.o
 .comment       0x0000004d       0x4e C:\Users\error414\AppData\Local\Temp\ccF3sSVS.debug.temp.o
 .comment       0x0000004d       0x4e C:\Users\error414\AppData\Local\Temp\cc9nr7na.debug.temp.o
 .comment       0x0000004d       0x4e C:\Users\error414\AppData\Local\Temp\ccPEUGPq.debug.temp.o

.ARM.attributes
                0x00000000       0x30
 .ARM.attributes
                0x00000000       0x2c C:\Users\error414\AppData\Local\Temp\stm32-chibios.c1tKpx.ltrans0.ltrans.o
 .ARM.attributes
                0x0000002c       0x2c C:\Users\error414\AppData\Local\Temp\stm32-chibios.c1tKpx.ltrans1.ltrans.o
 .ARM.attributes
                0x00000058       0x2c C:\Users\error414\AppData\Local\Temp\stm32-chibios.c1tKpx.ltrans2.ltrans.o
 .ARM.attributes
                0x00000084       0x2c C:\Users\error414\AppData\Local\Temp\stm32-chibios.c1tKpx.ltrans3.ltrans.o
 .ARM.attributes
                0x000000b0       0x25 CMakeFiles/stm32-chibios.dir/C_/Users/error414/Documents/STM32/meteo-F4/ChibiOS/os/common/startup/ARMCMx/compilers/GCC/crt0_v7m.S.obj
 .ARM.attributes
                0x000000d5       0x25 CMakeFiles/stm32-chibios.dir/C_/Users/error414/Documents/STM32/meteo-F4/ChibiOS/os/common/startup/ARMCMx/compilers/GCC/vectors.S.obj
 .ARM.attributes
                0x000000fa       0x25 CMakeFiles/stm32-chibios.dir/C_/Users/error414/Documents/STM32/meteo-F4/ChibiOS/os/common/ports/ARMv7-M/compilers/GCC/chcoreasm.S.obj
 .ARM.attributes
                0x0000011f       0x2e c:/users/error414/documents/stm32-tools/gcc-arm-none-eabi-10-2020-q4-major/bin/../lib/gcc/arm-none-eabi/10.2.1/../../../../arm-none-eabi/lib/thumb/v7e-m/nofp\libg.a(lib_a-ctype_.o)
 .ARM.attributes
                0x0000014d       0x2e c:/users/error414/documents/stm32-tools/gcc-arm-none-eabi-10-2020-q4-major/bin/../lib/gcc/arm-none-eabi/10.2.1/../../../../arm-none-eabi/lib/thumb/v7e-m/nofp\libg.a(lib_a-memcmp.o)
 .ARM.attributes
                0x0000017b       0x1c c:/users/error414/documents/stm32-tools/gcc-arm-none-eabi-10-2020-q4-major/bin/../lib/gcc/arm-none-eabi/10.2.1/../../../../arm-none-eabi/lib/thumb/v7e-m/nofp\libg.a(lib_a-memcpy.o)
 .ARM.attributes
                0x00000197       0x2e c:/users/error414/documents/stm32-tools/gcc-arm-none-eabi-10-2020-q4-major/bin/../lib/gcc/arm-none-eabi/10.2.1/../../../../arm-none-eabi/lib/thumb/v7e-m/nofp\libg.a(lib_a-strcpy.o)
 .ARM.attributes
                0x000001c5       0x1c c:/users/error414/documents/stm32-tools/gcc-arm-none-eabi-10-2020-q4-major/bin/../lib/gcc/arm-none-eabi/10.2.1/../../../../arm-none-eabi/lib/thumb/v7e-m/nofp\libg.a(lib_a-strlen.o)
 .ARM.attributes
                0x000001e1       0x2e c:/users/error414/documents/stm32-tools/gcc-arm-none-eabi-10-2020-q4-major/bin/../lib/gcc/arm-none-eabi/10.2.1/../../../../arm-none-eabi/lib/thumb/v7e-m/nofp\libg.a(lib_a-strncpy.o)

.debug_frame    0x00000000     0x461c
 .debug_frame   0x00000000     0x22a8 C:\Users\error414\AppData\Local\Temp\stm32-chibios.c1tKpx.ltrans0.ltrans.o
 .debug_frame   0x000022a8      0xd08 C:\Users\error414\AppData\Local\Temp\stm32-chibios.c1tKpx.ltrans1.ltrans.o
 .debug_frame   0x00002fb0      0xdfc C:\Users\error414\AppData\Local\Temp\stm32-chibios.c1tKpx.ltrans2.ltrans.o
 .debug_frame   0x00003dac      0x7fc C:\Users\error414\AppData\Local\Temp\stm32-chibios.c1tKpx.ltrans3.ltrans.o
 .debug_frame   0x000045a8       0x28 c:/users/error414/documents/stm32-tools/gcc-arm-none-eabi-10-2020-q4-major/bin/../lib/gcc/arm-none-eabi/10.2.1/../../../../arm-none-eabi/lib/thumb/v7e-m/nofp\libg.a(lib_a-memcmp.o)
 .debug_frame   0x000045d0       0x20 c:/users/error414/documents/stm32-tools/gcc-arm-none-eabi-10-2020-q4-major/bin/../lib/gcc/arm-none-eabi/10.2.1/../../../../arm-none-eabi/lib/thumb/v7e-m/nofp\libg.a(lib_a-strcpy.o)
 .debug_frame   0x000045f0       0x2c c:/users/error414/documents/stm32-tools/gcc-arm-none-eabi-10-2020-q4-major/bin/../lib/gcc/arm-none-eabi/10.2.1/../../../../arm-none-eabi/lib/thumb/v7e-m/nofp\libg.a(lib_a-strncpy.o)
