Archive member included to satisfy reference by file (symbol)

c:/users/error414/documents/stm32-tools/gcc-arm-none-eabi-10-2020-q4-major/bin/../lib/gcc/arm-none-eabi/10.2.1/../../../../arm-none-eabi/lib/thumb/v7e-m/nofp\libg.a(lib_a-ctype_.o)
                              CMakeFiles/stm32-chibios.dir/C_/Users/error414/Documents/STM32/meteo-F4/ChibiOS/os/hal/lib/streams/chscanf.c.obj (symbol from plugin) (_ctype_)
c:/users/error414/documents/stm32-tools/gcc-arm-none-eabi-10-2020-q4-major/bin/../lib/gcc/arm-none-eabi/10.2.1/thumb/v7e-m/nofp\libgcc.a(_arm_muldf3.o)
                              C:\Users\error414\AppData\Local\Temp\stm32-chibios.0UTc6U.ltrans0.ltrans.o (__aeabi_dmul)
c:/users/error414/documents/stm32-tools/gcc-arm-none-eabi-10-2020-q4-major/bin/../lib/gcc/arm-none-eabi/10.2.1/thumb/v7e-m/nofp\libgcc.a(_arm_mulsf3.o)
                              C:\Users\error414\AppData\Local\Temp\stm32-chibios.0UTc6U.ltrans3.ltrans.o (__aeabi_fmul)
c:/users/error414/documents/stm32-tools/gcc-arm-none-eabi-10-2020-q4-major/bin/../lib/gcc/arm-none-eabi/10.2.1/thumb/v7e-m/nofp\libgcc.a(_arm_addsubdf3.o)
                              C:\Users\error414\AppData\Local\Temp\stm32-chibios.0UTc6U.ltrans0.ltrans.o (__aeabi_dsub)
c:/users/error414/documents/stm32-tools/gcc-arm-none-eabi-10-2020-q4-major/bin/../lib/gcc/arm-none-eabi/10.2.1/thumb/v7e-m/nofp\libgcc.a(_arm_fixdfsi.o)
                              C:\Users\error414\AppData\Local\Temp\stm32-chibios.0UTc6U.ltrans0.ltrans.o (__aeabi_d2iz)
c:/users/error414/documents/stm32-tools/gcc-arm-none-eabi-10-2020-q4-major/bin/../lib/gcc/arm-none-eabi/10.2.1/thumb/v7e-m/nofp\libgcc.a(_arm_truncdfsf2.o)
                              C:\Users\error414\AppData\Local\Temp\stm32-chibios.0UTc6U.ltrans0.ltrans.o (__aeabi_d2f)
c:/users/error414/documents/stm32-tools/gcc-arm-none-eabi-10-2020-q4-major/bin/../lib/gcc/arm-none-eabi/10.2.1/thumb/v7e-m/nofp\libgcc.a(_arm_addsubsf3.o)
                              C:\Users\error414\AppData\Local\Temp\stm32-chibios.0UTc6U.ltrans3.ltrans.o (__aeabi_fsub)
c:/users/error414/documents/stm32-tools/gcc-arm-none-eabi-10-2020-q4-major/bin/../lib/gcc/arm-none-eabi/10.2.1/thumb/v7e-m/nofp\libgcc.a(_arm_muldivsf3.o)
                              C:\Users\error414\AppData\Local\Temp\stm32-chibios.0UTc6U.ltrans3.ltrans.o (__aeabi_fdiv)
c:/users/error414/documents/stm32-tools/gcc-arm-none-eabi-10-2020-q4-major/bin/../lib/gcc/arm-none-eabi/10.2.1/thumb/v7e-m/nofp\libgcc.a(_arm_cmpsf2.o)
                              C:\Users\error414\AppData\Local\Temp\stm32-chibios.0UTc6U.ltrans0.ltrans.o (__aeabi_fcmplt)
c:/users/error414/documents/stm32-tools/gcc-arm-none-eabi-10-2020-q4-major/bin/../lib/gcc/arm-none-eabi/10.2.1/thumb/v7e-m/nofp\libgcc.a(_arm_fixunssfsi.o)
                              C:\Users\error414\AppData\Local\Temp\stm32-chibios.0UTc6U.ltrans3.ltrans.o (__aeabi_f2uiz)
c:/users/error414/documents/stm32-tools/gcc-arm-none-eabi-10-2020-q4-major/bin/../lib/gcc/arm-none-eabi/10.2.1/thumb/v7e-m/nofp\libgcc.a(_aeabi_ldivmod.o)
                              C:\Users\error414\AppData\Local\Temp\stm32-chibios.0UTc6U.ltrans3.ltrans.o (__aeabi_ldivmod)
c:/users/error414/documents/stm32-tools/gcc-arm-none-eabi-10-2020-q4-major/bin/../lib/gcc/arm-none-eabi/10.2.1/thumb/v7e-m/nofp\libgcc.a(_udivmoddi4.o)
                              c:/users/error414/documents/stm32-tools/gcc-arm-none-eabi-10-2020-q4-major/bin/../lib/gcc/arm-none-eabi/10.2.1/thumb/v7e-m/nofp\libgcc.a(_aeabi_ldivmod.o) (__udivmoddi4)
c:/users/error414/documents/stm32-tools/gcc-arm-none-eabi-10-2020-q4-major/bin/../lib/gcc/arm-none-eabi/10.2.1/thumb/v7e-m/nofp\libgcc.a(_dvmd_tls.o)
                              c:/users/error414/documents/stm32-tools/gcc-arm-none-eabi-10-2020-q4-major/bin/../lib/gcc/arm-none-eabi/10.2.1/thumb/v7e-m/nofp\libgcc.a(_aeabi_ldivmod.o) (__aeabi_ldiv0)
c:/users/error414/documents/stm32-tools/gcc-arm-none-eabi-10-2020-q4-major/bin/../lib/gcc/arm-none-eabi/10.2.1/../../../../arm-none-eabi/lib/thumb/v7e-m/nofp\libg.a(lib_a-memcmp.o)
                              C:\Users\error414\AppData\Local\Temp\stm32-chibios.0UTc6U.ltrans0.ltrans.o (memcmp)
c:/users/error414/documents/stm32-tools/gcc-arm-none-eabi-10-2020-q4-major/bin/../lib/gcc/arm-none-eabi/10.2.1/../../../../arm-none-eabi/lib/thumb/v7e-m/nofp\libg.a(lib_a-memcpy.o)
                              C:\Users\error414\AppData\Local\Temp\stm32-chibios.0UTc6U.ltrans0.ltrans.o (memcpy)
c:/users/error414/documents/stm32-tools/gcc-arm-none-eabi-10-2020-q4-major/bin/../lib/gcc/arm-none-eabi/10.2.1/../../../../arm-none-eabi/lib/thumb/v7e-m/nofp\libg.a(lib_a-strchr.o)
                              C:\Users\error414\AppData\Local\Temp\stm32-chibios.0UTc6U.ltrans3.ltrans.o (strchr)
c:/users/error414/documents/stm32-tools/gcc-arm-none-eabi-10-2020-q4-major/bin/../lib/gcc/arm-none-eabi/10.2.1/../../../../arm-none-eabi/lib/thumb/v7e-m/nofp\libg.a(lib_a-strcmp.o)
                              C:\Users\error414\AppData\Local\Temp\stm32-chibios.0UTc6U.ltrans3.ltrans.o (strcmp)
c:/users/error414/documents/stm32-tools/gcc-arm-none-eabi-10-2020-q4-major/bin/../lib/gcc/arm-none-eabi/10.2.1/../../../../arm-none-eabi/lib/thumb/v7e-m/nofp\libg.a(lib_a-strcpy.o)
                              C:\Users\error414\AppData\Local\Temp\stm32-chibios.0UTc6U.ltrans1.ltrans.o (strcpy)
c:/users/error414/documents/stm32-tools/gcc-arm-none-eabi-10-2020-q4-major/bin/../lib/gcc/arm-none-eabi/10.2.1/../../../../arm-none-eabi/lib/thumb/v7e-m/nofp\libg.a(lib_a-strlen.o)
                              C:\Users\error414\AppData\Local\Temp\stm32-chibios.0UTc6U.ltrans1.ltrans.o (strlen)
c:/users/error414/documents/stm32-tools/gcc-arm-none-eabi-10-2020-q4-major/bin/../lib/gcc/arm-none-eabi/10.2.1/../../../../arm-none-eabi/lib/thumb/v7e-m/nofp\libg.a(lib_a-strncpy.o)
                              C:\Users\error414\AppData\Local\Temp\stm32-chibios.0UTc6U.ltrans2.ltrans.o (strncpy)
c:/users/error414/documents/stm32-tools/gcc-arm-none-eabi-10-2020-q4-major/bin/../lib/gcc/arm-none-eabi/10.2.1/../../../../arm-none-eabi/lib/thumb/v7e-m/nofp\libg.a(lib_a-strpbrk.o)
                              C:\Users\error414\AppData\Local\Temp\stm32-chibios.0UTc6U.ltrans3.ltrans.o (strpbrk)
c:/users/error414/documents/stm32-tools/gcc-arm-none-eabi-10-2020-q4-major/bin/../lib/gcc/arm-none-eabi/10.2.1/../../../../arm-none-eabi/lib/thumb/v7e-m/nofp\libg.a(lib_a-strspn.o)
                              C:\Users\error414\AppData\Local\Temp\stm32-chibios.0UTc6U.ltrans3.ltrans.o (strspn)

Memory Configuration

Name             Origin             Length             Attributes
flash0           0x08000000         0x00080000         xr
flash1           0x00000000         0x00000000         xr
flash2           0x00000000         0x00000000         xr
flash3           0x00000000         0x00000000         xr
flash4           0x00000000         0x00000000         xr
flash5           0x00000000         0x00000000         xr
flash6           0x00000000         0x00000000         xr
flash7           0x00000000         0x00000000         xr
ram0             0x20000000         0x00018000         xw
ram1             0x00000000         0x00000000         xw
ram2             0x00000000         0x00000000         xw
ram3             0x00000000         0x00000000         xw
ram4             0x00000000         0x00000000         xw
ram5             0x00000000         0x00000000         xw
ram6             0x00000000         0x00000000         xw
ram7             0x00000000         0x00000000         xw
*default*        0x00000000         0xffffffff

Linker script and memory map

                0x00000190                __process_stack_size__ = 0x190
                0x00000190                __main_stack_size__ = 0x190
LOAD CMakeFiles/stm32-chibios.dir/C_/Users/error414/Documents/STM32/meteo-F4/ChibiOS/os/common/startup/ARMCMx/compilers/GCC/crt1.c.obj
LOAD C:\Users\error414\AppData\Local\Temp\stm32-chibios.0UTc6U.ltrans0.ltrans.o
LOAD C:\Users\error414\AppData\Local\Temp\stm32-chibios.0UTc6U.ltrans1.ltrans.o
LOAD C:\Users\error414\AppData\Local\Temp\stm32-chibios.0UTc6U.ltrans2.ltrans.o
LOAD C:\Users\error414\AppData\Local\Temp\stm32-chibios.0UTc6U.ltrans3.ltrans.o
LOAD C:\Users\error414\AppData\Local\Temp\ccLignFf.debug.temp.o
LOAD C:\Users\error414\AppData\Local\Temp\ccOfRvXS.debug.temp.o
LOAD C:\Users\error414\AppData\Local\Temp\ccfbBgnw.debug.temp.o
LOAD C:\Users\error414\AppData\Local\Temp\cc2bs0V9.debug.temp.o
LOAD C:\Users\error414\AppData\Local\Temp\ccLgwDEN.debug.temp.o
LOAD C:\Users\error414\AppData\Local\Temp\ccORLUpq.debug.temp.o
LOAD C:\Users\error414\AppData\Local\Temp\ccbvRak3.debug.temp.o
LOAD C:\Users\error414\AppData\Local\Temp\cc2LHsqG.debug.temp.o
LOAD C:\Users\error414\AppData\Local\Temp\ccrqjLFj.debug.temp.o
LOAD C:\Users\error414\AppData\Local\Temp\cceNxhUV.debug.temp.o
LOAD C:\Users\error414\AppData\Local\Temp\ccVcrBGx.debug.temp.o
LOAD C:\Users\error414\AppData\Local\Temp\ccc1jFB9.debug.temp.o
LOAD C:\Users\error414\AppData\Local\Temp\cc1cUTnP.debug.temp.o
LOAD C:\Users\error414\AppData\Local\Temp\ccYg8rov.debug.temp.o
LOAD C:\Users\error414\AppData\Local\Temp\cc7io5fa.debug.temp.o
LOAD C:\Users\error414\AppData\Local\Temp\ccuoyEoO.debug.temp.o
LOAD C:\Users\error414\AppData\Local\Temp\ccHOJFKs.debug.temp.o
LOAD C:\Users\error414\AppData\Local\Temp\ccSbAQOa.debug.temp.o
LOAD C:\Users\error414\AppData\Local\Temp\cc5L8yqS.debug.temp.o
LOAD C:\Users\error414\AppData\Local\Temp\ccqgwWez.debug.temp.o
LOAD C:\Users\error414\AppData\Local\Temp\ccj8Ekcg.debug.temp.o
LOAD C:\Users\error414\AppData\Local\Temp\ccwUHRlX.debug.temp.o
LOAD C:\Users\error414\AppData\Local\Temp\cc7Y1lMD.debug.temp.o
LOAD C:\Users\error414\AppData\Local\Temp\ccygrstk.debug.temp.o
LOAD C:\Users\error414\AppData\Local\Temp\ccTwTxP4.debug.temp.o
LOAD C:\Users\error414\AppData\Local\Temp\ccShTnkP.debug.temp.o
LOAD C:\Users\error414\AppData\Local\Temp\cc78V57z.debug.temp.o
LOAD C:\Users\error414\AppData\Local\Temp\ccgTk8Tj.debug.temp.o
LOAD C:\Users\error414\AppData\Local\Temp\ccNBSMN3.debug.temp.o
LOAD C:\Users\error414\AppData\Local\Temp\cc8BaTUN.debug.temp.o
LOAD C:\Users\error414\AppData\Local\Temp\cc38DPby.debug.temp.o
LOAD C:\Users\error414\AppData\Local\Temp\ccoJIJyh.debug.temp.o
LOAD C:\Users\error414\AppData\Local\Temp\ccfcnAd1.debug.temp.o
LOAD C:\Users\error414\AppData\Local\Temp\cckKqk0N.debug.temp.o
LOAD C:\Users\error414\AppData\Local\Temp\ccNM7LDA.debug.temp.o
LOAD C:\Users\error414\AppData\Local\Temp\cceWQyIl.debug.temp.o
LOAD C:\Users\error414\AppData\Local\Temp\ccvOb636.debug.temp.o
LOAD C:\Users\error414\AppData\Local\Temp\ccMiSu4V.debug.temp.o
LOAD C:\Users\error414\AppData\Local\Temp\cc383RQK.debug.temp.o
LOAD C:\Users\error414\AppData\Local\Temp\ccWszgMz.debug.temp.o
LOAD C:\Users\error414\AppData\Local\Temp\ccDEBUao.debug.temp.o
LOAD C:\Users\error414\AppData\Local\Temp\ccq1TaCb.debug.temp.o
LOAD C:\Users\error414\AppData\Local\Temp\ccBml3aZ.debug.temp.o
LOAD C:\Users\error414\AppData\Local\Temp\ccqK9lXM.debug.temp.o
LOAD C:\Users\error414\AppData\Local\Temp\ccxNswpE.debug.temp.o
LOAD C:\Users\error414\AppData\Local\Temp\ccqzIZ4v.debug.temp.o
LOAD C:\Users\error414\AppData\Local\Temp\ccpQszLm.debug.temp.o
LOAD C:\Users\error414\AppData\Local\Temp\ccaMpbqc.debug.temp.o
LOAD C:\Users\error414\AppData\Local\Temp\ccB9hZg2.debug.temp.o
LOAD C:\Users\error414\AppData\Local\Temp\ccWfDpeW.debug.temp.o
LOAD C:\Users\error414\AppData\Local\Temp\cc1persQ.debug.temp.o
LOAD C:\Users\error414\AppData\Local\Temp\ccsRSGXJ.debug.temp.o
LOAD C:\Users\error414\AppData\Local\Temp\ccXO6QyC.debug.temp.o
LOAD C:\Users\error414\AppData\Local\Temp\ccW1uKiv.debug.temp.o
LOAD C:\Users\error414\AppData\Local\Temp\ccblGfho.debug.temp.o
LOAD C:\Users\error414\AppData\Local\Temp\ccoBIOdg.debug.temp.o
LOAD C:\Users\error414\AppData\Local\Temp\ccXWRmj8.debug.temp.o
LOAD C:\Users\error414\AppData\Local\Temp\cc2McZp4.debug.temp.o
LOAD C:\Users\error414\AppData\Local\Temp\ccrDkjF0.debug.temp.o
LOAD C:\Users\error414\AppData\Local\Temp\ccQDDUnW.debug.temp.o
LOAD C:\Users\error414\AppData\Local\Temp\ccDgeKyR.debug.temp.o
LOAD C:\Users\error414\AppData\Local\Temp\ccgOcsTM.debug.temp.o
LOAD C:\Users\error414\AppData\Local\Temp\ccHxa7sH.debug.temp.o
LOAD C:\Users\error414\AppData\Local\Temp\cc2pWERF.debug.temp.o
LOAD C:\Users\error414\AppData\Local\Temp\ccFJRSDD.debug.temp.o
LOAD C:\Users\error414\AppData\Local\Temp\ccUGxF6A.debug.temp.o
LOAD C:\Users\error414\AppData\Local\Temp\cc7guKNy.debug.temp.o
LOAD C:\Users\error414\AppData\Local\Temp\ccaEe9sv.debug.temp.o
LOAD C:\Users\error414\AppData\Local\Temp\ccXe02ys.debug.temp.o
LOAD C:\Users\error414\AppData\Local\Temp\ccCPpgxt.debug.temp.o
LOAD C:\Users\error414\AppData\Local\Temp\ccL3zvHu.debug.temp.o
LOAD C:\Users\error414\AppData\Local\Temp\ccWmc6Pu.debug.temp.o
LOAD C:\Users\error414\AppData\Local\Temp\cc3Lk7cv.debug.temp.o
LOAD C:\Users\error414\AppData\Local\Temp\ccguJG7u.debug.temp.o
LOAD C:\Users\error414\AppData\Local\Temp\cc78Jbhu.debug.temp.o
LOAD C:\Users\error414\AppData\Local\Temp\ccG6q1Nt.debug.temp.o
LOAD C:\Users\error414\AppData\Local\Temp\ccnom83w.debug.temp.o
LOAD C:\Users\error414\AppData\Local\Temp\cckskQrA.debug.temp.o
LOAD C:\Users\error414\AppData\Local\Temp\ccd0802D.debug.temp.o
LOAD C:\Users\error414\AppData\Local\Temp\cc8a1ZTG.debug.temp.o
LOAD C:\Users\error414\AppData\Local\Temp\ccjMwCNI.debug.temp.o
LOAD C:\Users\error414\AppData\Local\Temp\cc2KNfQK.debug.temp.o
LOAD C:\Users\error414\AppData\Local\Temp\cclggJ2M.debug.temp.o
LOAD C:\Users\error414\AppData\Local\Temp\cca6cdoP.debug.temp.o
LOAD C:\Users\error414\AppData\Local\Temp\ccJpTCGQ.debug.temp.o
LOAD C:\Users\error414\AppData\Local\Temp\cc2oZ47R.debug.temp.o
LOAD C:\Users\error414\AppData\Local\Temp\cchY4ONT.debug.temp.o
LOAD C:\Users\error414\AppData\Local\Temp\cckrgSlZ.debug.temp.o
LOAD C:\Users\error414\AppData\Local\Temp\ccxxFv14.debug.temp.o
LOAD C:\Users\error414\AppData\Local\Temp\ccIacCUa.debug.temp.o
LOAD C:\Users\error414\AppData\Local\Temp\cc3aqUMf.debug.temp.o
LOAD C:\Users\error414\AppData\Local\Temp\ccQpAcOk.debug.temp.o
LOAD C:\Users\error414\AppData\Local\Temp\ccRnw5Wp.debug.temp.o
LOAD C:\Users\error414\AppData\Local\Temp\ccKdeijv.debug.temp.o
LOAD C:\Users\error414\AppData\Local\Temp\ccxAgkJz.debug.temp.o
LOAD C:\Users\error414\AppData\Local\Temp\cc2t4luE.debug.temp.o
LOAD C:\Users\error414\AppData\Local\Temp\ccHmhAwI.debug.temp.o
LOAD C:\Users\error414\AppData\Local\Temp\ccEizYhQ.debug.temp.o
LOAD C:\Users\error414\AppData\Local\Temp\cc7qpxfY.debug.temp.o
LOAD C:\Users\error414\AppData\Local\Temp\cc8W06l6.debug.temp.o
LOAD C:\Users\error414\AppData\Local\Temp\ccTebyCe.debug.temp.o
LOAD C:\Users\error414\AppData\Local\Temp\cc8f9Ggm.debug.temp.o
LOAD C:\Users\error414\AppData\Local\Temp\ccb1D9Ss.debug.temp.o
LOAD C:\Users\error414\AppData\Local\Temp\cc0AYtFz.debug.temp.o
LOAD C:\Users\error414\AppData\Local\Temp\ccDs3fFG.debug.temp.o
LOAD C:\Users\error414\AppData\Local\Temp\ccsw1yGM.debug.temp.o
LOAD C:\Users\error414\AppData\Local\Temp\ccjH8cVS.debug.temp.o
LOAD C:\Users\error414\AppData\Local\Temp\ccGOF5nZ.debug.temp.o
LOAD C:\Users\error414\AppData\Local\Temp\cchNAiz9.debug.temp.o
LOAD C:\Users\error414\AppData\Local\Temp\ccgSQdTj.debug.temp.o
LOAD C:\Users\error414\AppData\Local\Temp\ccLhB9lu.debug.temp.o
LOAD C:\Users\error414\AppData\Local\Temp\cc0YiTSD.debug.temp.o
LOAD C:\Users\error414\AppData\Local\Temp\ccxDwkyN.debug.temp.o
LOAD C:\Users\error414\AppData\Local\Temp\ccxmJrmP.debug.temp.o
LOAD C:\Users\error414\AppData\Local\Temp\cch9barR.debug.temp.o
LOAD C:\Users\error414\AppData\Local\Temp\ccj56OMS.debug.temp.o
LOAD C:\Users\error414\AppData\Local\Temp\ccVr4uhU.debug.temp.o
LOAD C:\Users\error414\AppData\Local\Temp\ccVOtkYV.debug.temp.o
LOAD C:\Users\error414\AppData\Local\Temp\ccP2bdDW.debug.temp.o
LOAD C:\Users\error414\AppData\Local\Temp\cc7y3YAX.debug.temp.o
LOAD C:\Users\error414\AppData\Local\Temp\ccRjRKHY.debug.temp.o
LOAD C:\Users\error414\AppData\Local\Temp\ccnTULhZ.debug.temp.o
LOAD C:\Users\error414\AppData\Local\Temp\ccB3ZHI3.debug.temp.o
LOAD C:\Users\error414\AppData\Local\Temp\ccdmtDi8.debug.temp.o
LOAD C:\Users\error414\AppData\Local\Temp\cc37bLRb.debug.temp.o
LOAD C:\Users\error414\AppData\Local\Temp\ccrhGTzf.debug.temp.o
LOAD C:\Users\error414\AppData\Local\Temp\ccTuX4Cj.debug.temp.o
LOAD C:\Users\error414\AppData\Local\Temp\cczbusFm.debug.temp.o
LOAD C:\Users\error414\AppData\Local\Temp\ccbQkaVp.debug.temp.o
LOAD C:\Users\error414\AppData\Local\Temp\ccT31Mgs.debug.temp.o
LOAD C:\Users\error414\AppData\Local\Temp\cc7LYjVu.debug.temp.o
LOAD C:\Users\error414\AppData\Local\Temp\ccduzasB.debug.temp.o
LOAD C:\Users\error414\AppData\Local\Temp\cch772jI.debug.temp.o
LOAD C:\Users\error414\AppData\Local\Temp\ccTdBLlP.debug.temp.o
LOAD C:\Users\error414\AppData\Local\Temp\ccHETQlV.debug.temp.o
LOAD C:\Users\error414\AppData\Local\Temp\ccBCRvt1.debug.temp.o
LOAD C:\Users\error414\AppData\Local\Temp\cct7WDO7.debug.temp.o
LOAD C:\Users\error414\AppData\Local\Temp\ccVO35Kc.debug.temp.o
LOAD C:\Users\error414\AppData\Local\Temp\ccXsZXUh.debug.temp.o
LOAD C:\Users\error414\AppData\Local\Temp\ccLJCqIq.debug.temp.o
LOAD C:\Users\error414\AppData\Local\Temp\cclJccJz.debug.temp.o
LOAD C:\Users\error414\AppData\Local\Temp\cczTluYI.debug.temp.o
LOAD C:\Users\error414\AppData\Local\Temp\ccnWzVbR.debug.temp.o
LOAD C:\Users\error414\AppData\Local\Temp\ccTlIjLY.debug.temp.o
LOAD C:\Users\error414\AppData\Local\Temp\ccXCRuO8.debug.temp.o
LOAD C:\Users\error414\AppData\Local\Temp\ccJwpY4i.debug.temp.o
LOAD C:\Users\error414\AppData\Local\Temp\ccH6r2st.debug.temp.o
LOAD C:\Users\error414\AppData\Local\Temp\ccf7w7ZD.debug.temp.o
LOAD C:\Users\error414\AppData\Local\Temp\ccfszPAN.debug.temp.o
LOAD C:\Users\error414\AppData\Local\Temp\ccVmtzkX.debug.temp.o
LOAD C:\Users\error414\AppData\Local\Temp\ccP08Tb7.debug.temp.o
LOAD C:\Users\error414\AppData\Local\Temp\cctg63in.debug.temp.o
LOAD C:\Users\error414\AppData\Local\Temp\cczIWWyD.debug.temp.o
LOAD C:\Users\error414\AppData\Local\Temp\cc7oJPXT.debug.temp.o
LOAD C:\Users\error414\AppData\Local\Temp\cczQVco9.debug.temp.o
LOAD C:\Users\error414\AppData\Local\Temp\ccxAzjXo.debug.temp.o
LOAD C:\Users\error414\AppData\Local\Temp\cchb6yGE.debug.temp.o
LOAD C:\Users\error414\AppData\Local\Temp\ccxOrgRW.debug.temp.o
LOAD C:\Users\error414\AppData\Local\Temp\ccdPMEtf.debug.temp.o
LOAD C:\Users\error414\AppData\Local\Temp\ccVsBeFw.debug.temp.o
LOAD C:\Users\error414\AppData\Local\Temp\cc7lAxZN.debug.temp.o
LOAD C:\Users\error414\AppData\Local\Temp\ccHz9kF4.debug.temp.o
LOAD C:\Users\error414\AppData\Local\Temp\ccDy3jmp.debug.temp.o
LOAD C:\Users\error414\AppData\Local\Temp\ccXzYfoK.debug.temp.o
LOAD C:\Users\error414\AppData\Local\Temp\ccFr0OL4.debug.temp.o
LOAD C:\Users\error414\AppData\Local\Temp\ccfBPBso.debug.temp.o
LOAD C:\Users\error414\AppData\Local\Temp\ccVz1HnI.debug.temp.o
LOAD C:\Users\error414\AppData\Local\Temp\ccvrz8g1.debug.temp.o
LOAD C:\Users\error414\AppData\Local\Temp\ccNNjLmk.debug.temp.o
LOAD C:\Users\error414\AppData\Local\Temp\ccdEtWEG.debug.temp.o
LOAD C:\Users\error414\AppData\Local\Temp\ccbyWqk3.debug.temp.o
LOAD C:\Users\error414\AppData\Local\Temp\ccFKQE8p.debug.temp.o
LOAD C:\Users\error414\AppData\Local\Temp\cchN7zfL.debug.temp.o
LOAD C:\Users\error414\AppData\Local\Temp\ccn5yev6.debug.temp.o
LOAD C:\Users\error414\AppData\Local\Temp\ccVtKMSr.debug.temp.o
LOAD C:\Users\error414\AppData\Local\Temp\ccNSI2oN.debug.temp.o
LOAD C:\Users\error414\AppData\Local\Temp\ccVX4N9c.debug.temp.o
LOAD C:\Users\error414\AppData\Local\Temp\ccnfawbC.debug.temp.o
LOAD C:\Users\error414\AppData\Local\Temp\ccFHDQe0.debug.temp.o
LOAD C:\Users\error414\AppData\Local\Temp\ccDHVVqo.debug.temp.o
LOAD C:\Users\error414\AppData\Local\Temp\cc94Y1LM.debug.temp.o
LOAD C:\Users\error414\AppData\Local\Temp\ccJKEzlb.debug.temp.o
LOAD C:\Users\error414\AppData\Local\Temp\ccP8MK9y.debug.temp.o
LOAD C:\Users\error414\AppData\Local\Temp\ccvXXW6W.debug.temp.o
LOAD C:\Users\error414\AppData\Local\Temp\cc1Oo1So.debug.temp.o
LOAD C:\Users\error414\AppData\Local\Temp\ccpWbIVQ.debug.temp.o
LOAD C:\Users\error414\AppData\Local\Temp\cc9e701h.debug.temp.o
LOAD C:\Users\error414\AppData\Local\Temp\ccFgZClJ.debug.temp.o
LOAD C:\Users\error414\AppData\Local\Temp\ccVXghOa.debug.temp.o
LOAD C:\Users\error414\AppData\Local\Temp\ccx8nhrB.debug.temp.o
LOAD C:\Users\error414\AppData\Local\Temp\cc9uzIi2.debug.temp.o
LOAD C:\Users\error414\AppData\Local\Temp\ccJOBd8r.debug.temp.o
LOAD C:\Users\error414\AppData\Local\Temp\cc18m39R.debug.temp.o
LOAD C:\Users\error414\AppData\Local\Temp\ccpUQ34l.debug.temp.o
LOAD C:\Users\error414\AppData\Local\Temp\ccpxuEgQ.debug.temp.o
LOAD C:\Users\error414\AppData\Local\Temp\ccnHfIFk.debug.temp.o
LOAD C:\Users\error414\AppData\Local\Temp\ccNHux8N.debug.temp.o
LOAD C:\Users\error414\AppData\Local\Temp\ccN6I6Jh.debug.temp.o
LOAD C:\Users\error414\AppData\Local\Temp\cc77zsKK.debug.temp.o
LOAD C:\Users\error414\AppData\Local\Temp\cchusgYd.debug.temp.o
LOAD C:\Users\error414\AppData\Local\Temp\cc9gNZ8F.debug.temp.o
LOAD C:\Users\error414\AppData\Local\Temp\cc7MBtB8.debug.temp.o
LOAD C:\Users\error414\AppData\Local\Temp\ccN3K5dB.debug.temp.o
LOAD C:\Users\error414\AppData\Local\Temp\ccDF6rv7.debug.temp.o
LOAD C:\Users\error414\AppData\Local\Temp\cc7N2PVD.debug.temp.o
LOAD C:\Users\error414\AppData\Local\Temp\ccDn6Mta.debug.temp.o
LOAD C:\Users\error414\AppData\Local\Temp\cc1WZX9F.debug.temp.o
LOAD C:\Users\error414\AppData\Local\Temp\cc9FM2Yb.debug.temp.o
LOAD C:\Users\error414\AppData\Local\Temp\ccJ9hw1H.debug.temp.o
LOAD C:\Users\error414\AppData\Local\Temp\ccB8GOyc.debug.temp.o
LOAD C:\Users\error414\AppData\Local\Temp\ccLMcotH.debug.temp.o
LOAD C:\Users\error414\AppData\Local\Temp\ccjx3Fwc.debug.temp.o
LOAD C:\Users\error414\AppData\Local\Temp\ccVFLvMK.debug.temp.o
LOAD C:\Users\error414\AppData\Local\Temp\ccdgpxej.debug.temp.o
LOAD C:\Users\error414\AppData\Local\Temp\ccLMclJQ.debug.temp.o
LOAD C:\Users\error414\AppData\Local\Temp\ccxQZBso.debug.temp.o
LOAD C:\Users\error414\AppData\Local\Temp\ccdLDvzV.debug.temp.o
LOAD C:\Users\error414\AppData\Local\Temp\ccvP4SLw.debug.temp.o
LOAD C:\Users\error414\AppData\Local\Temp\ccfidah8.debug.temp.o
LOAD C:\Users\error414\AppData\Local\Temp\ccrrS89I.debug.temp.o
LOAD C:\Users\error414\AppData\Local\Temp\ccZLFJ6i.debug.temp.o
LOAD CMakeFiles/stm32-chibios.dir/C_/Users/error414/Documents/STM32/meteo-F4/ChibiOS/os/hal/src/hal.c.obj
LOAD CMakeFiles/stm32-chibios.dir/C_/Users/error414/Documents/STM32/meteo-F4/ChibiOS/os/hal/src/hal_st.c.obj
LOAD CMakeFiles/stm32-chibios.dir/C_/Users/error414/Documents/STM32/meteo-F4/ChibiOS/os/hal/src/hal_buffers.c.obj
LOAD CMakeFiles/stm32-chibios.dir/C_/Users/error414/Documents/STM32/meteo-F4/ChibiOS/os/hal/src/hal_queues.c.obj
LOAD CMakeFiles/stm32-chibios.dir/C_/Users/error414/Documents/STM32/meteo-F4/ChibiOS/os/hal/src/hal_flash.c.obj
LOAD CMakeFiles/stm32-chibios.dir/C_/Users/error414/Documents/STM32/meteo-F4/ChibiOS/os/hal/src/hal_mmcsd.c.obj
LOAD CMakeFiles/stm32-chibios.dir/C_/Users/error414/Documents/STM32/meteo-F4/ChibiOS/os/hal/src/hal_i2c.c.obj
LOAD CMakeFiles/stm32-chibios.dir/C_/Users/error414/Documents/STM32/meteo-F4/ChibiOS/os/hal/src/hal_pal.c.obj
LOAD CMakeFiles/stm32-chibios.dir/C_/Users/error414/Documents/STM32/meteo-F4/ChibiOS/os/hal/src/hal_pwm.c.obj
LOAD CMakeFiles/stm32-chibios.dir/C_/Users/error414/Documents/STM32/meteo-F4/ChibiOS/os/hal/src/hal_serial.c.obj
LOAD CMakeFiles/stm32-chibios.dir/C_/Users/error414/Documents/STM32/meteo-F4/ChibiOS/os/hal/src/hal_spi.c.obj
LOAD CMakeFiles/stm32-chibios.dir/C_/Users/error414/Documents/STM32/meteo-F4/ChibiOS/os/hal/ports/common/ARMCMx/nvic.c.obj
LOAD CMakeFiles/stm32-chibios.dir/C_/Users/error414/Documents/STM32/meteo-F4/ChibiOS/os/hal/ports/STM32/STM32F4xx/stm32_isr.c.obj
LOAD CMakeFiles/stm32-chibios.dir/C_/Users/error414/Documents/STM32/meteo-F4/ChibiOS/os/hal/ports/STM32/STM32F4xx/hal_lld.c.obj
LOAD CMakeFiles/stm32-chibios.dir/C_/Users/error414/Documents/STM32/meteo-F4/ChibiOS/os/hal/ports/STM32/STM32F4xx/hal_efl_lld.c.obj
LOAD CMakeFiles/stm32-chibios.dir/C_/Users/error414/Documents/STM32/meteo-F4/ChibiOS/os/hal/ports/STM32/LLD/DMAv2/stm32_dma.c.obj
LOAD CMakeFiles/stm32-chibios.dir/C_/Users/error414/Documents/STM32/meteo-F4/ChibiOS/os/hal/ports/STM32/LLD/EXTIv1/stm32_exti.c.obj
LOAD CMakeFiles/stm32-chibios.dir/C_/Users/error414/Documents/STM32/meteo-F4/ChibiOS/os/hal/ports/STM32/LLD/GPIOv2/hal_pal_lld.c.obj
LOAD CMakeFiles/stm32-chibios.dir/C_/Users/error414/Documents/STM32/meteo-F4/ChibiOS/os/hal/ports/STM32/LLD/I2Cv1/hal_i2c_lld.c.obj
LOAD CMakeFiles/stm32-chibios.dir/C_/Users/error414/Documents/STM32/meteo-F4/ChibiOS/os/hal/ports/STM32/LLD/SPIv1/hal_spi_lld.c.obj
LOAD CMakeFiles/stm32-chibios.dir/C_/Users/error414/Documents/STM32/meteo-F4/ChibiOS/os/hal/ports/STM32/LLD/TIMv1/hal_st_lld.c.obj
LOAD CMakeFiles/stm32-chibios.dir/C_/Users/error414/Documents/STM32/meteo-F4/ChibiOS/os/hal/ports/STM32/LLD/TIMv1/hal_pwm_lld.c.obj
LOAD CMakeFiles/stm32-chibios.dir/C_/Users/error414/Documents/STM32/meteo-F4/ChibiOS/os/hal/ports/STM32/LLD/USARTv1/hal_serial_lld.c.obj
LOAD CMakeFiles/stm32-chibios.dir/C_/Users/error414/Documents/STM32/meteo-F4/ChibiOS/os/hal/osal/rt-nil/osal.c.obj
LOAD CMakeFiles/stm32-chibios.dir/C_/Users/error414/Documents/STM32/meteo-F4/ChibiOS/os/rt/src/chsys.c.obj
LOAD CMakeFiles/stm32-chibios.dir/C_/Users/error414/Documents/STM32/meteo-F4/ChibiOS/os/rt/src/chdebug.c.obj
LOAD CMakeFiles/stm32-chibios.dir/C_/Users/error414/Documents/STM32/meteo-F4/ChibiOS/os/rt/src/chtrace.c.obj
LOAD CMakeFiles/stm32-chibios.dir/C_/Users/error414/Documents/STM32/meteo-F4/ChibiOS/os/rt/src/chvt.c.obj
LOAD CMakeFiles/stm32-chibios.dir/C_/Users/error414/Documents/STM32/meteo-F4/ChibiOS/os/rt/src/chschd.c.obj
LOAD CMakeFiles/stm32-chibios.dir/C_/Users/error414/Documents/STM32/meteo-F4/ChibiOS/os/rt/src/chinstances.c.obj
LOAD CMakeFiles/stm32-chibios.dir/C_/Users/error414/Documents/STM32/meteo-F4/ChibiOS/os/rt/src/chthreads.c.obj
LOAD CMakeFiles/stm32-chibios.dir/C_/Users/error414/Documents/STM32/meteo-F4/ChibiOS/os/rt/src/chtm.c.obj
LOAD CMakeFiles/stm32-chibios.dir/C_/Users/error414/Documents/STM32/meteo-F4/ChibiOS/os/rt/src/chregistry.c.obj
LOAD CMakeFiles/stm32-chibios.dir/C_/Users/error414/Documents/STM32/meteo-F4/ChibiOS/os/rt/src/chsem.c.obj
LOAD CMakeFiles/stm32-chibios.dir/C_/Users/error414/Documents/STM32/meteo-F4/ChibiOS/os/rt/src/chmtx.c.obj
LOAD CMakeFiles/stm32-chibios.dir/C_/Users/error414/Documents/STM32/meteo-F4/ChibiOS/os/rt/src/chcond.c.obj
LOAD CMakeFiles/stm32-chibios.dir/C_/Users/error414/Documents/STM32/meteo-F4/ChibiOS/os/rt/src/chevents.c.obj
LOAD CMakeFiles/stm32-chibios.dir/C_/Users/error414/Documents/STM32/meteo-F4/ChibiOS/os/rt/src/chmsg.c.obj
LOAD CMakeFiles/stm32-chibios.dir/C_/Users/error414/Documents/STM32/meteo-F4/ChibiOS/os/rt/src/chdynamic.c.obj
LOAD CMakeFiles/stm32-chibios.dir/C_/Users/error414/Documents/STM32/meteo-F4/ChibiOS/os/oslib/src/chmboxes.c.obj
LOAD CMakeFiles/stm32-chibios.dir/C_/Users/error414/Documents/STM32/meteo-F4/ChibiOS/os/oslib/src/chmemcore.c.obj
LOAD CMakeFiles/stm32-chibios.dir/C_/Users/error414/Documents/STM32/meteo-F4/ChibiOS/os/oslib/src/chmemheaps.c.obj
LOAD CMakeFiles/stm32-chibios.dir/C_/Users/error414/Documents/STM32/meteo-F4/ChibiOS/os/oslib/src/chmempools.c.obj
LOAD CMakeFiles/stm32-chibios.dir/C_/Users/error414/Documents/STM32/meteo-F4/ChibiOS/os/oslib/src/chpipes.c.obj
LOAD CMakeFiles/stm32-chibios.dir/C_/Users/error414/Documents/STM32/meteo-F4/ChibiOS/os/oslib/src/chobjcaches.c.obj
LOAD CMakeFiles/stm32-chibios.dir/C_/Users/error414/Documents/STM32/meteo-F4/ChibiOS/os/oslib/src/chdelegates.c.obj
LOAD CMakeFiles/stm32-chibios.dir/C_/Users/error414/Documents/STM32/meteo-F4/ChibiOS/os/oslib/src/chfactory.c.obj
LOAD CMakeFiles/stm32-chibios.dir/C_/Users/error414/Documents/STM32/meteo-F4/ChibiOS/os/common/ports/ARMv7-M/chcore.c.obj
LOAD CMakeFiles/stm32-chibios.dir/C_/Users/error414/Documents/STM32/meteo-F4/ChibiOS/os/hal/lib/streams/chprintf.c.obj
LOAD CMakeFiles/stm32-chibios.dir/C_/Users/error414/Documents/STM32/meteo-F4/ChibiOS/os/hal/lib/streams/chscanf.c.obj
LOAD CMakeFiles/stm32-chibios.dir/C_/Users/error414/Documents/STM32/meteo-F4/ChibiOS/os/hal/lib/streams/memstreams.c.obj
LOAD CMakeFiles/stm32-chibios.dir/C_/Users/error414/Documents/STM32/meteo-F4/ChibiOS/os/hal/lib/streams/nullstreams.c.obj
LOAD CMakeFiles/stm32-chibios.dir/C_/Users/error414/Documents/STM32/meteo-F4/ChibiOS/os/hal/lib/streams/bufstreams.c.obj
LOAD CMakeFiles/stm32-chibios.dir/C_/Users/error414/Documents/STM32/meteo-F4/ChibiOS/os/common/startup/ARMCMx/compilers/GCC/crt0_v7m.S.obj
LOAD CMakeFiles/stm32-chibios.dir/C_/Users/error414/Documents/STM32/meteo-F4/ChibiOS/os/common/startup/ARMCMx/compilers/GCC/vectors.S.obj
LOAD CMakeFiles/stm32-chibios.dir/C_/Users/error414/Documents/STM32/meteo-F4/ChibiOS/os/common/ports/ARMv7-M/compilers/GCC/chcoreasm.S.obj
LOAD CMakeFiles/stm32-chibios.dir/C_/Users/error414/Documents/STM32/meteo-F4/lvgl/src/lv_core/lv_disp.c.obj
LOAD CMakeFiles/stm32-chibios.dir/C_/Users/error414/Documents/STM32/meteo-F4/lvgl/src/lv_core/lv_group.c.obj
LOAD CMakeFiles/stm32-chibios.dir/C_/Users/error414/Documents/STM32/meteo-F4/lvgl/src/lv_core/lv_indev.c.obj
LOAD CMakeFiles/stm32-chibios.dir/C_/Users/error414/Documents/STM32/meteo-F4/lvgl/src/lv_core/lv_obj.c.obj
LOAD CMakeFiles/stm32-chibios.dir/C_/Users/error414/Documents/STM32/meteo-F4/lvgl/src/lv_core/lv_refr.c.obj
LOAD CMakeFiles/stm32-chibios.dir/C_/Users/error414/Documents/STM32/meteo-F4/lvgl/src/lv_core/lv_style.c.obj
LOAD CMakeFiles/stm32-chibios.dir/C_/Users/error414/Documents/STM32/meteo-F4/lvgl/src/lv_draw/lv_draw_arc.c.obj
LOAD CMakeFiles/stm32-chibios.dir/C_/Users/error414/Documents/STM32/meteo-F4/lvgl/src/lv_draw/lv_draw_blend.c.obj
LOAD CMakeFiles/stm32-chibios.dir/C_/Users/error414/Documents/STM32/meteo-F4/lvgl/src/lv_draw/lv_draw_img.c.obj
LOAD CMakeFiles/stm32-chibios.dir/C_/Users/error414/Documents/STM32/meteo-F4/lvgl/src/lv_draw/lv_draw_label.c.obj
LOAD CMakeFiles/stm32-chibios.dir/C_/Users/error414/Documents/STM32/meteo-F4/lvgl/src/lv_draw/lv_draw_line.c.obj
LOAD CMakeFiles/stm32-chibios.dir/C_/Users/error414/Documents/STM32/meteo-F4/lvgl/src/lv_draw/lv_draw_mask.c.obj
LOAD CMakeFiles/stm32-chibios.dir/C_/Users/error414/Documents/STM32/meteo-F4/lvgl/src/lv_draw/lv_draw_rect.c.obj
LOAD CMakeFiles/stm32-chibios.dir/C_/Users/error414/Documents/STM32/meteo-F4/lvgl/src/lv_draw/lv_draw_triangle.c.obj
LOAD CMakeFiles/stm32-chibios.dir/C_/Users/error414/Documents/STM32/meteo-F4/lvgl/src/lv_draw/lv_img_buf.c.obj
LOAD CMakeFiles/stm32-chibios.dir/C_/Users/error414/Documents/STM32/meteo-F4/lvgl/src/lv_draw/lv_img_cache.c.obj
LOAD CMakeFiles/stm32-chibios.dir/C_/Users/error414/Documents/STM32/meteo-F4/lvgl/src/lv_draw/lv_img_decoder.c.obj
LOAD CMakeFiles/stm32-chibios.dir/C_/Users/error414/Documents/STM32/meteo-F4/lvgl/src/lv_font/lv_font.c.obj
LOAD CMakeFiles/stm32-chibios.dir/C_/Users/error414/Documents/STM32/meteo-F4/lvgl/src/lv_font/lv_font_dejavu_16_persian_hebrew.c.obj
LOAD CMakeFiles/stm32-chibios.dir/C_/Users/error414/Documents/STM32/meteo-F4/lvgl/src/lv_font/lv_font_fmt_txt.c.obj
LOAD CMakeFiles/stm32-chibios.dir/C_/Users/error414/Documents/STM32/meteo-F4/lvgl/src/lv_font/lv_font_loader.c.obj
LOAD CMakeFiles/stm32-chibios.dir/C_/Users/error414/Documents/STM32/meteo-F4/lvgl/src/lv_font/lv_font_montserrat_10.c.obj
LOAD CMakeFiles/stm32-chibios.dir/C_/Users/error414/Documents/STM32/meteo-F4/lvgl/src/lv_font/lv_font_montserrat_12.c.obj
LOAD CMakeFiles/stm32-chibios.dir/C_/Users/error414/Documents/STM32/meteo-F4/lvgl/src/lv_font/lv_font_montserrat_12_subpx.c.obj
LOAD CMakeFiles/stm32-chibios.dir/C_/Users/error414/Documents/STM32/meteo-F4/lvgl/src/lv_font/lv_font_montserrat_14.c.obj
LOAD CMakeFiles/stm32-chibios.dir/C_/Users/error414/Documents/STM32/meteo-F4/lvgl/src/lv_font/lv_font_montserrat_16.c.obj
LOAD CMakeFiles/stm32-chibios.dir/C_/Users/error414/Documents/STM32/meteo-F4/lvgl/src/lv_font/lv_font_montserrat_18.c.obj
LOAD CMakeFiles/stm32-chibios.dir/C_/Users/error414/Documents/STM32/meteo-F4/lvgl/src/lv_font/lv_font_montserrat_20.c.obj
LOAD CMakeFiles/stm32-chibios.dir/C_/Users/error414/Documents/STM32/meteo-F4/lvgl/src/lv_font/lv_font_montserrat_22.c.obj
LOAD CMakeFiles/stm32-chibios.dir/C_/Users/error414/Documents/STM32/meteo-F4/lvgl/src/lv_font/lv_font_montserrat_24.c.obj
LOAD CMakeFiles/stm32-chibios.dir/C_/Users/error414/Documents/STM32/meteo-F4/lvgl/src/lv_font/lv_font_montserrat_26.c.obj
LOAD CMakeFiles/stm32-chibios.dir/C_/Users/error414/Documents/STM32/meteo-F4/lvgl/src/lv_font/lv_font_montserrat_28.c.obj
LOAD CMakeFiles/stm32-chibios.dir/C_/Users/error414/Documents/STM32/meteo-F4/lvgl/src/lv_font/lv_font_montserrat_28_compressed.c.obj
LOAD CMakeFiles/stm32-chibios.dir/C_/Users/error414/Documents/STM32/meteo-F4/lvgl/src/lv_font/lv_font_montserrat_30.c.obj
LOAD CMakeFiles/stm32-chibios.dir/C_/Users/error414/Documents/STM32/meteo-F4/lvgl/src/lv_font/lv_font_montserrat_32.c.obj
LOAD CMakeFiles/stm32-chibios.dir/C_/Users/error414/Documents/STM32/meteo-F4/lvgl/src/lv_font/lv_font_montserrat_34.c.obj
LOAD CMakeFiles/stm32-chibios.dir/C_/Users/error414/Documents/STM32/meteo-F4/lvgl/src/lv_font/lv_font_montserrat_36.c.obj
LOAD CMakeFiles/stm32-chibios.dir/C_/Users/error414/Documents/STM32/meteo-F4/lvgl/src/lv_font/lv_font_montserrat_38.c.obj
LOAD CMakeFiles/stm32-chibios.dir/C_/Users/error414/Documents/STM32/meteo-F4/lvgl/src/lv_font/lv_font_montserrat_40.c.obj
LOAD CMakeFiles/stm32-chibios.dir/C_/Users/error414/Documents/STM32/meteo-F4/lvgl/src/lv_font/lv_font_montserrat_42.c.obj
LOAD CMakeFiles/stm32-chibios.dir/C_/Users/error414/Documents/STM32/meteo-F4/lvgl/src/lv_font/lv_font_montserrat_44.c.obj
LOAD CMakeFiles/stm32-chibios.dir/C_/Users/error414/Documents/STM32/meteo-F4/lvgl/src/lv_font/lv_font_montserrat_46.c.obj
LOAD CMakeFiles/stm32-chibios.dir/C_/Users/error414/Documents/STM32/meteo-F4/lvgl/src/lv_font/lv_font_montserrat_48.c.obj
LOAD CMakeFiles/stm32-chibios.dir/C_/Users/error414/Documents/STM32/meteo-F4/lvgl/src/lv_font/lv_font_montserrat_8.c.obj
LOAD CMakeFiles/stm32-chibios.dir/C_/Users/error414/Documents/STM32/meteo-F4/lvgl/src/lv_font/lv_font_simsun_16_cjk.c.obj
LOAD CMakeFiles/stm32-chibios.dir/C_/Users/error414/Documents/STM32/meteo-F4/lvgl/src/lv_font/lv_font_unscii_16.c.obj
LOAD CMakeFiles/stm32-chibios.dir/C_/Users/error414/Documents/STM32/meteo-F4/lvgl/src/lv_font/lv_font_unscii_8.c.obj
LOAD CMakeFiles/stm32-chibios.dir/C_/Users/error414/Documents/STM32/meteo-F4/lvgl/src/lv_font/montserrat_10medium_1bp.c.obj
LOAD CMakeFiles/stm32-chibios.dir/C_/Users/error414/Documents/STM32/meteo-F4/lvgl/src/lv_font/montserrat_12medium_1bp.c.obj
LOAD CMakeFiles/stm32-chibios.dir/C_/Users/error414/Documents/STM32/meteo-F4/lvgl/src/lv_font/montserrat_12medium_4bp.c.obj
LOAD CMakeFiles/stm32-chibios.dir/C_/Users/error414/Documents/STM32/meteo-F4/lvgl/src/lv_font/montserrat_14medium_1bp.c.obj
LOAD CMakeFiles/stm32-chibios.dir/C_/Users/error414/Documents/STM32/meteo-F4/lvgl/src/lv_font/montserrat_14medium_4bp.c.obj
LOAD CMakeFiles/stm32-chibios.dir/C_/Users/error414/Documents/STM32/meteo-F4/lvgl/src/lv_gpu/lv_gpu_nxp_pxp.c.obj
LOAD CMakeFiles/stm32-chibios.dir/C_/Users/error414/Documents/STM32/meteo-F4/lvgl/src/lv_gpu/lv_gpu_nxp_pxp_osa.c.obj
LOAD CMakeFiles/stm32-chibios.dir/C_/Users/error414/Documents/STM32/meteo-F4/lvgl/src/lv_gpu/lv_gpu_nxp_vglite.c.obj
LOAD CMakeFiles/stm32-chibios.dir/C_/Users/error414/Documents/STM32/meteo-F4/lvgl/src/lv_gpu/lv_gpu_stm32_dma2d.c.obj
LOAD CMakeFiles/stm32-chibios.dir/C_/Users/error414/Documents/STM32/meteo-F4/lvgl/src/lv_hal/lv_hal_disp.c.obj
LOAD CMakeFiles/stm32-chibios.dir/C_/Users/error414/Documents/STM32/meteo-F4/lvgl/src/lv_hal/lv_hal_indev.c.obj
LOAD CMakeFiles/stm32-chibios.dir/C_/Users/error414/Documents/STM32/meteo-F4/lvgl/src/lv_hal/lv_hal_tick.c.obj
LOAD CMakeFiles/stm32-chibios.dir/C_/Users/error414/Documents/STM32/meteo-F4/lvgl/src/lv_misc/lv_anim.c.obj
LOAD CMakeFiles/stm32-chibios.dir/C_/Users/error414/Documents/STM32/meteo-F4/lvgl/src/lv_misc/lv_area.c.obj
LOAD CMakeFiles/stm32-chibios.dir/C_/Users/error414/Documents/STM32/meteo-F4/lvgl/src/lv_misc/lv_async.c.obj
LOAD CMakeFiles/stm32-chibios.dir/C_/Users/error414/Documents/STM32/meteo-F4/lvgl/src/lv_misc/lv_bidi.c.obj
LOAD CMakeFiles/stm32-chibios.dir/C_/Users/error414/Documents/STM32/meteo-F4/lvgl/src/lv_misc/lv_color.c.obj
LOAD CMakeFiles/stm32-chibios.dir/C_/Users/error414/Documents/STM32/meteo-F4/lvgl/src/lv_misc/lv_debug.c.obj
LOAD CMakeFiles/stm32-chibios.dir/C_/Users/error414/Documents/STM32/meteo-F4/lvgl/src/lv_misc/lv_fs.c.obj
LOAD CMakeFiles/stm32-chibios.dir/C_/Users/error414/Documents/STM32/meteo-F4/lvgl/src/lv_misc/lv_gc.c.obj
LOAD CMakeFiles/stm32-chibios.dir/C_/Users/error414/Documents/STM32/meteo-F4/lvgl/src/lv_misc/lv_ll.c.obj
LOAD CMakeFiles/stm32-chibios.dir/C_/Users/error414/Documents/STM32/meteo-F4/lvgl/src/lv_misc/lv_log.c.obj
LOAD CMakeFiles/stm32-chibios.dir/C_/Users/error414/Documents/STM32/meteo-F4/lvgl/src/lv_misc/lv_math.c.obj
LOAD CMakeFiles/stm32-chibios.dir/C_/Users/error414/Documents/STM32/meteo-F4/lvgl/src/lv_misc/lv_mem.c.obj
LOAD CMakeFiles/stm32-chibios.dir/C_/Users/error414/Documents/STM32/meteo-F4/lvgl/src/lv_misc/lv_printf.c.obj
LOAD CMakeFiles/stm32-chibios.dir/C_/Users/error414/Documents/STM32/meteo-F4/lvgl/src/lv_misc/lv_task.c.obj
LOAD CMakeFiles/stm32-chibios.dir/C_/Users/error414/Documents/STM32/meteo-F4/lvgl/src/lv_misc/lv_templ.c.obj
LOAD CMakeFiles/stm32-chibios.dir/C_/Users/error414/Documents/STM32/meteo-F4/lvgl/src/lv_misc/lv_txt.c.obj
LOAD CMakeFiles/stm32-chibios.dir/C_/Users/error414/Documents/STM32/meteo-F4/lvgl/src/lv_misc/lv_txt_ap.c.obj
LOAD CMakeFiles/stm32-chibios.dir/C_/Users/error414/Documents/STM32/meteo-F4/lvgl/src/lv_misc/lv_utils.c.obj
LOAD CMakeFiles/stm32-chibios.dir/C_/Users/error414/Documents/STM32/meteo-F4/lvgl/src/lv_themes/lv_theme.c.obj
LOAD CMakeFiles/stm32-chibios.dir/C_/Users/error414/Documents/STM32/meteo-F4/lvgl/src/lv_themes/lv_theme_empty.c.obj
LOAD CMakeFiles/stm32-chibios.dir/C_/Users/error414/Documents/STM32/meteo-F4/lvgl/src/lv_themes/lv_theme_material.c.obj
LOAD CMakeFiles/stm32-chibios.dir/C_/Users/error414/Documents/STM32/meteo-F4/lvgl/src/lv_themes/lv_theme_mono.c.obj
LOAD CMakeFiles/stm32-chibios.dir/C_/Users/error414/Documents/STM32/meteo-F4/lvgl/src/lv_themes/lv_theme_template.c.obj
LOAD CMakeFiles/stm32-chibios.dir/C_/Users/error414/Documents/STM32/meteo-F4/lvgl/src/lv_widgets/lv_arc.c.obj
LOAD CMakeFiles/stm32-chibios.dir/C_/Users/error414/Documents/STM32/meteo-F4/lvgl/src/lv_widgets/lv_bar.c.obj
LOAD CMakeFiles/stm32-chibios.dir/C_/Users/error414/Documents/STM32/meteo-F4/lvgl/src/lv_widgets/lv_btn.c.obj
LOAD CMakeFiles/stm32-chibios.dir/C_/Users/error414/Documents/STM32/meteo-F4/lvgl/src/lv_widgets/lv_btnmatrix.c.obj
LOAD CMakeFiles/stm32-chibios.dir/C_/Users/error414/Documents/STM32/meteo-F4/lvgl/src/lv_widgets/lv_calendar.c.obj
LOAD CMakeFiles/stm32-chibios.dir/C_/Users/error414/Documents/STM32/meteo-F4/lvgl/src/lv_widgets/lv_canvas.c.obj
LOAD CMakeFiles/stm32-chibios.dir/C_/Users/error414/Documents/STM32/meteo-F4/lvgl/src/lv_widgets/lv_chart.c.obj
LOAD CMakeFiles/stm32-chibios.dir/C_/Users/error414/Documents/STM32/meteo-F4/lvgl/src/lv_widgets/lv_checkbox.c.obj
LOAD CMakeFiles/stm32-chibios.dir/C_/Users/error414/Documents/STM32/meteo-F4/lvgl/src/lv_widgets/lv_cont.c.obj
LOAD CMakeFiles/stm32-chibios.dir/C_/Users/error414/Documents/STM32/meteo-F4/lvgl/src/lv_widgets/lv_cpicker.c.obj
LOAD CMakeFiles/stm32-chibios.dir/C_/Users/error414/Documents/STM32/meteo-F4/lvgl/src/lv_widgets/lv_dropdown.c.obj
LOAD CMakeFiles/stm32-chibios.dir/C_/Users/error414/Documents/STM32/meteo-F4/lvgl/src/lv_widgets/lv_gauge.c.obj
LOAD CMakeFiles/stm32-chibios.dir/C_/Users/error414/Documents/STM32/meteo-F4/lvgl/src/lv_widgets/lv_img.c.obj
LOAD CMakeFiles/stm32-chibios.dir/C_/Users/error414/Documents/STM32/meteo-F4/lvgl/src/lv_widgets/lv_imgbtn.c.obj
LOAD CMakeFiles/stm32-chibios.dir/C_/Users/error414/Documents/STM32/meteo-F4/lvgl/src/lv_widgets/lv_keyboard.c.obj
LOAD CMakeFiles/stm32-chibios.dir/C_/Users/error414/Documents/STM32/meteo-F4/lvgl/src/lv_widgets/lv_label.c.obj
LOAD CMakeFiles/stm32-chibios.dir/C_/Users/error414/Documents/STM32/meteo-F4/lvgl/src/lv_widgets/lv_led.c.obj
LOAD CMakeFiles/stm32-chibios.dir/C_/Users/error414/Documents/STM32/meteo-F4/lvgl/src/lv_widgets/lv_line.c.obj
LOAD CMakeFiles/stm32-chibios.dir/C_/Users/error414/Documents/STM32/meteo-F4/lvgl/src/lv_widgets/lv_linemeter.c.obj
LOAD CMakeFiles/stm32-chibios.dir/C_/Users/error414/Documents/STM32/meteo-F4/lvgl/src/lv_widgets/lv_list.c.obj
LOAD CMakeFiles/stm32-chibios.dir/C_/Users/error414/Documents/STM32/meteo-F4/lvgl/src/lv_widgets/lv_msgbox.c.obj
LOAD CMakeFiles/stm32-chibios.dir/C_/Users/error414/Documents/STM32/meteo-F4/lvgl/src/lv_widgets/lv_objmask.c.obj
LOAD CMakeFiles/stm32-chibios.dir/C_/Users/error414/Documents/STM32/meteo-F4/lvgl/src/lv_widgets/lv_objx_templ.c.obj
LOAD CMakeFiles/stm32-chibios.dir/C_/Users/error414/Documents/STM32/meteo-F4/lvgl/src/lv_widgets/lv_page.c.obj
LOAD CMakeFiles/stm32-chibios.dir/C_/Users/error414/Documents/STM32/meteo-F4/lvgl/src/lv_widgets/lv_roller.c.obj
LOAD CMakeFiles/stm32-chibios.dir/C_/Users/error414/Documents/STM32/meteo-F4/lvgl/src/lv_widgets/lv_slider.c.obj
LOAD CMakeFiles/stm32-chibios.dir/C_/Users/error414/Documents/STM32/meteo-F4/lvgl/src/lv_widgets/lv_spinbox.c.obj
LOAD CMakeFiles/stm32-chibios.dir/C_/Users/error414/Documents/STM32/meteo-F4/lvgl/src/lv_widgets/lv_spinner.c.obj
LOAD CMakeFiles/stm32-chibios.dir/C_/Users/error414/Documents/STM32/meteo-F4/lvgl/src/lv_widgets/lv_switch.c.obj
LOAD CMakeFiles/stm32-chibios.dir/C_/Users/error414/Documents/STM32/meteo-F4/lvgl/src/lv_widgets/lv_table.c.obj
LOAD CMakeFiles/stm32-chibios.dir/C_/Users/error414/Documents/STM32/meteo-F4/lvgl/src/lv_widgets/lv_tabview.c.obj
LOAD CMakeFiles/stm32-chibios.dir/C_/Users/error414/Documents/STM32/meteo-F4/lvgl/src/lv_widgets/lv_textarea.c.obj
LOAD CMakeFiles/stm32-chibios.dir/C_/Users/error414/Documents/STM32/meteo-F4/lvgl/src/lv_widgets/lv_tileview.c.obj
LOAD CMakeFiles/stm32-chibios.dir/C_/Users/error414/Documents/STM32/meteo-F4/lvgl/src/lv_widgets/lv_win.c.obj
LOAD CMakeFiles/stm32-chibios.dir/main.c.obj
LOAD CMakeFiles/stm32-chibios.dir/shell/shell.c.obj
LOAD CMakeFiles/stm32-chibios.dir/shell/shellCmd.c.obj
LOAD CMakeFiles/stm32-chibios.dir/cfg/board.c.obj
LOAD CMakeFiles/stm32-chibios.dir/cfg/hw.c.obj
LOAD CMakeFiles/stm32-chibios.dir/images/fc_clear.c.obj
LOAD CMakeFiles/stm32-chibios.dir/images/fc_cloud.c.obj
LOAD CMakeFiles/stm32-chibios.dir/images/fc_drizzle.c.obj
LOAD CMakeFiles/stm32-chibios.dir/images/fc_heavy_cloud.c.obj
LOAD CMakeFiles/stm32-chibios.dir/images/fc_part_clound.c.obj
LOAD CMakeFiles/stm32-chibios.dir/images/fc_rain.c.obj
LOAD CMakeFiles/stm32-chibios.dir/images/fc_snow.c.obj
LOAD CMakeFiles/stm32-chibios.dir/images/fc_thunderstorm.c.obj
LOAD CMakeFiles/stm32-chibios.dir/images/humidity36.c.obj
LOAD CMakeFiles/stm32-chibios.dir/images/no_rain36.c.obj
LOAD CMakeFiles/stm32-chibios.dir/images/pressure36.c.obj
LOAD CMakeFiles/stm32-chibios.dir/images/rain36.c.obj
LOAD CMakeFiles/stm32-chibios.dir/images/sun36.c.obj
LOAD CMakeFiles/stm32-chibios.dir/images/temp.c.obj
LOAD CMakeFiles/stm32-chibios.dir/images/uv36.c.obj
LOAD CMakeFiles/stm32-chibios.dir/images/wind36.c.obj
LOAD CMakeFiles/stm32-chibios.dir/font/digital_16.c.obj
LOAD CMakeFiles/stm32-chibios.dir/font/digital_20.c.obj
LOAD CMakeFiles/stm32-chibios.dir/font/digital_48.c.obj
LOAD CMakeFiles/stm32-chibios.dir/font/dogica12.c.obj
LOAD CMakeFiles/stm32-chibios.dir/font/omega12.c.obj
LOAD CMakeFiles/stm32-chibios.dir/font/omega16.c.obj
LOAD CMakeFiles/stm32-chibios.dir/font/omega20.c.obj
LOAD CMakeFiles/stm32-chibios.dir/font/press12.c.obj
LOAD CMakeFiles/stm32-chibios.dir/font/press14.c.obj
LOAD CMakeFiles/stm32-chibios.dir/font/press16.c.obj
LOAD CMakeFiles/stm32-chibios.dir/font/retro12.c.obj
LOAD CMakeFiles/stm32-chibios.dir/font/retro20.c.obj
LOAD CMakeFiles/stm32-chibios.dir/font/upheaval16.c.obj
LOAD CMakeFiles/stm32-chibios.dir/font/upheaval20.c.obj
LOAD CMakeFiles/stm32-chibios.dir/font/upheaval30.c.obj
LOAD CMakeFiles/stm32-chibios.dir/font/upheaval48.c.obj
LOAD CMakeFiles/stm32-chibios.dir/gui/guHeader.c.obj
LOAD CMakeFiles/stm32-chibios.dir/gui/guiForecast.c.obj
LOAD CMakeFiles/stm32-chibios.dir/gui/guiInside.c.obj
LOAD CMakeFiles/stm32-chibios.dir/gui/guiMain.c.obj
LOAD CMakeFiles/stm32-chibios.dir/gui/guiOutside.c.obj
LOAD CMakeFiles/stm32-chibios.dir/drivers/EPD_7in5_HD.c.obj
LOAD CMakeFiles/stm32-chibios.dir/drivers/bmp280.c.obj
LOAD CMakeFiles/stm32-chibios.dir/drivers/msp.c.obj
LOAD CMakeFiles/stm32-chibios.dir/threads/bmp280Thread.c.obj
LOAD CMakeFiles/stm32-chibios.dir/threads/guiThread.c.obj
LOAD CMakeFiles/stm32-chibios.dir/threads/hc12Thread.c.obj
LOAD CMakeFiles/stm32-chibios.dir/threads/hwListThread.c.obj
LOAD CMakeFiles/stm32-chibios.dir/threads/mspRxThread.c.obj
LOAD CMakeFiles/stm32-chibios.dir/threads/pools.c.obj
LOAD c:/users/error414/documents/stm32-tools/gcc-arm-none-eabi-10-2020-q4-major/bin/../lib/gcc/arm-none-eabi/10.2.1/../../../../arm-none-eabi/lib/thumb/v7e-m/nofp\libm.a
LOAD c:/users/error414/documents/stm32-tools/gcc-arm-none-eabi-10-2020-q4-major/bin/../lib/gcc/arm-none-eabi/10.2.1/../../../../arm-none-eabi/lib/thumb/v7e-m/nofp\libnosys.a
START GROUP
LOAD c:/users/error414/documents/stm32-tools/gcc-arm-none-eabi-10-2020-q4-major/bin/../lib/gcc/arm-none-eabi/10.2.1/thumb/v7e-m/nofp\libgcc.a
LOAD c:/users/error414/documents/stm32-tools/gcc-arm-none-eabi-10-2020-q4-major/bin/../lib/gcc/arm-none-eabi/10.2.1/../../../../arm-none-eabi/lib/thumb/v7e-m/nofp\libg.a
LOAD c:/users/error414/documents/stm32-tools/gcc-arm-none-eabi-10-2020-q4-major/bin/../lib/gcc/arm-none-eabi/10.2.1/../../../../arm-none-eabi/lib/thumb/v7e-m/nofp\libc.a
END GROUP

.mstack         0x20000000      0x190
                0x20000000                . = ALIGN (0x8)
                0x20000000                __main_stack_base__ = .
                0x20000190                . = (. + __main_stack_size__)
 *fill*         0x20000000      0x190 
                0x20000190                . = ALIGN (0x8)
                0x20000190                __main_stack_end__ = .

.pstack         0x20000190      0x190
                0x20000190                . = ALIGN (0x8)
                0x20000190                __process_stack_base__ = .
                0x20000190                __main_thread_stack_base__ = .
                0x20000320                . = (. + __process_stack_size__)
 *fill*         0x20000190      0x190 
                0x20000320                . = ALIGN (0x8)
                0x20000320                __process_stack_end__ = .
                0x20000320                __main_thread_stack_end__ = .

.vectors        0x08000000      0x1e0
 *(.vectors)
 .vectors       0x08000000      0x1e0 CMakeFiles/stm32-chibios.dir/C_/Users/error414/Documents/STM32/meteo-F4/ChibiOS/os/common/startup/ARMCMx/compilers/GCC/vectors.S.obj
                0x08000000                _vectors

.xtors          0x080001e0        0x0
                0x080001e0                __init_array_base__ = .
 *(SORT_BY_NAME(.init_array.*))
 *(.init_array)
                0x080001e0                __init_array_end__ = .
                0x080001e0                __fini_array_base__ = .
 *(.fini_array)
 *(SORT_BY_NAME(.fini_array.*))
                0x080001e0                __fini_array_end__ = .

.text           0x08000200    0x1c77c
                0x08000200                __text_base__ = .
 *(.text)
 .text          0x08000200        0x0 C:\Users\error414\AppData\Local\Temp\stm32-chibios.0UTc6U.ltrans0.ltrans.o
 .text          0x08000200        0x0 C:\Users\error414\AppData\Local\Temp\stm32-chibios.0UTc6U.ltrans1.ltrans.o
 .text          0x08000200        0x0 C:\Users\error414\AppData\Local\Temp\stm32-chibios.0UTc6U.ltrans2.ltrans.o
 .text          0x08000200        0x0 C:\Users\error414\AppData\Local\Temp\stm32-chibios.0UTc6U.ltrans3.ltrans.o
 .text          0x08000200      0x120 CMakeFiles/stm32-chibios.dir/C_/Users/error414/Documents/STM32/meteo-F4/ChibiOS/os/common/startup/ARMCMx/compilers/GCC/crt0_v7m.S.obj
                0x08000200                _crt0_entry
 .text          0x08000320        0x8 CMakeFiles/stm32-chibios.dir/C_/Users/error414/Documents/STM32/meteo-F4/ChibiOS/os/common/startup/ARMCMx/compilers/GCC/vectors.S.obj
                0x08000320                Reset_Handler
                0x08000322                VectorAC
                0x08000322                DebugMon_Handler
                0x08000322                Vector1A0
                0x08000322                Vector11C
                0x08000322                HardFault_Handler
                0x08000322                Vector1B8
                0x08000322                Vector19C
                0x08000322                Vector8C
                0x08000322                SysTick_Handler
                0x08000322                VectorDC
                0x08000322                PendSV_Handler
                0x08000322                Vector168
                0x08000322                NMI_Handler
                0x08000322                Vector110
                0x08000322                Vector1D8
                0x08000322                VectorC8
                0x08000322                Vector94
                0x08000322                VectorA8
                0x08000322                VectorB4
                0x08000322                Vector160
                0x08000322                Vector1B0
                0x08000322                UsageFault_Handler
                0x08000322                VectorEC
                0x08000322                Vector40
                0x08000322                VectorF8
                0x08000322                Vector108
                0x08000322                Vector190
                0x08000322                Vector1C4
                0x08000322                Vector1CC
                0x08000322                Vector148
                0x08000322                Vector188
                0x08000322                Vector198
                0x08000322                Vector118
                0x08000322                VectorE8
                0x08000322                VectorCC
                0x08000322                Vector54
                0x08000322                Vector98
                0x08000322                Vector138
                0x08000322                Vector24
                0x08000322                Vector1AC
                0x08000322                Vector178
                0x08000322                SecureFault_Handler
                0x08000322                Vector1A4
                0x08000322                VectorD0
                0x08000322                Vector1B4
                0x08000322                Vector140
                0x08000322                VectorE4
                0x08000322                Vector1C0
                0x08000322                Vector134
                0x08000322                Vector1D0
                0x08000322                VectorF0
                0x08000322                Vector13C
                0x08000322                Vector100
                0x08000322                VectorF4
                0x08000322                MemManage_Handler
                0x08000322                VectorA0
                0x08000322                VectorC4
                0x08000322                Vector180
                0x08000322                Vector90
                0x08000322                Vector114
                0x08000322                Vector164
                0x08000322                Vector1BC
                0x08000322                Vector1D4
                0x08000322                Vector17C
                0x08000322                Vector48
                0x08000322                Vector1A8
                0x08000322                Vector16C
                0x08000322                VectorD4
                0x08000322                Vector4C
                0x08000322                Vector144
                0x08000322                Vector18C
                0x08000322                Vector170
                0x08000322                Vector88
                0x08000322                Vector104
                0x08000322                Vector184
                0x08000322                Vector10C
                0x08000322                Vector14C
                0x08000322                BusFault_Handler
                0x08000322                Vector50
                0x08000322                Vector1C8
                0x08000322                Vector194
                0x08000322                Vector1DC
                0x08000322                Vector44
                0x08000322                Vector28
                0x08000322                VectorB8
                0x08000322                Vector34
                0x08000322                VectorA4
                0x08000322                Vector20
                0x08000322                Vector174
                0x08000326                _unhandled_exception
 .text          0x08000328       0x3e CMakeFiles/stm32-chibios.dir/C_/Users/error414/Documents/STM32/meteo-F4/ChibiOS/os/common/ports/ARMv7-M/compilers/GCC/chcoreasm.S.obj
                0x08000328                __port_switch
                0x08000340                __port_thread_start
                0x08000356                __port_switch_from_isr
                0x08000362                __port_exit_from_isr
 .text          0x08000366        0x0 c:/users/error414/documents/stm32-tools/gcc-arm-none-eabi-10-2020-q4-major/bin/../lib/gcc/arm-none-eabi/10.2.1/../../../../arm-none-eabi/lib/thumb/v7e-m/nofp\libg.a(lib_a-ctype_.o)
 .text          0x08000366        0x0 c:/users/error414/documents/stm32-tools/gcc-arm-none-eabi-10-2020-q4-major/bin/../lib/gcc/arm-none-eabi/10.2.1/../../../../arm-none-eabi/lib/thumb/v7e-m/nofp\libg.a(lib_a-memcmp.o)
 *fill*         0x08000366        0x2 
 .text          0x08000368      0x134 c:/users/error414/documents/stm32-tools/gcc-arm-none-eabi-10-2020-q4-major/bin/../lib/gcc/arm-none-eabi/10.2.1/../../../../arm-none-eabi/lib/thumb/v7e-m/nofp\libg.a(lib_a-memcpy.o)
                0x08000368                memcpy
 .text          0x0800049c        0x0 c:/users/error414/documents/stm32-tools/gcc-arm-none-eabi-10-2020-q4-major/bin/../lib/gcc/arm-none-eabi/10.2.1/../../../../arm-none-eabi/lib/thumb/v7e-m/nofp\libg.a(lib_a-strchr.o)
 *fill*         0x0800049c        0x4 
 .text          0x080004a0      0x2dc c:/users/error414/documents/stm32-tools/gcc-arm-none-eabi-10-2020-q4-major/bin/../lib/gcc/arm-none-eabi/10.2.1/../../../../arm-none-eabi/lib/thumb/v7e-m/nofp\libg.a(lib_a-strcmp.o)
                0x080004a8                strcmp
 .text          0x0800077c        0x0 c:/users/error414/documents/stm32-tools/gcc-arm-none-eabi-10-2020-q4-major/bin/../lib/gcc/arm-none-eabi/10.2.1/../../../../arm-none-eabi/lib/thumb/v7e-m/nofp\libg.a(lib_a-strcpy.o)
 *fill*         0x0800077c        0x4 
 .text          0x08000780       0xdc c:/users/error414/documents/stm32-tools/gcc-arm-none-eabi-10-2020-q4-major/bin/../lib/gcc/arm-none-eabi/10.2.1/../../../../arm-none-eabi/lib/thumb/v7e-m/nofp\libg.a(lib_a-strlen.o)
                0x08000780                strlen
 .text          0x0800085c        0x0 c:/users/error414/documents/stm32-tools/gcc-arm-none-eabi-10-2020-q4-major/bin/../lib/gcc/arm-none-eabi/10.2.1/../../../../arm-none-eabi/lib/thumb/v7e-m/nofp\libg.a(lib_a-strncpy.o)
 .text          0x0800085c        0x0 c:/users/error414/documents/stm32-tools/gcc-arm-none-eabi-10-2020-q4-major/bin/../lib/gcc/arm-none-eabi/10.2.1/../../../../arm-none-eabi/lib/thumb/v7e-m/nofp\libg.a(lib_a-strpbrk.o)
 .text          0x0800085c        0x0 c:/users/error414/documents/stm32-tools/gcc-arm-none-eabi-10-2020-q4-major/bin/../lib/gcc/arm-none-eabi/10.2.1/../../../../arm-none-eabi/lib/thumb/v7e-m/nofp\libg.a(lib_a-strspn.o)
 .text          0x0800085c      0x254 c:/users/error414/documents/stm32-tools/gcc-arm-none-eabi-10-2020-q4-major/bin/../lib/gcc/arm-none-eabi/10.2.1/thumb/v7e-m/nofp\libgcc.a(_arm_muldf3.o)
                0x0800085c                __muldf3
                0x0800085c                __aeabi_dmul
 .text          0x08000ab0      0x168 c:/users/error414/documents/stm32-tools/gcc-arm-none-eabi-10-2020-q4-major/bin/../lib/gcc/arm-none-eabi/10.2.1/thumb/v7e-m/nofp\libgcc.a(_arm_mulsf3.o)
 .text          0x08000c18      0x378 c:/users/error414/documents/stm32-tools/gcc-arm-none-eabi-10-2020-q4-major/bin/../lib/gcc/arm-none-eabi/10.2.1/thumb/v7e-m/nofp\libgcc.a(_arm_addsubdf3.o)
                0x08000c18                __aeabi_drsub
                0x08000c20                __aeabi_dsub
                0x08000c20                __subdf3
                0x08000c24                __aeabi_dadd
                0x08000c24                __adddf3
                0x08000e9c                __floatunsidf
                0x08000e9c                __aeabi_ui2d
                0x08000ebc                __floatsidf
                0x08000ebc                __aeabi_i2d
                0x08000ee0                __aeabi_f2d
                0x08000ee0                __extendsfdf2
                0x08000f24                __floatundidf
                0x08000f24                __aeabi_ul2d
                0x08000f34                __floatdidf
                0x08000f34                __aeabi_l2d
 .text          0x08000f90       0x50 c:/users/error414/documents/stm32-tools/gcc-arm-none-eabi-10-2020-q4-major/bin/../lib/gcc/arm-none-eabi/10.2.1/thumb/v7e-m/nofp\libgcc.a(_arm_fixdfsi.o)
                0x08000f90                __aeabi_d2iz
                0x08000f90                __fixdfsi
 .text          0x08000fe0       0xa0 c:/users/error414/documents/stm32-tools/gcc-arm-none-eabi-10-2020-q4-major/bin/../lib/gcc/arm-none-eabi/10.2.1/thumb/v7e-m/nofp\libgcc.a(_arm_truncdfsf2.o)
                0x08000fe0                __truncdfsf2
                0x08000fe0                __aeabi_d2f
 .text          0x08001080      0x21c c:/users/error414/documents/stm32-tools/gcc-arm-none-eabi-10-2020-q4-major/bin/../lib/gcc/arm-none-eabi/10.2.1/thumb/v7e-m/nofp\libgcc.a(_arm_addsubsf3.o)
                0x08001080                __aeabi_frsub
                0x08001088                __subsf3
                0x08001088                __aeabi_fsub
                0x0800108c                __aeabi_fadd
                0x0800108c                __addsf3
                0x080011ec                __aeabi_ui2f
                0x080011ec                __floatunsisf
                0x080011f4                __aeabi_i2f
                0x080011f4                __floatsisf
                0x08001210                __aeabi_ul2f
                0x08001210                __floatundisf
                0x08001220                __aeabi_l2f
                0x08001220                __floatdisf
 .text          0x0800129c      0x2a0 c:/users/error414/documents/stm32-tools/gcc-arm-none-eabi-10-2020-q4-major/bin/../lib/gcc/arm-none-eabi/10.2.1/thumb/v7e-m/nofp\libgcc.a(_arm_muldivsf3.o)
                0x0800129c                __mulsf3
                0x0800129c                __aeabi_fmul
                0x08001404                __aeabi_fdiv
                0x08001404                __divsf3
 .text          0x0800153c       0xec c:/users/error414/documents/stm32-tools/gcc-arm-none-eabi-10-2020-q4-major/bin/../lib/gcc/arm-none-eabi/10.2.1/thumb/v7e-m/nofp\libgcc.a(_arm_cmpsf2.o)
                0x0800153c                __gesf2
                0x0800153c                __gtsf2
                0x08001544                __lesf2
                0x08001544                __ltsf2
                0x0800154c                __nesf2
                0x0800154c                __eqsf2
                0x0800154c                __cmpsf2
                0x080015ac                __aeabi_cfrcmple
                0x080015b4                __aeabi_cfcmpeq
                0x080015b4                __aeabi_cfcmple
                0x080015c4                __aeabi_fcmpeq
                0x080015d8                __aeabi_fcmplt
                0x080015ec                __aeabi_fcmple
                0x08001600                __aeabi_fcmpge
                0x08001614                __aeabi_fcmpgt
 .text          0x08001628       0x40 c:/users/error414/documents/stm32-tools/gcc-arm-none-eabi-10-2020-q4-major/bin/../lib/gcc/arm-none-eabi/10.2.1/thumb/v7e-m/nofp\libgcc.a(_arm_fixunssfsi.o)
                0x08001628                __fixunssfsi
                0x08001628                __aeabi_f2uiz
 .text          0x08001668       0xa0 c:/users/error414/documents/stm32-tools/gcc-arm-none-eabi-10-2020-q4-major/bin/../lib/gcc/arm-none-eabi/10.2.1/thumb/v7e-m/nofp\libgcc.a(_aeabi_ldivmod.o)
                0x08001668                __aeabi_ldivmod
 .text          0x08001708      0x2d0 c:/users/error414/documents/stm32-tools/gcc-arm-none-eabi-10-2020-q4-major/bin/../lib/gcc/arm-none-eabi/10.2.1/thumb/v7e-m/nofp\libgcc.a(_udivmoddi4.o)
                0x08001708                __udivmoddi4
 .text          0x080019d8        0x4 c:/users/error414/documents/stm32-tools/gcc-arm-none-eabi-10-2020-q4-major/bin/../lib/gcc/arm-none-eabi/10.2.1/thumb/v7e-m/nofp\libgcc.a(_dvmd_tls.o)
                0x080019d8                __aeabi_idiv0
                0x080019d8                __aeabi_ldiv0
 *(.text.*)
 *fill*         0x080019dc        0x4 
 .text.stStopAlarm
                0x080019e0        0xc C:\Users\error414\AppData\Local\Temp\stm32-chibios.0UTc6U.ltrans0.ltrans.o
 *fill*         0x080019ec        0x4 
 .text.stIsAlarmActive
                0x080019f0        0xc C:\Users\error414\AppData\Local\Temp\stm32-chibios.0UTc6U.ltrans0.ltrans.o
 *fill*         0x080019fc        0x4 
 .text.iqObjectInit
                0x08001a00       0x20 C:\Users\error414\AppData\Local\Temp\stm32-chibios.0UTc6U.ltrans0.ltrans.o
 .text.oqObjectInit
                0x08001a20       0x18 C:\Users\error414\AppData\Local\Temp\stm32-chibios.0UTc6U.ltrans0.ltrans.o
 *fill*         0x08001a38        0x8 
 .text.sdObjectInit
                0x08001a40       0x40 C:\Users\error414\AppData\Local\Temp\stm32-chibios.0UTc6U.ltrans0.ltrans.o
 .text.nvicEnableVector
                0x08001a80       0x28 C:\Users\error414\AppData\Local\Temp\stm32-chibios.0UTc6U.ltrans0.ltrans.o
 *fill*         0x08001aa8        0x8 
 .text.nvicDisableVector
                0x08001ab0       0x28 C:\Users\error414\AppData\Local\Temp\stm32-chibios.0UTc6U.ltrans0.ltrans.o
 *fill*         0x08001ad8        0x8 
 .text.irqInit  0x08001ae0       0x54 C:\Users\error414\AppData\Local\Temp\stm32-chibios.0UTc6U.ltrans0.ltrans.o
 *fill*         0x08001b34        0xc 
 .text.hal_lld_backup_domain_init
                0x08001b40       0x38 C:\Users\error414\AppData\Local\Temp\stm32-chibios.0UTc6U.ltrans0.ltrans.o
 *fill*         0x08001b78        0x8 
 .text.dmaInit  0x08001b80       0x44 C:\Users\error414\AppData\Local\Temp\stm32-chibios.0UTc6U.ltrans0.ltrans.o
 *fill*         0x08001bc4        0xc 
 .text.hal_lld_init
                0x08001bd0       0x68 C:\Users\error414\AppData\Local\Temp\stm32-chibios.0UTc6U.ltrans0.ltrans.o
 *fill*         0x08001c38        0x8 
 .text._pal_lld_init
                0x08001c40       0x20 C:\Users\error414\AppData\Local\Temp\stm32-chibios.0UTc6U.ltrans0.ltrans.o
 .text.i2c_lld_abort_operation
                0x08001c60       0x58 C:\Users\error414\AppData\Local\Temp\stm32-chibios.0UTc6U.ltrans0.ltrans.o
 *fill*         0x08001cb8        0x8 
 .text.i2c_lld_set_opmode
                0x08001cc0       0x34 C:\Users\error414\AppData\Local\Temp\stm32-chibios.0UTc6U.ltrans0.ltrans.o
 *fill*         0x08001cf4        0xc 
 .text.st_lld_init
                0x08001d00       0x48 C:\Users\error414\AppData\Local\Temp\stm32-chibios.0UTc6U.ltrans0.ltrans.o
 *fill*         0x08001d48        0x8 
 .text.stInit   0x08001d50        0x8 C:\Users\error414\AppData\Local\Temp\stm32-chibios.0UTc6U.ltrans0.ltrans.o
 *fill*         0x08001d58        0x8 
 .text.notify2  0x08001d60       0x10 C:\Users\error414\AppData\Local\Temp\stm32-chibios.0UTc6U.ltrans0.ltrans.o
 .text.notify6  0x08001d70       0x10 C:\Users\error414\AppData\Local\Temp\stm32-chibios.0UTc6U.ltrans0.ltrans.o
 .text.sd_lld_init
                0x08001d80       0x58 C:\Users\error414\AppData\Local\Temp\stm32-chibios.0UTc6U.ltrans0.ltrans.o
 *fill*         0x08001dd8        0x8 
 .text.sdInit   0x08001de0        0x8 C:\Users\error414\AppData\Local\Temp\stm32-chibios.0UTc6U.ltrans0.ltrans.o
 *fill*         0x08001de8        0x8 
 .text.vt_list_compress
                0x08001df0       0x24 C:\Users\error414\AppData\Local\Temp\stm32-chibios.0UTc6U.ltrans0.ltrans.o
 *fill*         0x08001e14        0xc 
 .text.chSchIsPreemptionRequired
                0x08001e20       0x18 C:\Users\error414\AppData\Local\Temp\stm32-chibios.0UTc6U.ltrans0.ltrans.o
 *fill*         0x08001e38        0x8 
 .text.__idle_thread
                0x08001e40        0x4 C:\Users\error414\AppData\Local\Temp\stm32-chibios.0UTc6U.ltrans0.ltrans.o
 *fill*         0x08001e44        0xc 
 .text.__thd_object_init
                0x08001e50       0x48 C:\Users\error414\AppData\Local\Temp\stm32-chibios.0UTc6U.ltrans0.ltrans.o
 *fill*         0x08001e98        0x8 
 .text.__thd_memfill
                0x08001ea0        0xc C:\Users\error414\AppData\Local\Temp\stm32-chibios.0UTc6U.ltrans0.ltrans.o
 *fill*         0x08001eac        0x4 
 .text.chTMObjectInit
                0x08001eb0       0x18 C:\Users\error414\AppData\Local\Temp\stm32-chibios.0UTc6U.ltrans0.ltrans.o
 *fill*         0x08001ec8        0x8 
 .text.chTMStartMeasurementX
                0x08001ed0        0xc C:\Users\error414\AppData\Local\Temp\stm32-chibios.0UTc6U.ltrans0.ltrans.o
 *fill*         0x08001edc        0x4 
 .text.chTMStopMeasurementX
                0x08001ee0       0x40 C:\Users\error414\AppData\Local\Temp\stm32-chibios.0UTc6U.ltrans0.ltrans.o
 .text.__core_init
                0x08001f20       0x18 C:\Users\error414\AppData\Local\Temp\stm32-chibios.0UTc6U.ltrans0.ltrans.o
 *fill*         0x08001f38        0x8 
 .text.port_init
                0x08001f40       0x48 C:\Users\error414\AppData\Local\Temp\stm32-chibios.0UTc6U.ltrans0.ltrans.o
 *fill*         0x08001f88        0x8 
 .text.__port_irq_epilogue
                0x08001f90       0x54 C:\Users\error414\AppData\Local\Temp\stm32-chibios.0UTc6U.ltrans0.ltrans.o
 *fill*         0x08001fe4        0xc 
 .text.long_to_string_with_divisor
                0x08001ff0       0x4c C:\Users\error414\AppData\Local\Temp\stm32-chibios.0UTc6U.ltrans0.ltrans.o
 *fill*         0x0800203c        0x4 
 .text.ch_ltoa  0x08002040        0xc C:\Users\error414\AppData\Local\Temp\stm32-chibios.0UTc6U.ltrans0.ltrans.o
 *fill*         0x0800204c        0x4 
 .text.ftoa     0x08002050       0x80 C:\Users\error414\AppData\Local\Temp\stm32-chibios.0UTc6U.ltrans0.ltrans.o
 .text.chvprintf
                0x080020d0      0x34c C:\Users\error414\AppData\Local\Temp\stm32-chibios.0UTc6U.ltrans0.ltrans.o
 *fill*         0x0800241c        0x4 
 .text._put.lto_priv.1
                0x08002420       0x1c C:\Users\error414\AppData\Local\Temp\stm32-chibios.0UTc6U.ltrans0.ltrans.o
 *fill*         0x0800243c        0x4 
 .text._get.lto_priv.1
                0x08002440       0x1c C:\Users\error414\AppData\Local\Temp\stm32-chibios.0UTc6U.ltrans0.ltrans.o
 *fill*         0x0800245c        0x4 
 .text._unget   0x08002460       0x18 C:\Users\error414\AppData\Local\Temp\stm32-chibios.0UTc6U.ltrans0.ltrans.o
 *fill*         0x08002478        0x8 
 .text.msObjectInit
                0x08002480       0x18 C:\Users\error414\AppData\Local\Temp\stm32-chibios.0UTc6U.ltrans0.ltrans.o
 *fill*         0x08002498        0x8 
 .text.chvsnprintf
                0x080024a0       0x38 C:\Users\error414\AppData\Local\Temp\stm32-chibios.0UTc6U.ltrans0.ltrans.o
 *fill*         0x080024d8        0x8 
 .text.lv_group_get_focused
                0x080024e0        0xc C:\Users\error414\AppData\Local\Temp\stm32-chibios.0UTc6U.ltrans0.ltrans.o
 *fill*         0x080024ec        0x4 
 .text.lv_group_get_editing
                0x080024f0       0x10 C:\Users\error414\AppData\Local\Temp\stm32-chibios.0UTc6U.ltrans0.ltrans.o
 .text.lv_indev_get_act
                0x08002500        0x4 C:\Users\error414\AppData\Local\Temp\stm32-chibios.0UTc6U.ltrans0.ltrans.o
 *fill*         0x08002504        0xc 
 .text.lv_indev_get_obj_act
                0x08002510        0xc C:\Users\error414\AppData\Local\Temp\stm32-chibios.0UTc6U.ltrans0.ltrans.o
 *fill*         0x0800251c        0x4 
 .text.lv_event_send_func
                0x08002520       0x94 C:\Users\error414\AppData\Local\Temp\stm32-chibios.0UTc6U.ltrans0.ltrans.o
 *fill*         0x080025b4        0xc 
 .text.lv_event_send
                0x080025c0       0x18 C:\Users\error414\AppData\Local\Temp\stm32-chibios.0UTc6U.ltrans0.ltrans.o
 *fill*         0x080025d8        0x8 
 .text.lv_signal_send
                0x080025e0       0x14 C:\Users\error414\AppData\Local\Temp\stm32-chibios.0UTc6U.ltrans0.ltrans.o
 *fill*         0x080025f4        0xc 
 .text.lv_obj_get_focus_parent
                0x08002600        0xc C:\Users\error414\AppData\Local\Temp\stm32-chibios.0UTc6U.ltrans0.ltrans.o
 *fill*         0x0800260c        0x4 
 .text.lv_obj_get_state
                0x08002610       0x2c C:\Users\error414\AppData\Local\Temp\stm32-chibios.0UTc6U.ltrans0.ltrans.o
 *fill*         0x0800263c        0x4 
 .text.lv_obj_get_group
                0x08002640        0x4 C:\Users\error414\AppData\Local\Temp\stm32-chibios.0UTc6U.ltrans0.ltrans.o
 *fill*         0x08002644        0xc 
 .text.lv_obj_is_focused
                0x08002650       0x1c C:\Users\error414\AppData\Local\Temp\stm32-chibios.0UTc6U.ltrans0.ltrans.o
 *fill*         0x0800266c        0x4 
 .text.refresh_children_position
                0x08002670       0x4c C:\Users\error414\AppData\Local\Temp\stm32-chibios.0UTc6U.ltrans0.ltrans.o
 *fill*         0x080026bc        0x4 
 .text.lv_event_mark_deleted
                0x080026c0       0x1c C:\Users\error414\AppData\Local\Temp\stm32-chibios.0UTc6U.ltrans0.ltrans.o
 *fill*         0x080026dc        0x4 
 .text.style_prop_is_cacheble
                0x080026e0      0x120 C:\Users\error414\AppData\Local\Temp\stm32-chibios.0UTc6U.ltrans0.ltrans.o
 .text._lv_refr_init
                0x08002800        0x4 C:\Users\error414\AppData\Local\Temp\stm32-chibios.0UTc6U.ltrans0.ltrans.o
 *fill*         0x08002804        0xc 
 .text._writes  0x08002810       0x24 C:\Users\error414\AppData\Local\Temp\stm32-chibios.0UTc6U.ltrans0.ltrans.o
 *fill*         0x08002834        0xc 
 .text._reads   0x08002840       0x28 C:\Users\error414\AppData\Local\Temp\stm32-chibios.0UTc6U.ltrans0.ltrans.o
 *fill*         0x08002868        0x8 
 .text.lv_disp_get_scr_prev
                0x08002870       0x18 C:\Users\error414\AppData\Local\Temp\stm32-chibios.0UTc6U.ltrans0.ltrans.o
 *fill*         0x08002888        0x8 
 .text.lv_disp_get_layer_top
                0x08002890       0x18 C:\Users\error414\AppData\Local\Temp\stm32-chibios.0UTc6U.ltrans0.ltrans.o
 *fill*         0x080028a8        0x8 
 .text.lv_disp_get_layer_sys
                0x080028b0       0x18 C:\Users\error414\AppData\Local\Temp\stm32-chibios.0UTc6U.ltrans0.ltrans.o
 *fill*         0x080028c8        0x8 
 .text._lv_group_init
                0x080028d0       0x10 C:\Users\error414\AppData\Local\Temp\stm32-chibios.0UTc6U.ltrans0.ltrans.o
 .text.lv_indev_reset
                0x080028e0       0x68 C:\Users\error414\AppData\Local\Temp\stm32-chibios.0UTc6U.ltrans0.ltrans.o
 *fill*         0x08002948        0x8 
 .text._lv_indev_init
                0x08002950        0xc C:\Users\error414\AppData\Local\Temp\stm32-chibios.0UTc6U.ltrans0.ltrans.o
 *fill*         0x0800295c        0x4 
 .text.style_snapshot_compare
                0x08002960      0x15c C:\Users\error414\AppData\Local\Temp\stm32-chibios.0UTc6U.ltrans0.ltrans.o
 *fill*         0x08002abc        0x4 
 .text.lv_refr_join_area
                0x08002ac0       0xe0 C:\Users\error414\AppData\Local\Temp\stm32-chibios.0UTc6U.ltrans0.ltrans.o
 .text.__cpu_init
                0x08002ba0        0x4 C:\Users\error414\AppData\Local\Temp\stm32-chibios.0UTc6U.ltrans0.ltrans.o
                0x08002ba0                __cpu_init
 *fill*         0x08002ba4        0xc 
 .text.__late_init
                0x08002bb0        0x4 C:\Users\error414\AppData\Local\Temp\stm32-chibios.0UTc6U.ltrans0.ltrans.o
                0x08002bb0                __late_init
 *fill*         0x08002bb4        0xc 
 .text.__default_exit
                0x08002bc0        0x4 C:\Users\error414\AppData\Local\Temp\stm32-chibios.0UTc6U.ltrans0.ltrans.o
                0x08002bc0                __default_exit
 *fill*         0x08002bc4        0xc 
 .text.__init_ram_areas
                0x08002bd0       0x38 C:\Users\error414\AppData\Local\Temp\stm32-chibios.0UTc6U.ltrans0.ltrans.o
                0x08002bd0                __init_ram_areas
 *fill*         0x08002c08        0x8 
 .text.stGetCounter
                0x08002c10        0x8 C:\Users\error414\AppData\Local\Temp\stm32-chibios.0UTc6U.ltrans0.ltrans.o
                0x08002c10                stGetCounter
 *fill*         0x08002c18        0x8 
 .text.stm32_clock_init
                0x08002c20      0x11c C:\Users\error414\AppData\Local\Temp\stm32-chibios.0UTc6U.ltrans0.ltrans.o
                0x08002c20                stm32_clock_init
 *fill*         0x08002d3c        0x4 
 .text._pal_lld_setgroupmode
                0x08002d40       0xd8 C:\Users\error414\AppData\Local\Temp\stm32-chibios.0UTc6U.ltrans0.ltrans.o
                0x08002d40                _pal_lld_setgroupmode
 *fill*         0x08002e18        0x8 
 .text.chSysHalt
                0x08002e20       0x18 C:\Users\error414\AppData\Local\Temp\stm32-chibios.0UTc6U.ltrans0.ltrans.o
                0x08002e20                chSysHalt
 *fill*         0x08002e38        0x8 
 .text.stStartAlarm
                0x08002e40       0x24 C:\Users\error414\AppData\Local\Temp\stm32-chibios.0UTc6U.ltrans0.ltrans.o
 *fill*         0x08002e64        0xc 
 .text.stSetAlarm
                0x08002e70       0x1c C:\Users\error414\AppData\Local\Temp\stm32-chibios.0UTc6U.ltrans0.ltrans.o
 *fill*         0x08002e8c        0x4 
 .text.iq_read  0x08002e90       0x74 C:\Users\error414\AppData\Local\Temp\stm32-chibios.0UTc6U.ltrans0.ltrans.o
 *fill*         0x08002f04        0xc 
 .text.oq_write
                0x08002f10       0x74 C:\Users\error414\AppData\Local\Temp\stm32-chibios.0UTc6U.ltrans0.ltrans.o
 *fill*         0x08002f84        0xc 
 .text._ctl     0x08002f90       0x28 C:\Users\error414\AppData\Local\Temp\stm32-chibios.0UTc6U.ltrans0.ltrans.o
 *fill*         0x08002fb8        0x8 
 .text.dmaStreamFreeI
                0x08002fc0       0x7c C:\Users\error414\AppData\Local\Temp\stm32-chibios.0UTc6U.ltrans0.ltrans.o
 *fill*         0x0800303c        0x4 
 .text.i2c_lld_stop
                0x08003040       0x54 C:\Users\error414\AppData\Local\Temp\stm32-chibios.0UTc6U.ltrans0.ltrans.o
 *fill*         0x08003094        0xc 
 .text.i2c_lld_set_clock
                0x080030a0      0x120 C:\Users\error414\AppData\Local\Temp\stm32-chibios.0UTc6U.ltrans0.ltrans.o
 .text.i2c_lld_serve_tx_end_irq
                0x080031c0       0x40 C:\Users\error414\AppData\Local\Temp\stm32-chibios.0UTc6U.ltrans0.ltrans.o
 .text.spi_lld_serve_tx_interrupt
                0x08003200       0x14 C:\Users\error414\AppData\Local\Temp\stm32-chibios.0UTc6U.ltrans0.ltrans.o
 *fill*         0x08003214        0xc 
 .text.spi_lld_send
                0x08003220       0x60 C:\Users\error414\AppData\Local\Temp\stm32-chibios.0UTc6U.ltrans0.ltrans.o
 .text.usart_init
                0x08003280       0x7c C:\Users\error414\AppData\Local\Temp\stm32-chibios.0UTc6U.ltrans0.ltrans.o
 *fill*         0x080032fc        0x4 
 .text.sd_lld_start
                0x08003300       0x5c C:\Users\error414\AppData\Local\Temp\stm32-chibios.0UTc6U.ltrans0.ltrans.o
 *fill*         0x0800335c        0x4 
 .text.__dbg_check_lock_from_isr
                0x08003360       0x2c C:\Users\error414\AppData\Local\Temp\stm32-chibios.0UTc6U.ltrans0.ltrans.o
 *fill*         0x0800338c        0x4 
 .text.__dbg_check_unlock_from_isr
                0x08003390       0x30 C:\Users\error414\AppData\Local\Temp\stm32-chibios.0UTc6U.ltrans0.ltrans.o
 .text.__dbg_check_enter_isr
                0x080033c0       0x3c C:\Users\error414\AppData\Local\Temp\stm32-chibios.0UTc6U.ltrans0.ltrans.o
 *fill*         0x080033fc        0x4 
 .text.__dbg_check_leave_isr
                0x08003400       0x3c C:\Users\error414\AppData\Local\Temp\stm32-chibios.0UTc6U.ltrans0.ltrans.o
 *fill*         0x0800343c        0x4 
 .text.Vector58
                0x08003440       0x30 C:\Users\error414\AppData\Local\Temp\stm32-chibios.0UTc6U.ltrans0.ltrans.o
                0x08003440                Vector58
 .text.Vector5C
                0x08003470       0x30 C:\Users\error414\AppData\Local\Temp\stm32-chibios.0UTc6U.ltrans0.ltrans.o
                0x08003470                Vector5C
 .text.Vector60
                0x080034a0       0x30 C:\Users\error414\AppData\Local\Temp\stm32-chibios.0UTc6U.ltrans0.ltrans.o
                0x080034a0                Vector60
 .text.Vector64
                0x080034d0       0x30 C:\Users\error414\AppData\Local\Temp\stm32-chibios.0UTc6U.ltrans0.ltrans.o
                0x080034d0                Vector64
 .text.Vector68
                0x08003500       0x30 C:\Users\error414\AppData\Local\Temp\stm32-chibios.0UTc6U.ltrans0.ltrans.o
                0x08003500                Vector68
 .text.Vector9C
                0x08003530       0x7c C:\Users\error414\AppData\Local\Temp\stm32-chibios.0UTc6U.ltrans0.ltrans.o
                0x08003530                Vector9C
 *fill*         0x080035ac        0x4 
 .text.VectorE0
                0x080035b0       0x90 C:\Users\error414\AppData\Local\Temp\stm32-chibios.0UTc6U.ltrans0.ltrans.o
                0x080035b0                VectorE0
 .text.Vector6C
                0x08003640       0x30 C:\Users\error414\AppData\Local\Temp\stm32-chibios.0UTc6U.ltrans0.ltrans.o
                0x08003640                Vector6C
 .text.Vector70
                0x08003670       0x34 C:\Users\error414\AppData\Local\Temp\stm32-chibios.0UTc6U.ltrans0.ltrans.o
                0x08003670                Vector70
 *fill*         0x080036a4        0xc 
 .text.Vector74
                0x080036b0       0x34 C:\Users\error414\AppData\Local\Temp\stm32-chibios.0UTc6U.ltrans0.ltrans.o
                0x080036b0                Vector74
 *fill*         0x080036e4        0xc 
 .text.Vector78
                0x080036f0       0x34 C:\Users\error414\AppData\Local\Temp\stm32-chibios.0UTc6U.ltrans0.ltrans.o
                0x080036f0                Vector78
 *fill*         0x08003724        0xc 
 .text.Vector7C
                0x08003730       0x30 C:\Users\error414\AppData\Local\Temp\stm32-chibios.0UTc6U.ltrans0.ltrans.o
                0x08003730                Vector7C
 .text.Vector80
                0x08003760       0x34 C:\Users\error414\AppData\Local\Temp\stm32-chibios.0UTc6U.ltrans0.ltrans.o
                0x08003760                Vector80
 *fill*         0x08003794        0xc 
 .text.Vector84
                0x080037a0       0x34 C:\Users\error414\AppData\Local\Temp\stm32-chibios.0UTc6U.ltrans0.ltrans.o
                0x080037a0                Vector84
 *fill*         0x080037d4        0xc 
 .text.VectorFC
                0x080037e0       0x34 C:\Users\error414\AppData\Local\Temp\stm32-chibios.0UTc6U.ltrans0.ltrans.o
                0x080037e0                VectorFC
 *fill*         0x08003814        0xc 
 .text.Vector120
                0x08003820       0x30 C:\Users\error414\AppData\Local\Temp\stm32-chibios.0UTc6U.ltrans0.ltrans.o
                0x08003820                Vector120
 .text.Vector124
                0x08003850       0x34 C:\Users\error414\AppData\Local\Temp\stm32-chibios.0UTc6U.ltrans0.ltrans.o
                0x08003850                Vector124
 *fill*         0x08003884        0xc 
 .text.Vector128
                0x08003890       0x34 C:\Users\error414\AppData\Local\Temp\stm32-chibios.0UTc6U.ltrans0.ltrans.o
                0x08003890                Vector128
 *fill*         0x080038c4        0xc 
 .text.Vector12C
                0x080038d0       0x34 C:\Users\error414\AppData\Local\Temp\stm32-chibios.0UTc6U.ltrans0.ltrans.o
                0x080038d0                Vector12C
 *fill*         0x08003904        0xc 
 .text.Vector130
                0x08003910       0x30 C:\Users\error414\AppData\Local\Temp\stm32-chibios.0UTc6U.ltrans0.ltrans.o
                0x08003910                Vector130
 .text.Vector150
                0x08003940       0x34 C:\Users\error414\AppData\Local\Temp\stm32-chibios.0UTc6U.ltrans0.ltrans.o
                0x08003940                Vector150
 *fill*         0x08003974        0xc 
 .text.Vector154
                0x08003980       0x34 C:\Users\error414\AppData\Local\Temp\stm32-chibios.0UTc6U.ltrans0.ltrans.o
                0x08003980                Vector154
 *fill*         0x080039b4        0xc 
 .text.Vector158
                0x080039c0       0x34 C:\Users\error414\AppData\Local\Temp\stm32-chibios.0UTc6U.ltrans0.ltrans.o
                0x080039c0                Vector158
 *fill*         0x080039f4        0xc 
 .text.chDbgCheckClassS
                0x08003a00       0x24 C:\Users\error414\AppData\Local\Temp\stm32-chibios.0UTc6U.ltrans0.ltrans.o
 *fill*         0x08003a24        0xc 
 .text.__sch_ready_behind
                0x08003a30       0x34 C:\Users\error414\AppData\Local\Temp\stm32-chibios.0UTc6U.ltrans0.ltrans.o
 *fill*         0x08003a64        0xc 
 .text.__sch_ready_ahead
                0x08003a70       0x34 C:\Users\error414\AppData\Local\Temp\stm32-chibios.0UTc6U.ltrans0.ltrans.o
 *fill*         0x08003aa4        0xc 
 .text.__sch_reschedule_ahead
                0x08003ab0       0x40 C:\Users\error414\AppData\Local\Temp\stm32-chibios.0UTc6U.ltrans0.ltrans.o
 .text.chSchGoSleepS
                0x08003af0       0x64 C:\Users\error414\AppData\Local\Temp\stm32-chibios.0UTc6U.ltrans0.ltrans.o
 *fill*         0x08003b54        0xc 
 .text.chSchWakeupS
                0x08003b60       0x70 C:\Users\error414\AppData\Local\Temp\stm32-chibios.0UTc6U.ltrans0.ltrans.o
 .text.chSemWaitS
                0x08003bd0       0x5c C:\Users\error414\AppData\Local\Temp\stm32-chibios.0UTc6U.ltrans0.ltrans.o
 *fill*         0x08003c2c        0x4 
 .text.chMtxObjectInit
                0x08003c30       0x18 C:\Users\error414\AppData\Local\Temp\stm32-chibios.0UTc6U.ltrans0.ltrans.o
 *fill*         0x08003c48        0x8 
 .text.i2cObjectInit
                0x08003c50       0x14 C:\Users\error414\AppData\Local\Temp\stm32-chibios.0UTc6U.ltrans0.ltrans.o
 *fill*         0x08003c64        0xc 
 .text.i2c_lld_init
                0x08003c70       0x20 C:\Users\error414\AppData\Local\Temp\stm32-chibios.0UTc6U.ltrans0.ltrans.o
 .text.i2cInit  0x08003c90        0x8 C:\Users\error414\AppData\Local\Temp\stm32-chibios.0UTc6U.ltrans0.ltrans.o
 *fill*         0x08003c98        0x8 
 .text.spiObjectInit
                0x08003ca0       0x14 C:\Users\error414\AppData\Local\Temp\stm32-chibios.0UTc6U.ltrans0.ltrans.o
 *fill*         0x08003cb4        0xc 
 .text.spi_lld_init
                0x08003cc0       0x2c C:\Users\error414\AppData\Local\Temp\stm32-chibios.0UTc6U.ltrans0.ltrans.o
 *fill*         0x08003cec        0x4 
 .text.spiInit  0x08003cf0        0x8 C:\Users\error414\AppData\Local\Temp\stm32-chibios.0UTc6U.ltrans0.ltrans.o
 *fill*         0x08003cf8        0x8 
 .text.halInit  0x08003d00       0x1c C:\Users\error414\AppData\Local\Temp\stm32-chibios.0UTc6U.ltrans0.ltrans.o
                0x08003d00                halInit
 *fill*         0x08003d1c        0x4 
 .text.__heap_init
                0x08003d20       0x20 C:\Users\error414\AppData\Local\Temp\stm32-chibios.0UTc6U.ltrans0.ltrans.o
 .text.__dbg_check_lock
                0x08003d40       0x2c C:\Users\error414\AppData\Local\Temp\stm32-chibios.0UTc6U.ltrans0.ltrans.o
                0x08003d40                __dbg_check_lock
 *fill*         0x08003d6c        0x4 
 .text.__dbg_check_unlock
                0x08003d70       0x2c C:\Users\error414\AppData\Local\Temp\stm32-chibios.0UTc6U.ltrans0.ltrans.o
                0x08003d70                __dbg_check_unlock
 *fill*         0x08003d9c        0x4 
 .text.i2cStop  0x08003da0       0x68 C:\Users\error414\AppData\Local\Temp\stm32-chibios.0UTc6U.ltrans0.ltrans.o
                0x08003da0                i2cStop
 *fill*         0x08003e08        0x8 
 .text.sdStart  0x08003e10       0x64 C:\Users\error414\AppData\Local\Temp\stm32-chibios.0UTc6U.ltrans0.ltrans.o
                0x08003e10                sdStart
 *fill*         0x08003e74        0xc 
 .text.chSysUnlock.lto_priv.3
                0x08003e80       0x30 C:\Users\error414\AppData\Local\Temp\stm32-chibios.0UTc6U.ltrans0.ltrans.o
 .text.chSysUnlock.lto_priv.6
                0x08003eb0       0x30 C:\Users\error414\AppData\Local\Temp\stm32-chibios.0UTc6U.ltrans0.ltrans.o
 .text.chSysUnlock.lto_priv.8
                0x08003ee0       0x30 C:\Users\error414\AppData\Local\Temp\stm32-chibios.0UTc6U.ltrans0.ltrans.o
 .text.chDbgCheckClassI
                0x08003f10       0x28 C:\Users\error414\AppData\Local\Temp\stm32-chibios.0UTc6U.ltrans0.ltrans.o
                0x08003f10                chDbgCheckClassI
 *fill*         0x08003f38        0x8 
 .text.dmaStreamAllocI
                0x08003f40       0xe8 C:\Users\error414\AppData\Local\Temp\stm32-chibios.0UTc6U.ltrans0.ltrans.o
 *fill*         0x08004028        0x8 
 .text.i2c_lld_start
                0x08004030       0xe8 C:\Users\error414\AppData\Local\Temp\stm32-chibios.0UTc6U.ltrans0.ltrans.o
 *fill*         0x08004118        0x8 
 .text.i2cStart
                0x08004120       0x6c C:\Users\error414\AppData\Local\Temp\stm32-chibios.0UTc6U.ltrans0.ltrans.o
                0x08004120                i2cStart
 *fill*         0x0800418c        0x4 
 .text.spi_lld_start
                0x08004190      0x108 C:\Users\error414\AppData\Local\Temp\stm32-chibios.0UTc6U.ltrans0.ltrans.o
 *fill*         0x08004298        0x8 
 .text.spiStart
                0x080042a0       0x40 C:\Users\error414\AppData\Local\Temp\stm32-chibios.0UTc6U.ltrans0.ltrans.o
                0x080042a0                spiStart
 .text.chVTDoSetI
                0x080042e0       0xb8 C:\Users\error414\AppData\Local\Temp\stm32-chibios.0UTc6U.ltrans0.ltrans.o
 *fill*         0x08004398        0x8 
 .text.chVTDoResetI
                0x080043a0       0x9c C:\Users\error414\AppData\Local\Temp\stm32-chibios.0UTc6U.ltrans0.ltrans.o
 *fill*         0x0800443c        0x4 
 .text.chVTDoTickI
                0x08004440       0xb8 C:\Users\error414\AppData\Local\Temp\stm32-chibios.0UTc6U.ltrans0.ltrans.o
 *fill*         0x080044f8        0x8 
 .text.chSysTimerHandlerI
                0x08004500        0xc C:\Users\error414\AppData\Local\Temp\stm32-chibios.0UTc6U.ltrans0.ltrans.o
 *fill*         0x0800450c        0x4 
 .text.st_lld_serve_interrupt
                0x08004510       0x34 C:\Users\error414\AppData\Local\Temp\stm32-chibios.0UTc6U.ltrans0.ltrans.o
 *fill*         0x08004544        0xc 
 .text.VectorB0
                0x08004550       0x14 C:\Users\error414\AppData\Local\Temp\stm32-chibios.0UTc6U.ltrans0.ltrans.o
                0x08004550                VectorB0
 *fill*         0x08004564        0xc 
 .text.__sch_wakeup
                0x08004570       0x64 C:\Users\error414\AppData\Local\Temp\stm32-chibios.0UTc6U.ltrans0.ltrans.o
 *fill*         0x080045d4        0xc 
 .text.chSchReadyI
                0x080045e0       0x1c C:\Users\error414\AppData\Local\Temp\stm32-chibios.0UTc6U.ltrans0.ltrans.o
 *fill*         0x080045fc        0x4 
 .text.chThdResumeI
                0x08004600       0x28 C:\Users\error414\AppData\Local\Temp\stm32-chibios.0UTc6U.ltrans0.ltrans.o
 *fill*         0x08004628        0x8 
 .text.i2c_lld_serve_event_interrupt
                0x08004630      0x12c C:\Users\error414\AppData\Local\Temp\stm32-chibios.0UTc6U.ltrans0.ltrans.o
 *fill*         0x0800475c        0x4 
 .text.VectorBC
                0x08004760       0x1c C:\Users\error414\AppData\Local\Temp\stm32-chibios.0UTc6U.ltrans0.ltrans.o
                0x08004760                VectorBC
 *fill*         0x0800477c        0x4 
 .text.i2c_lld_serve_rx_end_irq
                0x08004780       0x70 C:\Users\error414\AppData\Local\Temp\stm32-chibios.0UTc6U.ltrans0.ltrans.o
 .text.i2c_lld_serve_error_interrupt
                0x080047f0       0xe8 C:\Users\error414\AppData\Local\Temp\stm32-chibios.0UTc6U.ltrans0.ltrans.o
 *fill*         0x080048d8        0x8 
 .text.VectorC0
                0x080048e0       0x30 C:\Users\error414\AppData\Local\Temp\stm32-chibios.0UTc6U.ltrans0.ltrans.o
                0x080048e0                VectorC0
 .text.spi_lld_serve_rx_interrupt
                0x08004910       0xd4 C:\Users\error414\AppData\Local\Temp\stm32-chibios.0UTc6U.ltrans0.ltrans.o
 *fill*         0x080049e4        0xc 
 .text.chThdDequeueNextI
                0x080049f0       0x34 C:\Users\error414\AppData\Local\Temp\stm32-chibios.0UTc6U.ltrans0.ltrans.o
 *fill*         0x08004a24        0xc 
 .text.iqPutI   0x08004a30       0x4c C:\Users\error414\AppData\Local\Temp\stm32-chibios.0UTc6U.ltrans0.ltrans.o
 *fill*         0x08004a7c        0x4 
 .text.oqGetI   0x08004a80       0x48 C:\Users\error414\AppData\Local\Temp\stm32-chibios.0UTc6U.ltrans0.ltrans.o
 *fill*         0x08004ac8        0x8 
 .text.chMtxLockS
                0x08004ad0       0xf0 C:\Users\error414\AppData\Local\Temp\stm32-chibios.0UTc6U.ltrans0.ltrans.o
 .text.chMtxLock
                0x08004bc0       0x40 C:\Users\error414\AppData\Local\Temp\stm32-chibios.0UTc6U.ltrans0.ltrans.o
 .text.i2cAcquireBus
                0x08004c00       0x18 C:\Users\error414\AppData\Local\Temp\stm32-chibios.0UTc6U.ltrans0.ltrans.o
                0x08004c00                i2cAcquireBus
 *fill*         0x08004c18        0x8 
 .text.spiAcquireBus
                0x08004c20       0x18 C:\Users\error414\AppData\Local\Temp\stm32-chibios.0UTc6U.ltrans0.ltrans.o
                0x08004c20                spiAcquireBus
 *fill*         0x08004c38        0x8 
 .text.chSchGoSleepTimeoutS
                0x08004c40       0x4c C:\Users\error414\AppData\Local\Temp\stm32-chibios.0UTc6U.ltrans0.ltrans.o
 *fill*         0x08004c8c        0x4 
 .text.chThdSuspendTimeoutS
                0x08004c90       0x2c C:\Users\error414\AppData\Local\Temp\stm32-chibios.0UTc6U.ltrans0.ltrans.o
 *fill*         0x08004cbc        0x4 
 .text.spiSend  0x08004cc0       0x88 C:\Users\error414\AppData\Local\Temp\stm32-chibios.0UTc6U.ltrans0.ltrans.o
                0x08004cc0                spiSend
 *fill*         0x08004d48        0x8 
 .text.i2c_lld_master_transmit_timeout
                0x08004d50      0x168 C:\Users\error414\AppData\Local\Temp\stm32-chibios.0UTc6U.ltrans0.ltrans.o
 *fill*         0x08004eb8        0x8 
 .text.i2cMasterTransmitTimeout
                0x08004ec0       0xa0 C:\Users\error414\AppData\Local\Temp\stm32-chibios.0UTc6U.ltrans0.ltrans.o
                0x08004ec0                i2cMasterTransmitTimeout
 .text.chThdEnqueueTimeoutS
                0x08004f60       0x24 C:\Users\error414\AppData\Local\Temp\stm32-chibios.0UTc6U.ltrans0.ltrans.o
 *fill*         0x08004f84        0xc 
 .text.iqGetTimeout
                0x08004f90       0x94 C:\Users\error414\AppData\Local\Temp\stm32-chibios.0UTc6U.ltrans0.ltrans.o
 *fill*         0x08005024        0xc 
 .text._get.lto_priv.0
                0x08005030       0x10 C:\Users\error414\AppData\Local\Temp\stm32-chibios.0UTc6U.ltrans0.ltrans.o
 .text._gett    0x08005040        0xc C:\Users\error414\AppData\Local\Temp\stm32-chibios.0UTc6U.ltrans0.ltrans.o
 *fill*         0x0800504c        0x4 
 .text.iqReadTimeout
                0x08005050       0xb4 C:\Users\error414\AppData\Local\Temp\stm32-chibios.0UTc6U.ltrans0.ltrans.o
                0x08005050                iqReadTimeout
 *fill*         0x08005104        0xc 
 .text._read    0x08005110       0x10 C:\Users\error414\AppData\Local\Temp\stm32-chibios.0UTc6U.ltrans0.ltrans.o
 .text._readt   0x08005120        0xc C:\Users\error414\AppData\Local\Temp\stm32-chibios.0UTc6U.ltrans0.ltrans.o
 *fill*         0x0800512c        0x4 
 .text.oqPutTimeout
                0x08005130       0x98 C:\Users\error414\AppData\Local\Temp\stm32-chibios.0UTc6U.ltrans0.ltrans.o
 *fill*         0x080051c8        0x8 
 .text._put.lto_priv.0
                0x080051d0       0x10 C:\Users\error414\AppData\Local\Temp\stm32-chibios.0UTc6U.ltrans0.ltrans.o
 .text._putt    0x080051e0        0xc C:\Users\error414\AppData\Local\Temp\stm32-chibios.0UTc6U.ltrans0.ltrans.o
 *fill*         0x080051ec        0x4 
 .text.oqWriteTimeout
                0x080051f0       0xb4 C:\Users\error414\AppData\Local\Temp\stm32-chibios.0UTc6U.ltrans0.ltrans.o
 *fill*         0x080052a4        0xc 
 .text._write   0x080052b0       0x10 C:\Users\error414\AppData\Local\Temp\stm32-chibios.0UTc6U.ltrans0.ltrans.o
 .text._writet  0x080052c0        0xc C:\Users\error414\AppData\Local\Temp\stm32-chibios.0UTc6U.ltrans0.ltrans.o
 *fill*         0x080052cc        0x4 
 .text.chSemWaitTimeoutS
                0x080052d0       0x68 C:\Users\error414\AppData\Local\Temp\stm32-chibios.0UTc6U.ltrans0.ltrans.o
 *fill*         0x08005338        0x8 
 .text.chThdCreateSuspendedI
                0x08005340       0x80 C:\Users\error414\AppData\Local\Temp\stm32-chibios.0UTc6U.ltrans0.ltrans.o
 .text.chThdCreateI
                0x080053c0        0xc C:\Users\error414\AppData\Local\Temp\stm32-chibios.0UTc6U.ltrans0.ltrans.o
 *fill*         0x080053cc        0x4 
 .text.chInstanceObjectInit
                0x080053d0       0xac C:\Users\error414\AppData\Local\Temp\stm32-chibios.0UTc6U.ltrans0.ltrans.o
 *fill*         0x0800547c        0x4 
 .text.chEvtSignalI
                0x08005480       0x44 C:\Users\error414\AppData\Local\Temp\stm32-chibios.0UTc6U.ltrans0.ltrans.o
 *fill*         0x080054c4        0xc 
 .text.chCoreAllocFromTopI
                0x080054d0       0x48 C:\Users\error414\AppData\Local\Temp\stm32-chibios.0UTc6U.ltrans0.ltrans.o
 *fill*         0x08005518        0x8 
 .text.chCoreAllocFromTop
                0x08005520       0x4c C:\Users\error414\AppData\Local\Temp\stm32-chibios.0UTc6U.ltrans0.ltrans.o
 *fill*         0x0800556c        0x4 
 .text.chCoreAllocAlignedI
                0x08005570        0xc C:\Users\error414\AppData\Local\Temp\stm32-chibios.0UTc6U.ltrans0.ltrans.o
 *fill*         0x0800557c        0x4 
 .text.chPoolAllocI
                0x08005580       0x38 C:\Users\error414\AppData\Local\Temp\stm32-chibios.0UTc6U.ltrans0.ltrans.o
 *fill*         0x080055b8        0x8 
 .text.chPoolFreeI
                0x080055c0       0x28 C:\Users\error414\AppData\Local\Temp\stm32-chibios.0UTc6U.ltrans0.ltrans.o
 *fill*         0x080055e8        0x8 
 .text.chSchRescheduleS
                0x080055f0       0x20 C:\Users\error414\AppData\Local\Temp\stm32-chibios.0UTc6U.ltrans0.ltrans.o
                0x080055f0                chSchRescheduleS
 .text.chMtxUnlock
                0x08005610       0xbc C:\Users\error414\AppData\Local\Temp\stm32-chibios.0UTc6U.ltrans0.ltrans.o
 *fill*         0x080056cc        0x4 
 .text.i2cReleaseBus
                0x080056d0       0x18 C:\Users\error414\AppData\Local\Temp\stm32-chibios.0UTc6U.ltrans0.ltrans.o
                0x080056d0                i2cReleaseBus
 *fill*         0x080056e8        0x8 
 .text.spiReleaseBus
                0x080056f0       0x18 C:\Users\error414\AppData\Local\Temp\stm32-chibios.0UTc6U.ltrans0.ltrans.o
                0x080056f0                spiReleaseBus
 *fill*         0x08005708        0x8 
 .text.chHeapFree
                0x08005710       0xb0 C:\Users\error414\AppData\Local\Temp\stm32-chibios.0UTc6U.ltrans0.ltrans.o
 .text.chMBPostTimeoutS
                0x080057c0       0x78 C:\Users\error414\AppData\Local\Temp\stm32-chibios.0UTc6U.ltrans0.ltrans.o
 *fill*         0x08005838        0x8 
 .text.chMBFetchTimeoutS
                0x08005840       0x70 C:\Users\error414\AppData\Local\Temp\stm32-chibios.0UTc6U.ltrans0.ltrans.o
 .text.chSchDoPreemption
                0x080058b0       0x40 C:\Users\error414\AppData\Local\Temp\stm32-chibios.0UTc6U.ltrans0.ltrans.o
                0x080058b0                chSchDoPreemption
 .text.chThdExitS
                0x080058f0       0x4c C:\Users\error414\AppData\Local\Temp\stm32-chibios.0UTc6U.ltrans0.ltrans.o
                0x080058f0                chThdExitS
 *fill*         0x0800593c        0x4 
 .text.chThdExit
                0x08005940       0x14 C:\Users\error414\AppData\Local\Temp\stm32-chibios.0UTc6U.ltrans0.ltrans.o
                0x08005940                chThdExit
 *fill*         0x08005954        0xc 
 .text.chThdSleep
                0x08005960       0x50 C:\Users\error414\AppData\Local\Temp\stm32-chibios.0UTc6U.ltrans0.ltrans.o
                0x08005960                chThdSleep
 .text.chRegFirstThread
                0x080059b0       0x48 C:\Users\error414\AppData\Local\Temp\stm32-chibios.0UTc6U.ltrans0.ltrans.o
                0x080059b0                chRegFirstThread
 *fill*         0x080059f8        0x8 
 .text.chSemObjectInit
                0x08005a00       0x1c C:\Users\error414\AppData\Local\Temp\stm32-chibios.0UTc6U.ltrans0.ltrans.o
                0x08005a00                chSemObjectInit
 *fill*         0x08005a1c        0x4 
 .text.chSemWait
                0x08005a20       0x20 C:\Users\error414\AppData\Local\Temp\stm32-chibios.0UTc6U.ltrans0.ltrans.o
                0x08005a20                chSemWait
 .text.chSemWaitTimeout
                0x08005a40       0x48 C:\Users\error414\AppData\Local\Temp\stm32-chibios.0UTc6U.ltrans0.ltrans.o
                0x08005a40                chSemWaitTimeout
 *fill*         0x08005a88        0x8 
 .text.chSemSignalI
                0x08005a90       0x50 C:\Users\error414\AppData\Local\Temp\stm32-chibios.0UTc6U.ltrans0.ltrans.o
                0x08005a90                chSemSignalI
 .text.chEvtBroadcastFlagsI
                0x08005ae0       0x3c C:\Users\error414\AppData\Local\Temp\stm32-chibios.0UTc6U.ltrans0.ltrans.o
                0x08005ae0                chEvtBroadcastFlagsI
 *fill*         0x08005b1c        0x4 
 .text.sdIncomingDataI
                0x08005b20       0x40 C:\Users\error414\AppData\Local\Temp\stm32-chibios.0UTc6U.ltrans0.ltrans.o
 .text.set_error
                0x08005b60       0x38 C:\Users\error414\AppData\Local\Temp\stm32-chibios.0UTc6U.ltrans0.ltrans.o
 *fill*         0x08005b98        0x8 
 .text.sd_lld_serve_interrupt
                0x08005ba0      0x110 C:\Users\error414\AppData\Local\Temp\stm32-chibios.0UTc6U.ltrans0.ltrans.o
 .text.VectorD8
                0x08005cb0       0x1c C:\Users\error414\AppData\Local\Temp\stm32-chibios.0UTc6U.ltrans0.ltrans.o
                0x08005cb0                VectorD8
 *fill*         0x08005ccc        0x4 
 .text.Vector15C
                0x08005cd0       0x1c C:\Users\error414\AppData\Local\Temp\stm32-chibios.0UTc6U.ltrans0.ltrans.o
                0x08005cd0                Vector15C
 *fill*         0x08005cec        0x4 
 .text.chMBPostTimeout
                0x08005cf0       0x4c C:\Users\error414\AppData\Local\Temp\stm32-chibios.0UTc6U.ltrans0.ltrans.o
                0x08005cf0                chMBPostTimeout
 *fill*         0x08005d3c        0x4 
 .text.chMBFetchTimeout
                0x08005d40       0x4c C:\Users\error414\AppData\Local\Temp\stm32-chibios.0UTc6U.ltrans0.ltrans.o
                0x08005d40                chMBFetchTimeout
 *fill*         0x08005d8c        0x4 
 .text.chCoreGetStatusX
                0x08005d90       0x10 C:\Users\error414\AppData\Local\Temp\stm32-chibios.0UTc6U.ltrans0.ltrans.o
                0x08005d90                chCoreGetStatusX
 .text.chHeapStatus
                0x08005da0       0x54 C:\Users\error414\AppData\Local\Temp\stm32-chibios.0UTc6U.ltrans0.ltrans.o
                0x08005da0                chHeapStatus
 *fill*         0x08005df4        0xc 
 .text.chPoolObjectInitAligned
                0x08005e00       0x34 C:\Users\error414\AppData\Local\Temp\stm32-chibios.0UTc6U.ltrans0.ltrans.o
                0x08005e00                chPoolObjectInitAligned
 *fill*         0x08005e34        0xc 
 .text.__factory_init
                0x08005e40       0x54 C:\Users\error414\AppData\Local\Temp\stm32-chibios.0UTc6U.ltrans0.ltrans.o
 *fill*         0x08005e94        0xc 
 .text.chSysInit
                0x08005ea0       0x90 C:\Users\error414\AppData\Local\Temp\stm32-chibios.0UTc6U.ltrans0.ltrans.o
                0x08005ea0                chSysInit
 .text.chPoolAlloc
                0x08005f30       0x44 C:\Users\error414\AppData\Local\Temp\stm32-chibios.0UTc6U.ltrans0.ltrans.o
                0x08005f30                chPoolAlloc
 *fill*         0x08005f74        0xc 
 .text.chPoolFree
                0x08005f80       0x44 C:\Users\error414\AppData\Local\Temp\stm32-chibios.0UTc6U.ltrans0.ltrans.o
                0x08005f80                chPoolFree
 *fill*         0x08005fc4        0xc 
 .text.chThdRelease
                0x08005fd0       0xac C:\Users\error414\AppData\Local\Temp\stm32-chibios.0UTc6U.ltrans0.ltrans.o
 *fill*         0x0800607c        0x4 
 .text.chThdWait
                0x08006080       0x60 C:\Users\error414\AppData\Local\Temp\stm32-chibios.0UTc6U.ltrans0.ltrans.o
                0x08006080                chThdWait
 .text.chRegNextThread
                0x080060e0       0x6c C:\Users\error414\AppData\Local\Temp\stm32-chibios.0UTc6U.ltrans0.ltrans.o
                0x080060e0                chRegNextThread
 *fill*         0x0800614c        0x4 
 .text.chRegFindThreadByWorkingArea
                0x08006150       0x18 C:\Users\error414\AppData\Local\Temp\stm32-chibios.0UTc6U.ltrans0.ltrans.o
 *fill*         0x08006168        0x8 
 .text.chThdCreateStatic
                0x08006170       0x94 C:\Users\error414\AppData\Local\Temp\stm32-chibios.0UTc6U.ltrans0.ltrans.o
                0x08006170                chThdCreateStatic
 *fill*         0x08006204        0xc 
 .text.chPoolLoadArray
                0x08006210       0x2c C:\Users\error414\AppData\Local\Temp\stm32-chibios.0UTc6U.ltrans0.ltrans.o
                0x08006210                chPoolLoadArray
 *fill*         0x0800623c        0x4 
 .text.SVC_Handler
                0x08006240       0x20 C:\Users\error414\AppData\Local\Temp\stm32-chibios.0UTc6U.ltrans0.ltrans.o
                0x08006240                SVC_Handler
 .text.chprintf
                0x08006260       0x1c C:\Users\error414\AppData\Local\Temp\stm32-chibios.0UTc6U.ltrans0.ltrans.o
                0x08006260                chprintf
 *fill*         0x0800627c        0x4 
 .text.chsnprintf
                0x08006280       0x1c C:\Users\error414\AppData\Local\Temp\stm32-chibios.0UTc6U.ltrans0.ltrans.o
                0x08006280                chsnprintf
 *fill*         0x0800629c        0x4 
 .text.lv_disp_get_scr_act
                0x080062a0       0x18 C:\Users\error414\AppData\Local\Temp\stm32-chibios.0UTc6U.ltrans0.ltrans.o
                0x080062a0                lv_disp_get_scr_act
 *fill*         0x080062b8        0x8 
 .text.lv_init  0x080062c0       0x70 C:\Users\error414\AppData\Local\Temp\stm32-chibios.0UTc6U.ltrans0.ltrans.o
                0x080062c0                lv_init
 .text.lv_obj_set_adv_hittest
                0x08006330       0x10 C:\Users\error414\AppData\Local\Temp\stm32-chibios.0UTc6U.ltrans0.ltrans.o
                0x08006330                lv_obj_set_adv_hittest
 .text.lv_obj_set_click
                0x08006340       0x10 C:\Users\error414\AppData\Local\Temp\stm32-chibios.0UTc6U.ltrans0.ltrans.o
                0x08006340                lv_obj_set_click
 .text.lv_obj_add_protect
                0x08006350        0xc C:\Users\error414\AppData\Local\Temp\stm32-chibios.0UTc6U.ltrans0.ltrans.o
                0x08006350                lv_obj_add_protect
 *fill*         0x0800635c        0x4 
 .text.lv_obj_clear_protect
                0x08006360       0x10 C:\Users\error414\AppData\Local\Temp\stm32-chibios.0UTc6U.ltrans0.ltrans.o
                0x08006360                lv_obj_clear_protect
 .text.lv_obj_set_signal_cb
                0x08006370        0x4 C:\Users\error414\AppData\Local\Temp\stm32-chibios.0UTc6U.ltrans0.ltrans.o
                0x08006370                lv_obj_set_signal_cb
 *fill*         0x08006374        0xc 
 .text.lv_obj_set_design_cb
                0x08006380        0x4 C:\Users\error414\AppData\Local\Temp\stm32-chibios.0UTc6U.ltrans0.ltrans.o
                0x08006380                lv_obj_set_design_cb
 *fill*         0x08006384        0xc 
 .text.lv_obj_allocate_ext_attr
                0x08006390       0x10 C:\Users\error414\AppData\Local\Temp\stm32-chibios.0UTc6U.ltrans0.ltrans.o
                0x08006390                lv_obj_allocate_ext_attr
 .text.lv_obj_refresh_ext_draw_pad
                0x080063a0       0x10 C:\Users\error414\AppData\Local\Temp\stm32-chibios.0UTc6U.ltrans0.ltrans.o
                0x080063a0                lv_obj_refresh_ext_draw_pad
 .text.lv_obj_get_parent
                0x080063b0        0x4 C:\Users\error414\AppData\Local\Temp\stm32-chibios.0UTc6U.ltrans0.ltrans.o
                0x080063b0                lv_obj_get_parent
 *fill*         0x080063b4        0xc 
 .text.lv_obj_get_screen
                0x080063c0       0x10 C:\Users\error414\AppData\Local\Temp\stm32-chibios.0UTc6U.ltrans0.ltrans.o
 .text.lv_obj_get_disp
                0x080063d0       0x48 C:\Users\error414\AppData\Local\Temp\stm32-chibios.0UTc6U.ltrans0.ltrans.o
                0x080063d0                lv_obj_get_disp
 *fill*         0x08006418        0x8 
 .text.lv_obj_get_x
                0x08006420       0x1c C:\Users\error414\AppData\Local\Temp\stm32-chibios.0UTc6U.ltrans0.ltrans.o
 *fill*         0x0800643c        0x4 
 .text.lv_obj_get_y
                0x08006440       0x1c C:\Users\error414\AppData\Local\Temp\stm32-chibios.0UTc6U.ltrans0.ltrans.o
 *fill*         0x0800645c        0x4 
 .text.lv_obj_get_focused_obj
                0x08006460       0x20 C:\Users\error414\AppData\Local\Temp\stm32-chibios.0UTc6U.ltrans0.ltrans.o
 .text.lv_obj_get_child
                0x08006480       0x14 C:\Users\error414\AppData\Local\Temp\stm32-chibios.0UTc6U.ltrans0.ltrans.o
                0x08006480                lv_obj_get_child
 *fill*         0x08006494        0xc 
 .text.lv_obj_get_coords
                0x080064a0       0x18 C:\Users\error414\AppData\Local\Temp\stm32-chibios.0UTc6U.ltrans0.ltrans.o
                0x080064a0                lv_obj_get_coords
 *fill*         0x080064b8        0x8 
 .text.lv_refr_obj
                0x080064c0       0xec C:\Users\error414\AppData\Local\Temp\stm32-chibios.0UTc6U.ltrans0.ltrans.o
 *fill*         0x080065ac        0x4 
 .text.lv_refr_obj_and_children
                0x080065b0       0x6c C:\Users\error414\AppData\Local\Temp\stm32-chibios.0UTc6U.ltrans0.ltrans.o
 *fill*         0x0800661c        0x4 
 .text.lv_obj_get_width
                0x08006620       0x14 C:\Users\error414\AppData\Local\Temp\stm32-chibios.0UTc6U.ltrans0.ltrans.o
                0x08006620                lv_obj_get_width
 *fill*         0x08006634        0xc 
 .text.lv_obj_get_height
                0x08006640       0x14 C:\Users\error414\AppData\Local\Temp\stm32-chibios.0UTc6U.ltrans0.ltrans.o
                0x08006640                lv_obj_get_height
 *fill*         0x08006654        0xc 
 .text.lv_obj_get_auto_realign
                0x08006660        0xc C:\Users\error414\AppData\Local\Temp\stm32-chibios.0UTc6U.ltrans0.ltrans.o
                0x08006660                lv_obj_get_auto_realign
 *fill*         0x0800666c        0x4 
 .text.lv_obj_get_style_list
                0x08006670       0x2c C:\Users\error414\AppData\Local\Temp\stm32-chibios.0UTc6U.ltrans0.ltrans.o
                0x08006670                lv_obj_get_style_list
 *fill*         0x0800669c        0x4 
 .text.lv_obj_clean_style_list
                0x080066a0       0x10 C:\Users\error414\AppData\Local\Temp\stm32-chibios.0UTc6U.ltrans0.ltrans.o
                0x080066a0                lv_obj_clean_style_list
 .text._lv_obj_disable_style_caching
                0x080066b0       0x48 C:\Users\error414\AppData\Local\Temp\stm32-chibios.0UTc6U.ltrans0.ltrans.o
 *fill*         0x080066f8        0x8 
 .text._lv_obj_get_style_color
                0x08006700       0x74 C:\Users\error414\AppData\Local\Temp\stm32-chibios.0UTc6U.ltrans0.ltrans.o
                0x08006700                _lv_obj_get_style_color
 *fill*         0x08006774        0xc 
 .text._lv_obj_get_style_ptr
                0x08006780       0xc8 C:\Users\error414\AppData\Local\Temp\stm32-chibios.0UTc6U.ltrans0.ltrans.o
                0x08006780                _lv_obj_get_style_ptr
 *fill*         0x08006848        0x8 
 .text.update_style_cache
                0x08006850      0x378 C:\Users\error414\AppData\Local\Temp\stm32-chibios.0UTc6U.ltrans0.ltrans.o
 *fill*         0x08006bc8        0x8 
 .text._lv_obj_get_style_int
                0x08006bd0      0x420 C:\Users\error414\AppData\Local\Temp\stm32-chibios.0UTc6U.ltrans0.ltrans.o
                0x08006bd0                _lv_obj_get_style_int
 .text.lv_obj_get_width_fit
                0x08006ff0       0x2c C:\Users\error414\AppData\Local\Temp\stm32-chibios.0UTc6U.ltrans0.ltrans.o
                0x08006ff0                lv_obj_get_width_fit
 *fill*         0x0800701c        0x4 
 .text._lv_obj_get_style_opa
                0x08007020       0xe8 C:\Users\error414\AppData\Local\Temp\stm32-chibios.0UTc6U.ltrans0.ltrans.o
                0x08007020                _lv_obj_get_style_opa
 *fill*         0x08007108        0x8 
 .text.lv_obj_get_draw_rect_ext_pad_size
                0x08007110      0x204 C:\Users\error414\AppData\Local\Temp\stm32-chibios.0UTc6U.ltrans0.ltrans.o
 *fill*         0x08007314        0xc 
 .text.lv_refr_get_top_obj
                0x08007320       0x94 C:\Users\error414\AppData\Local\Temp\stm32-chibios.0UTc6U.ltrans0.ltrans.o
 *fill*         0x080073b4        0xc 
 .text.update_style_cache_children
                0x080073c0      0x100 C:\Users\error414\AppData\Local\Temp\stm32-chibios.0UTc6U.ltrans0.ltrans.o
 .text.invalidate_style_cache
                0x080074c0       0x68 C:\Users\error414\AppData\Local\Temp\stm32-chibios.0UTc6U.ltrans0.ltrans.o
 *fill*         0x08007528        0x8 
 .text.lv_obj_get_hidden
                0x08007530        0xc C:\Users\error414\AppData\Local\Temp\stm32-chibios.0UTc6U.ltrans0.ltrans.o
                0x08007530                lv_obj_get_hidden
 *fill*         0x0800753c        0x4 
 .text.lv_obj_area_is_visible
                0x08007540       0xdc C:\Users\error414\AppData\Local\Temp\stm32-chibios.0UTc6U.ltrans0.ltrans.o
 *fill*         0x0800761c        0x4 
 .text.lv_obj_get_base_dir
                0x08007620        0x4 C:\Users\error414\AppData\Local\Temp\stm32-chibios.0UTc6U.ltrans0.ltrans.o
                0x08007620                lv_obj_get_base_dir
 *fill*         0x08007624        0xc 
 .text.lv_obj_is_protected
                0x08007630       0x10 C:\Users\error414\AppData\Local\Temp\stm32-chibios.0UTc6U.ltrans0.ltrans.o
                0x08007630                lv_obj_is_protected
 .text.lv_obj_get_signal_cb
                0x08007640        0x4 C:\Users\error414\AppData\Local\Temp\stm32-chibios.0UTc6U.ltrans0.ltrans.o
                0x08007640                lv_obj_get_signal_cb
 *fill*         0x08007644        0xc 
 .text.lv_obj_get_design_cb
                0x08007650        0x4 C:\Users\error414\AppData\Local\Temp\stm32-chibios.0UTc6U.ltrans0.ltrans.o
                0x08007650                lv_obj_get_design_cb
 *fill*         0x08007654        0xc 
 .text.lv_obj_get_ext_attr
                0x08007660        0x4 C:\Users\error414\AppData\Local\Temp\stm32-chibios.0UTc6U.ltrans0.ltrans.o
                0x08007660                lv_obj_get_ext_attr
 *fill*         0x08007664        0xc 
 .text.lv_obj_is_point_on_coords
                0x08007670       0x3c C:\Users\error414\AppData\Local\Temp\stm32-chibios.0UTc6U.ltrans0.ltrans.o
                0x08007670                lv_obj_is_point_on_coords
 *fill*         0x080076ac        0x4 
 .text.lv_obj_handle_get_type_signal
                0x080076b0       0x1c C:\Users\error414\AppData\Local\Temp\stm32-chibios.0UTc6U.ltrans0.ltrans.o
                0x080076b0                lv_obj_handle_get_type_signal
 *fill*         0x080076cc        0x4 
 .text.lv_obj_init_draw_rect_dsc
                0x080076d0      0x2cc C:\Users\error414\AppData\Local\Temp\stm32-chibios.0UTc6U.ltrans0.ltrans.o
                0x080076d0                lv_obj_init_draw_rect_dsc
 *fill*         0x0800799c        0x4 
 .text.lv_obj_design
                0x080079a0      0x2bc C:\Users\error414\AppData\Local\Temp\stm32-chibios.0UTc6U.ltrans0.ltrans.o
 *fill*         0x08007c5c        0x4 
 .text.lv_obj_init_draw_label_dsc
                0x08007c60       0xbc C:\Users\error414\AppData\Local\Temp\stm32-chibios.0UTc6U.ltrans0.ltrans.o
                0x08007c60                lv_obj_init_draw_label_dsc
 *fill*         0x08007d1c        0x4 
 .text.lv_obj_init_draw_img_dsc
                0x08007d20       0xa0 C:\Users\error414\AppData\Local\Temp\stm32-chibios.0UTc6U.ltrans0.ltrans.o
                0x08007d20                lv_obj_init_draw_img_dsc
 .text.lv_obj_init_draw_line_dsc
                0x08007dc0       0xa4 C:\Users\error414\AppData\Local\Temp\stm32-chibios.0UTc6U.ltrans0.ltrans.o
                0x08007dc0                lv_obj_init_draw_line_dsc
 *fill*         0x08007e64        0xc 
 .text.style_snapshot
                0x08007e70      0x1f0 C:\Users\error414\AppData\Local\Temp\stm32-chibios.0UTc6U.ltrans0.ltrans.o
 .text._lv_inv_area
                0x08008060      0x11c C:\Users\error414\AppData\Local\Temp\stm32-chibios.0UTc6U.ltrans0.ltrans.o
                0x08008060                _lv_inv_area
 *fill*         0x0800817c        0x4 
 .text.lv_obj_invalidate_area
                0x08008180       0x38 C:\Users\error414\AppData\Local\Temp\stm32-chibios.0UTc6U.ltrans0.ltrans.o
                0x08008180                lv_obj_invalidate_area
 *fill*         0x080081b8        0x8 
 .text.lv_obj_invalidate
                0x080081c0       0x58 C:\Users\error414\AppData\Local\Temp\stm32-chibios.0UTc6U.ltrans0.ltrans.o
                0x080081c0                lv_obj_invalidate
 *fill*         0x08008218        0x8 
 .text.lv_obj_move_foreground
                0x08008220       0x3c C:\Users\error414\AppData\Local\Temp\stm32-chibios.0UTc6U.ltrans0.ltrans.o
 *fill*         0x0800825c        0x4 
 .text.obj_to_foreground
                0x08008260       0x24 C:\Users\error414\AppData\Local\Temp\stm32-chibios.0UTc6U.ltrans0.ltrans.o
 *fill*         0x08008284        0xc 
 .text.focus_next_core
                0x08008290       0xd4 C:\Users\error414\AppData\Local\Temp\stm32-chibios.0UTc6U.ltrans0.ltrans.o
 *fill*         0x08008364        0xc 
 .text.lv_group_focus_next
                0x08008370       0x14 C:\Users\error414\AppData\Local\Temp\stm32-chibios.0UTc6U.ltrans0.ltrans.o
 *fill*         0x08008384        0xc 
 .text.lv_group_focus_prev
                0x08008390       0x14 C:\Users\error414\AppData\Local\Temp\stm32-chibios.0UTc6U.ltrans0.ltrans.o
 *fill*         0x080083a4        0xc 
 .text.lv_group_refocus
                0x080083b0       0x2c C:\Users\error414\AppData\Local\Temp\stm32-chibios.0UTc6U.ltrans0.ltrans.o
 *fill*         0x080083dc        0x4 
 .text.lv_group_add_obj
                0x080083e0       0x58 C:\Users\error414\AppData\Local\Temp\stm32-chibios.0UTc6U.ltrans0.ltrans.o
 *fill*         0x08008438        0x8 
 .text.lv_group_remove_obj
                0x08008440       0x8c C:\Users\error414\AppData\Local\Temp\stm32-chibios.0UTc6U.ltrans0.ltrans.o
 *fill*         0x080084cc        0x4 
 .text.obj_del_core
                0x080084d0       0xc0 C:\Users\error414\AppData\Local\Temp\stm32-chibios.0UTc6U.ltrans0.ltrans.o
 .text.lv_obj_del
                0x08008590       0x4c C:\Users\error414\AppData\Local\Temp\stm32-chibios.0UTc6U.ltrans0.ltrans.o
                0x08008590                lv_obj_del
 *fill*         0x080085dc        0x4 
 .text.lv_obj_set_pos
                0x080085e0       0x90 C:\Users\error414\AppData\Local\Temp\stm32-chibios.0UTc6U.ltrans0.ltrans.o
                0x080085e0                lv_obj_set_pos
 .text.lv_obj_create
                0x08008670      0x3d4 C:\Users\error414\AppData\Local\Temp\stm32-chibios.0UTc6U.ltrans0.ltrans.o
                0x08008670                lv_obj_create
 *fill*         0x08008a44        0xc 
 .text.lv_obj_set_x
                0x08008a50       0x18 C:\Users\error414\AppData\Local\Temp\stm32-chibios.0UTc6U.ltrans0.ltrans.o
 *fill*         0x08008a68        0x8 
 .text.lv_obj_set_y
                0x08008a70       0x18 C:\Users\error414\AppData\Local\Temp\stm32-chibios.0UTc6U.ltrans0.ltrans.o
 *fill*         0x08008a88        0x8 
 .text.obj_align_core
                0x08008a90       0x80 C:\Users\error414\AppData\Local\Temp\stm32-chibios.0UTc6U.ltrans0.ltrans.o
 .text.lv_obj_align
                0x08008b10       0x50 C:\Users\error414\AppData\Local\Temp\stm32-chibios.0UTc6U.ltrans0.ltrans.o
                0x08008b10                lv_obj_align
 .text.obj_align_mid_core
                0x08008b60      0x2cc C:\Users\error414\AppData\Local\Temp\stm32-chibios.0UTc6U.ltrans0.ltrans.o
 *fill*         0x08008e2c        0x4 
 .text.lv_obj_align_mid
                0x08008e30       0x50 C:\Users\error414\AppData\Local\Temp\stm32-chibios.0UTc6U.ltrans0.ltrans.o
 .text.lv_obj_realign
                0x08008e80       0x40 C:\Users\error414\AppData\Local\Temp\stm32-chibios.0UTc6U.ltrans0.ltrans.o
                0x08008e80                lv_obj_realign
 .text.lv_obj_set_size
                0x08008ec0       0xb0 C:\Users\error414\AppData\Local\Temp\stm32-chibios.0UTc6U.ltrans0.ltrans.o
                0x08008ec0                lv_obj_set_size
 .text.lv_obj_set_height
                0x08008f70       0x18 C:\Users\error414\AppData\Local\Temp\stm32-chibios.0UTc6U.ltrans0.ltrans.o
                0x08008f70                lv_obj_set_height
 *fill*         0x08008f88        0x8 
 .text.refresh_children_style
                0x08008f90       0x3c C:\Users\error414\AppData\Local\Temp\stm32-chibios.0UTc6U.ltrans0.ltrans.o
 *fill*         0x08008fcc        0x4 
 .text.lv_obj_refresh_style
                0x08008fd0      0x114 C:\Users\error414\AppData\Local\Temp\stm32-chibios.0UTc6U.ltrans0.ltrans.o
                0x08008fd0                lv_obj_refresh_style
 *fill*         0x080090e4        0xc 
 .text.lv_obj_add_style
                0x080090f0       0x24 C:\Users\error414\AppData\Local\Temp\stm32-chibios.0UTc6U.ltrans0.ltrans.o
                0x080090f0                lv_obj_add_style
 *fill*         0x08009114        0xc 
 .text.lv_obj_reset_style_list
                0x08009120       0x18 C:\Users\error414\AppData\Local\Temp\stm32-chibios.0UTc6U.ltrans0.ltrans.o
                0x08009120                lv_obj_reset_style_list
 *fill*         0x08009138        0x8 
 .text._lv_obj_set_style_local_int
                0x08009140       0x24 C:\Users\error414\AppData\Local\Temp\stm32-chibios.0UTc6U.ltrans0.ltrans.o
                0x08009140                _lv_obj_set_style_local_int
 *fill*         0x08009164        0xc 
 .text._lv_obj_set_style_local_color
                0x08009170       0x24 C:\Users\error414\AppData\Local\Temp\stm32-chibios.0UTc6U.ltrans0.ltrans.o
                0x08009170                _lv_obj_set_style_local_color
 *fill*         0x08009194        0xc 
 .text._lv_obj_set_style_local_ptr
                0x080091a0       0x24 C:\Users\error414\AppData\Local\Temp\stm32-chibios.0UTc6U.ltrans0.ltrans.o
                0x080091a0                _lv_obj_set_style_local_ptr
 *fill*         0x080091c4        0xc 
 .text.lv_obj_set_state
                0x080091d0       0x90 C:\Users\error414\AppData\Local\Temp\stm32-chibios.0UTc6U.ltrans0.ltrans.o
 .text.lv_obj_add_state
                0x08009260       0x1c C:\Users\error414\AppData\Local\Temp\stm32-chibios.0UTc6U.ltrans0.ltrans.o
 *fill*         0x0800927c        0x4 
 .text.lv_obj_clear_state
                0x08009280       0x1c C:\Users\error414\AppData\Local\Temp\stm32-chibios.0UTc6U.ltrans0.ltrans.o
 *fill*         0x0800929c        0x4 
 .text.lv_obj_signal
                0x080092a0      0x104 C:\Users\error414\AppData\Local\Temp\stm32-chibios.0UTc6U.ltrans0.ltrans.o
 *fill*         0x080093a4        0xc 
 .text._lv_refr_get_disp_refreshing
                0x080093b0        0xc C:\Users\error414\AppData\Local\Temp\stm32-chibios.0UTc6U.ltrans0.ltrans.o
                0x080093b0                _lv_refr_get_disp_refreshing
 *fill*         0x080093bc        0x4 
 .text.lv_refr_vdb_flush
                0x080093c0       0x84 C:\Users\error414\AppData\Local\Temp\stm32-chibios.0UTc6U.ltrans0.ltrans.o
 *fill*         0x08009444        0xc 
 .text.lv_refr_area_part
                0x08009450      0x13c C:\Users\error414\AppData\Local\Temp\stm32-chibios.0UTc6U.ltrans0.ltrans.o
 *fill*         0x0800958c        0x4 
 .text.lv_refr_area
                0x08009590      0x198 C:\Users\error414\AppData\Local\Temp\stm32-chibios.0UTc6U.ltrans0.ltrans.o
 *fill*         0x08009728        0x8 
 .text.lv_refr_areas
                0x08009730       0xbc C:\Users\error414\AppData\Local\Temp\stm32-chibios.0UTc6U.ltrans0.ltrans.o
 *fill*         0x080097ec        0x4 
 .text._lv_disp_refr_task
                0x080097f0      0x174 C:\Users\error414\AppData\Local\Temp\stm32-chibios.0UTc6U.ltrans0.ltrans.o
                0x080097f0                _lv_disp_refr_task
 *fill*         0x08009964        0xc 
 .text._lv_style_get_mem_size
                0x08009970       0x4c C:\Users\error414\AppData\Local\Temp\stm32-chibios.0UTc6U.ltrans1.ltrans.o
 *fill*         0x080099bc        0x4 
 .text.get_property_index
                0x080099c0       0xa0 C:\Users\error414\AppData\Local\Temp\stm32-chibios.0UTc6U.ltrans1.ltrans.o
 .text._lv_style_get_int
                0x08009a60      0x104 C:\Users\error414\AppData\Local\Temp\stm32-chibios.0UTc6U.ltrans1.ltrans.o
 *fill*         0x08009b64        0xc 
 .text._lv_style_get_opa
                0x08009b70      0x104 C:\Users\error414\AppData\Local\Temp\stm32-chibios.0UTc6U.ltrans1.ltrans.o
 *fill*         0x08009c74        0xc 
 .text._lv_style_get_color
                0x08009c80      0x104 C:\Users\error414\AppData\Local\Temp\stm32-chibios.0UTc6U.ltrans1.ltrans.o
 *fill*         0x08009d84        0xc 
 .text._lv_style_get_ptr
                0x08009d90      0x104 C:\Users\error414\AppData\Local\Temp\stm32-chibios.0UTc6U.ltrans1.ltrans.o
 *fill*         0x08009e94        0xc 
 .text.lv_style_list_get_local_style
                0x08009ea0       0x20 C:\Users\error414\AppData\Local\Temp\stm32-chibios.0UTc6U.ltrans1.ltrans.o
 .text._lv_style_list_get_transition_style
                0x08009ec0       0x14 C:\Users\error414\AppData\Local\Temp\stm32-chibios.0UTc6U.ltrans1.ltrans.o
 *fill*         0x08009ed4        0xc 
 .text.fill_blended
                0x08009ee0      0x140 C:\Users\error414\AppData\Local\Temp\stm32-chibios.0UTc6U.ltrans1.ltrans.o
 .text.color_blend_true_color_additive
                0x0800a020       0x28 C:\Users\error414\AppData\Local\Temp\stm32-chibios.0UTc6U.ltrans1.ltrans.o
 *fill*         0x0800a048        0x8 
 .text.color_blend_true_color_subtractive
                0x0800a050       0x50 C:\Users\error414\AppData\Local\Temp\stm32-chibios.0UTc6U.ltrans1.ltrans.o
 .text.map_blended
                0x0800a0a0      0x134 C:\Users\error414\AppData\Local\Temp\stm32-chibios.0UTc6U.ltrans1.ltrans.o
 *fill*         0x0800a1d4        0xc 
 .text.lv_img_cf_get_px_size
                0x0800a1e0       0x30 C:\Users\error414\AppData\Local\Temp\stm32-chibios.0UTc6U.ltrans1.ltrans.o
 .text.lv_img_cf_is_chroma_keyed
                0x0800a210       0x20 C:\Users\error414\AppData\Local\Temp\stm32-chibios.0UTc6U.ltrans1.ltrans.o
 .text.lv_img_cf_has_alpha
                0x0800a230       0x1c C:\Users\error414\AppData\Local\Temp\stm32-chibios.0UTc6U.ltrans1.ltrans.o
 *fill*         0x0800a24c        0x4 
 .text.hex_char_to_num
                0x0800a250       0x40 C:\Users\error414\AppData\Local\Temp\stm32-chibios.0UTc6U.ltrans1.ltrans.o
 .text.lv_draw_mask_apply
                0x0800a290       0x54 C:\Users\error414\AppData\Local\Temp\stm32-chibios.0UTc6U.ltrans1.ltrans.o
 *fill*         0x0800a2e4        0xc 
 .text.lv_draw_mask_get_cnt
                0x0800a2f0       0x24 C:\Users\error414\AppData\Local\Temp\stm32-chibios.0UTc6U.ltrans1.ltrans.o
 *fill*         0x0800a314        0xc 
 .text.lv_draw_mask_fade
                0x0800a320      0x13c C:\Users\error414\AppData\Local\Temp\stm32-chibios.0UTc6U.ltrans1.ltrans.o
 *fill*         0x0800a45c        0x4 
 .text.lv_img_buf_get_px_color
                0x0800a460      0x128 C:\Users\error414\AppData\Local\Temp\stm32-chibios.0UTc6U.ltrans1.ltrans.o
 *fill*         0x0800a588        0x8 
 .text.lv_img_buf_get_px_alpha
                0x0800a590       0xfc C:\Users\error414\AppData\Local\Temp\stm32-chibios.0UTc6U.ltrans1.ltrans.o
 *fill*         0x0800a68c        0x4 
 .text._lv_img_buf_transform_anti_alias
                0x0800a690      0x308 C:\Users\error414\AppData\Local\Temp\stm32-chibios.0UTc6U.ltrans1.ltrans.o
 *fill*         0x0800a998        0x8 
 .text._lv_img_buf_transform
                0x0800a9a0      0x190 C:\Users\error414\AppData\Local\Temp\stm32-chibios.0UTc6U.ltrans1.ltrans.o
 .text.lv_img_decoder_read_line
                0x0800ab30       0x28 C:\Users\error414\AppData\Local\Temp\stm32-chibios.0UTc6U.ltrans1.ltrans.o
 *fill*         0x0800ab58        0x8 
 .text.lv_img_decoder_set_info_cb
                0x0800ab60        0x4 C:\Users\error414\AppData\Local\Temp\stm32-chibios.0UTc6U.ltrans1.ltrans.o
 *fill*         0x0800ab64        0xc 
 .text.lv_img_decoder_set_open_cb
                0x0800ab70        0x4 C:\Users\error414\AppData\Local\Temp\stm32-chibios.0UTc6U.ltrans1.ltrans.o
 *fill*         0x0800ab74        0xc 
 .text.lv_img_decoder_set_read_line_cb
                0x0800ab80        0x4 C:\Users\error414\AppData\Local\Temp\stm32-chibios.0UTc6U.ltrans1.ltrans.o
 *fill*         0x0800ab84        0xc 
 .text.lv_img_decoder_set_close_cb
                0x0800ab90        0x4 C:\Users\error414\AppData\Local\Temp\stm32-chibios.0UTc6U.ltrans1.ltrans.o
 *fill*         0x0800ab94        0xc 
 .text.lv_img_decoder_built_in_line_true_color
                0x0800aba0        0x4 C:\Users\error414\AppData\Local\Temp\stm32-chibios.0UTc6U.ltrans1.ltrans.o
 *fill*         0x0800aba4        0xc 
 .text.lv_img_decoder_built_in_line_alpha
                0x0800abb0      0x164 C:\Users\error414\AppData\Local\Temp\stm32-chibios.0UTc6U.ltrans1.ltrans.o
 *fill*         0x0800ad14        0xc 
 .text.lv_img_decoder_built_in_line_indexed
                0x0800ad20      0x134 C:\Users\error414\AppData\Local\Temp\stm32-chibios.0UTc6U.ltrans1.ltrans.o
 *fill*         0x0800ae54        0xc 
 .text.lv_img_decoder_built_in_read_line
                0x0800ae60       0x84 C:\Users\error414\AppData\Local\Temp\stm32-chibios.0UTc6U.ltrans1.ltrans.o
 *fill*         0x0800aee4        0xc 
 .text.lv_font_get_glyph_bitmap
                0x0800aef0        0x8 C:\Users\error414\AppData\Local\Temp\stm32-chibios.0UTc6U.ltrans1.ltrans.o
 *fill*         0x0800aef8        0x8 
 .text.lv_font_get_glyph_dsc
                0x0800af00        0x8 C:\Users\error414\AppData\Local\Temp\stm32-chibios.0UTc6U.ltrans1.ltrans.o
 *fill*         0x0800af08        0x8 
 .text.unicode_list_compare
                0x0800af10        0x8 C:\Users\error414\AppData\Local\Temp\stm32-chibios.0UTc6U.ltrans1.ltrans.o
 *fill*         0x0800af18        0x8 
 .text.kern_pair_8_compare
                0x0800af20       0x14 C:\Users\error414\AppData\Local\Temp\stm32-chibios.0UTc6U.ltrans1.ltrans.o
 *fill*         0x0800af34        0xc 
 .text.kern_pair_16_compare
                0x0800af40       0x14 C:\Users\error414\AppData\Local\Temp\stm32-chibios.0UTc6U.ltrans1.ltrans.o
 *fill*         0x0800af54        0xc 
 .text.rle_next
                0x0800af60      0x300 C:\Users\error414\AppData\Local\Temp\stm32-chibios.0UTc6U.ltrans1.ltrans.o
 .text.line_mask_flat
                0x0800b260      0x208 C:\Users\error414\AppData\Local\Temp\stm32-chibios.0UTc6U.ltrans1.ltrans.o
 *fill*         0x0800b468        0x8 
 .text.line_mask_steep
                0x0800b470      0x300 C:\Users\error414\AppData\Local\Temp\stm32-chibios.0UTc6U.ltrans1.ltrans.o
 .text.lv_draw_mask_line
                0x0800b770       0xe0 C:\Users\error414\AppData\Local\Temp\stm32-chibios.0UTc6U.ltrans1.ltrans.o
 .text.map_normal
                0x0800b850      0x2c8 C:\Users\error414\AppData\Local\Temp\stm32-chibios.0UTc6U.ltrans1.ltrans.o
 *fill*         0x0800bb18        0x8 
 .text.lv_style_copy
                0x0800bb20       0x28 C:\Users\error414\AppData\Local\Temp\stm32-chibios.0UTc6U.ltrans1.ltrans.o
 *fill*         0x0800bb48        0x8 
 .text._lv_style_list_remove_style
                0x0800bb50       0xa0 C:\Users\error414\AppData\Local\Temp\stm32-chibios.0UTc6U.ltrans1.ltrans.o
 .text.lv_img_decoder_built_in_close
                0x0800bbf0       0x24 C:\Users\error414\AppData\Local\Temp\stm32-chibios.0UTc6U.ltrans1.ltrans.o
 *fill*         0x0800bc14        0xc 
 .text.lv_img_decoder_built_in_open
                0x0800bc20       0xf4 C:\Users\error414\AppData\Local\Temp\stm32-chibios.0UTc6U.ltrans1.ltrans.o
 *fill*         0x0800bd14        0xc 
 .text.lv_img_decoder_close
                0x0800bd20       0x24 C:\Users\error414\AppData\Local\Temp\stm32-chibios.0UTc6U.ltrans1.ltrans.o
 *fill*         0x0800bd44        0xc 
 .text.draw_cleanup
                0x0800bd50        0x8 C:\Users\error414\AppData\Local\Temp\stm32-chibios.0UTc6U.ltrans1.ltrans.o
 *fill*         0x0800bd58        0x8 
 .text.fill_set_px
                0x0800bd60       0xf4 C:\Users\error414\AppData\Local\Temp\stm32-chibios.0UTc6U.ltrans1.ltrans.o
 *fill*         0x0800be54        0xc 
 .text.map_set_px
                0x0800be60      0x140 C:\Users\error414\AppData\Local\Temp\stm32-chibios.0UTc6U.ltrans1.ltrans.o
 .text._lv_blend_map
                0x0800bfa0      0x104 C:\Users\error414\AppData\Local\Temp\stm32-chibios.0UTc6U.ltrans1.ltrans.o
 *fill*         0x0800c0a4        0xc 
 .text.fill_normal
                0x0800c0b0      0x2dc C:\Users\error414\AppData\Local\Temp\stm32-chibios.0UTc6U.ltrans1.ltrans.o
 *fill*         0x0800c38c        0x4 
 .text._lv_blend_fill
                0x0800c390      0x100 C:\Users\error414\AppData\Local\Temp\stm32-chibios.0UTc6U.ltrans1.ltrans.o
 .text.draw_letter_subpx
                0x0800c490      0x40c C:\Users\error414\AppData\Local\Temp\stm32-chibios.0UTc6U.ltrans1.ltrans.o
 *fill*         0x0800c89c        0x4 
 .text.decompress
                0x0800c8a0      0x288 C:\Users\error414\AppData\Local\Temp\stm32-chibios.0UTc6U.ltrans1.ltrans.o
 *fill*         0x0800cb28        0x8 
 .text.draw_line_hor
                0x0800cb30      0x1f8 C:\Users\error414\AppData\Local\Temp\stm32-chibios.0UTc6U.ltrans1.ltrans.o
 *fill*         0x0800cd28        0x8 
 .text.draw_line_ver
                0x0800cd30      0x1e4 C:\Users\error414\AppData\Local\Temp\stm32-chibios.0UTc6U.ltrans1.ltrans.o
 *fill*         0x0800cf14        0xc 
 .text.draw_letter_normal
                0x0800cf20      0x2e8 C:\Users\error414\AppData\Local\Temp\stm32-chibios.0UTc6U.ltrans1.ltrans.o
 *fill*         0x0800d208        0x8 
 .text.lv_draw_letter
                0x0800d210       0xe0 C:\Users\error414\AppData\Local\Temp\stm32-chibios.0UTc6U.ltrans1.ltrans.o
 .text.lv_draw_mask_radius
                0x0800d2f0      0x57c C:\Users\error414\AppData\Local\Temp\stm32-chibios.0UTc6U.ltrans1.ltrans.o
 *fill*         0x0800d86c        0x4 
 .text._lv_img_buf_transform_init
                0x0800d870      0x12c C:\Users\error414\AppData\Local\Temp\stm32-chibios.0UTc6U.ltrans1.ltrans.o
 *fill*         0x0800d99c        0x4 
 .text.lv_draw_map
                0x0800d9a0      0x5b4 C:\Users\error414\AppData\Local\Temp\stm32-chibios.0UTc6U.ltrans1.ltrans.o
 *fill*         0x0800df54        0xc 
 .text.lv_img_decoder_create
                0x0800df60       0x1c C:\Users\error414\AppData\Local\Temp\stm32-chibios.0UTc6U.ltrans1.ltrans.o
 *fill*         0x0800df7c        0x4 
 .text.get_glyph_dsc_id
                0x0800df80       0xd8 C:\Users\error414\AppData\Local\Temp\stm32-chibios.0UTc6U.ltrans1.ltrans.o
 *fill*         0x0800e058        0x8 
 .text.lv_font_get_bitmap_fmt_txt
                0x0800e060       0xdc C:\Users\error414\AppData\Local\Temp\stm32-chibios.0UTc6U.ltrans1.ltrans.o
                0x0800e060                lv_font_get_bitmap_fmt_txt
 *fill*         0x0800e13c        0x4 
 .text.get_kern_value
                0x0800e140       0xac C:\Users\error414\AppData\Local\Temp\stm32-chibios.0UTc6U.ltrans1.ltrans.o
 *fill*         0x0800e1ec        0x4 
 .text.lv_font_get_glyph_dsc_fmt_txt
                0x0800e1f0       0x98 C:\Users\error414\AppData\Local\Temp\stm32-chibios.0UTc6U.ltrans1.ltrans.o
                0x0800e1f0                lv_font_get_glyph_dsc_fmt_txt
 *fill*         0x0800e288        0x8 
 .text.lv_style_init
                0x0800e290        0xc C:\Users\error414\AppData\Local\Temp\stm32-chibios.0UTc6U.ltrans1.ltrans.o
                0x0800e290                lv_style_init
 *fill*         0x0800e29c        0x4 
 .text.lv_style_list_init
                0x0800e2a0        0xc C:\Users\error414\AppData\Local\Temp\stm32-chibios.0UTc6U.ltrans1.ltrans.o
                0x0800e2a0                lv_style_list_init
 *fill*         0x0800e2ac        0x4 
 .text._lv_style_list_add_style
                0x0800e2b0       0x80 C:\Users\error414\AppData\Local\Temp\stm32-chibios.0UTc6U.ltrans1.ltrans.o
                0x0800e2b0                _lv_style_list_add_style
 .text.get_alloc_local_style
                0x0800e330       0x60 C:\Users\error414\AppData\Local\Temp\stm32-chibios.0UTc6U.ltrans1.ltrans.o
 .text.lv_style_reset
                0x0800e390       0x10 C:\Users\error414\AppData\Local\Temp\stm32-chibios.0UTc6U.ltrans1.ltrans.o
                0x0800e390                lv_style_reset
 .text._lv_style_list_reset
                0x0800e3a0       0x7c C:\Users\error414\AppData\Local\Temp\stm32-chibios.0UTc6U.ltrans1.ltrans.o
                0x0800e3a0                _lv_style_list_reset
 *fill*         0x0800e41c        0x4 
 .text.lv_style_list_copy
                0x0800e420       0xfc C:\Users\error414\AppData\Local\Temp\stm32-chibios.0UTc6U.ltrans1.ltrans.o
                0x0800e420                lv_style_list_copy
 *fill*         0x0800e51c        0x4 
 .text._lv_style_set_int
                0x0800e520       0xd4 C:\Users\error414\AppData\Local\Temp\stm32-chibios.0UTc6U.ltrans1.ltrans.o
                0x0800e520                _lv_style_set_int
 *fill*         0x0800e5f4        0xc 
 .text._lv_style_set_color
                0x0800e600       0xd4 C:\Users\error414\AppData\Local\Temp\stm32-chibios.0UTc6U.ltrans1.ltrans.o
                0x0800e600                _lv_style_set_color
 *fill*         0x0800e6d4        0xc 
 .text._lv_style_set_opa
                0x0800e6e0       0xd8 C:\Users\error414\AppData\Local\Temp\stm32-chibios.0UTc6U.ltrans1.ltrans.o
                0x0800e6e0                _lv_style_set_opa
 *fill*         0x0800e7b8        0x8 
 .text._lv_style_set_ptr
                0x0800e7c0       0xd4 C:\Users\error414\AppData\Local\Temp\stm32-chibios.0UTc6U.ltrans1.ltrans.o
                0x0800e7c0                _lv_style_set_ptr
 *fill*         0x0800e894        0xc 
 .text._lv_style_list_set_local_int
                0x0800e8a0       0x14 C:\Users\error414\AppData\Local\Temp\stm32-chibios.0UTc6U.ltrans1.ltrans.o
                0x0800e8a0                _lv_style_list_set_local_int
 *fill*         0x0800e8b4        0xc 
 .text._lv_style_list_set_local_color
                0x0800e8c0       0x14 C:\Users\error414\AppData\Local\Temp\stm32-chibios.0UTc6U.ltrans1.ltrans.o
                0x0800e8c0                _lv_style_list_set_local_color
 *fill*         0x0800e8d4        0xc 
 .text._lv_style_list_set_local_ptr
                0x0800e8e0       0x14 C:\Users\error414\AppData\Local\Temp\stm32-chibios.0UTc6U.ltrans1.ltrans.o
                0x0800e8e0                _lv_style_list_set_local_ptr
 *fill*         0x0800e8f4        0xc 
 .text._lv_style_list_get_int
                0x0800e900       0xcc C:\Users\error414\AppData\Local\Temp\stm32-chibios.0UTc6U.ltrans1.ltrans.o
                0x0800e900                _lv_style_list_get_int
 *fill*         0x0800e9cc        0x4 
 .text._lv_style_list_get_color
                0x0800e9d0       0xc8 C:\Users\error414\AppData\Local\Temp\stm32-chibios.0UTc6U.ltrans1.ltrans.o
                0x0800e9d0                _lv_style_list_get_color
 *fill*         0x0800ea98        0x8 
 .text._lv_style_list_get_opa
                0x0800eaa0       0xcc C:\Users\error414\AppData\Local\Temp\stm32-chibios.0UTc6U.ltrans1.ltrans.o
                0x0800eaa0                _lv_style_list_get_opa
 *fill*         0x0800eb6c        0x4 
 .text._lv_style_list_get_ptr
                0x0800eb70       0xc0 C:\Users\error414\AppData\Local\Temp\stm32-chibios.0UTc6U.ltrans1.ltrans.o
                0x0800eb70                _lv_style_list_get_ptr
 .text.lv_draw_img_dsc_init
                0x0800ec30       0x24 C:\Users\error414\AppData\Local\Temp\stm32-chibios.0UTc6U.ltrans1.ltrans.o
                0x0800ec30                lv_draw_img_dsc_init
 *fill*         0x0800ec54        0xc 
 .text.lv_img_src_get_type
                0x0800ec60       0x24 C:\Users\error414\AppData\Local\Temp\stm32-chibios.0UTc6U.ltrans1.ltrans.o
                0x0800ec60                lv_img_src_get_type
 *fill*         0x0800ec84        0xc 
 .text.lv_img_decoder_built_in_info
                0x0800ec90       0x70 C:\Users\error414\AppData\Local\Temp\stm32-chibios.0UTc6U.ltrans1.ltrans.o
 .text.lv_img_decoder_open
                0x0800ed00       0x84 C:\Users\error414\AppData\Local\Temp\stm32-chibios.0UTc6U.ltrans1.ltrans.o
 *fill*         0x0800ed84        0xc 
 .text._lv_img_cache_open
                0x0800ed90       0x6c C:\Users\error414\AppData\Local\Temp\stm32-chibios.0UTc6U.ltrans1.ltrans.o
 *fill*         0x0800edfc        0x4 
 .text.lv_draw_label_dsc_init
                0x0800ee00       0x2c C:\Users\error414\AppData\Local\Temp\stm32-chibios.0UTc6U.ltrans1.ltrans.o
                0x0800ee00                lv_draw_label_dsc_init
 *fill*         0x0800ee2c        0x4 
 .text.lv_draw_line_dsc_init
                0x0800ee30       0x18 C:\Users\error414\AppData\Local\Temp\stm32-chibios.0UTc6U.ltrans1.ltrans.o
                0x0800ee30                lv_draw_line_dsc_init
 *fill*         0x0800ee48        0x8 
 .text.lv_draw_mask_add
                0x0800ee50       0x34 C:\Users\error414\AppData\Local\Temp\stm32-chibios.0UTc6U.ltrans1.ltrans.o
                0x0800ee50                lv_draw_mask_add
 *fill*         0x0800ee84        0xc 
 .text.lv_draw_mask_remove_id
                0x0800ee90       0x24 C:\Users\error414\AppData\Local\Temp\stm32-chibios.0UTc6U.ltrans1.ltrans.o
                0x0800ee90                lv_draw_mask_remove_id
 *fill*         0x0800eeb4        0xc 
 .text.lv_draw_mask_remove_custom
                0x0800eec0       0x50 C:\Users\error414\AppData\Local\Temp\stm32-chibios.0UTc6U.ltrans1.ltrans.o
                0x0800eec0                lv_draw_mask_remove_custom
 .text.lv_draw_mask_line_points_init
                0x0800ef10      0x15c C:\Users\error414\AppData\Local\Temp\stm32-chibios.0UTc6U.ltrans1.ltrans.o
                0x0800ef10                lv_draw_mask_line_points_init
 *fill*         0x0800f06c        0x4 
 .text.draw_line_skew
                0x0800f070      0x3f4 C:\Users\error414\AppData\Local\Temp\stm32-chibios.0UTc6U.ltrans1.ltrans.o
 *fill*         0x0800f464        0xc 
 .text.lv_draw_mask_radius_init
                0x0800f470       0x7c C:\Users\error414\AppData\Local\Temp\stm32-chibios.0UTc6U.ltrans1.ltrans.o
                0x0800f470                lv_draw_mask_radius_init
 *fill*         0x0800f4ec        0x4 
 .text.draw_bg  0x0800f4f0      0x5ac C:\Users\error414\AppData\Local\Temp\stm32-chibios.0UTc6U.ltrans1.ltrans.o
 *fill*         0x0800fa9c        0x4 
 .text.draw_full_border
                0x0800faa0      0x514 C:\Users\error414\AppData\Local\Temp\stm32-chibios.0UTc6U.ltrans1.ltrans.o
 *fill*         0x0800ffb4        0xc 
 .text.draw_border
                0x0800ffc0      0x340 C:\Users\error414\AppData\Local\Temp\stm32-chibios.0UTc6U.ltrans1.ltrans.o
 .text.draw_outline
                0x08010300       0xbc C:\Users\error414\AppData\Local\Temp\stm32-chibios.0UTc6U.ltrans1.ltrans.o
 *fill*         0x080103bc        0x4 
 .text.lv_draw_mask_fade_init
                0x080103c0       0x38 C:\Users\error414\AppData\Local\Temp\stm32-chibios.0UTc6U.ltrans1.ltrans.o
                0x080103c0                lv_draw_mask_fade_init
 *fill*         0x080103f8        0x8 
 .text.lv_draw_rect_dsc_init
                0x08010400       0x44 C:\Users\error414\AppData\Local\Temp\stm32-chibios.0UTc6U.ltrans1.ltrans.o
                0x08010400                lv_draw_rect_dsc_init
 *fill*         0x08010444        0xc 
 .text._lv_img_buf_get_transformed_area
                0x08010450      0x210 C:\Users\error414\AppData\Local\Temp\stm32-chibios.0UTc6U.ltrans1.ltrans.o
                0x08010450                _lv_img_buf_get_transformed_area
 .text._lv_img_decoder_init
                0x08010660       0x48 C:\Users\error414\AppData\Local\Temp\stm32-chibios.0UTc6U.ltrans1.ltrans.o
                0x08010660                _lv_img_decoder_init
 *fill*         0x080106a8        0x8 
 .text.lv_img_decoder_get_info
                0x080106b0       0x5c C:\Users\error414\AppData\Local\Temp\stm32-chibios.0UTc6U.ltrans1.ltrans.o
                0x080106b0                lv_img_decoder_get_info
 *fill*         0x0801070c        0x4 
 .text.lv_font_get_glyph_width
                0x08010710       0x20 C:\Users\error414\AppData\Local\Temp\stm32-chibios.0UTc6U.ltrans1.ltrans.o
                0x08010710                lv_font_get_glyph_width
 .text.lv_draw_label
                0x08010730      0x594 C:\Users\error414\AppData\Local\Temp\stm32-chibios.0UTc6U.ltrans1.ltrans.o
                0x08010730                lv_draw_label
 *fill*         0x08010cc4        0xc 
 .text.draw_value_str
                0x08010cd0       0xe0 C:\Users\error414\AppData\Local\Temp\stm32-chibios.0UTc6U.ltrans1.ltrans.o
 .text.lv_draw_rect
                0x08010db0       0x5c C:\Users\error414\AppData\Local\Temp\stm32-chibios.0UTc6U.ltrans1.ltrans.o
                0x08010db0                lv_draw_rect
 *fill*         0x08010e0c        0x4 
 .text.show_error
                0x08010e10       0x3c C:\Users\error414\AppData\Local\Temp\stm32-chibios.0UTc6U.ltrans1.ltrans.o
 *fill*         0x08010e4c        0x4 
 .text.lv_img_draw_core
                0x08010e50      0x1f0 C:\Users\error414\AppData\Local\Temp\stm32-chibios.0UTc6U.ltrans1.ltrans.o
 .text.lv_draw_img
                0x08011040       0x34 C:\Users\error414\AppData\Local\Temp\stm32-chibios.0UTc6U.ltrans1.ltrans.o
                0x08011040                lv_draw_img
 *fill*         0x08011074        0xc 
 .text.draw_pattern
                0x08011080      0x294 C:\Users\error414\AppData\Local\Temp\stm32-chibios.0UTc6U.ltrans1.ltrans.o
 *fill*         0x08011314        0xc 
 .text.lv_draw_line
                0x08011320      0x1a0 C:\Users\error414\AppData\Local\Temp\stm32-chibios.0UTc6U.ltrans1.ltrans.o
                0x08011320                lv_draw_line
 .text._lv_font_clean_up_fmt_txt
                0x080114c0       0x18 C:\Users\error414\AppData\Local\Temp\stm32-chibios.0UTc6U.ltrans1.ltrans.o
                0x080114c0                _lv_font_clean_up_fmt_txt
 *fill*         0x080114d8        0x8 
 .text.lv_point_within_circle
                0x080114e0       0x4c C:\Users\error414\AppData\Local\Temp\stm32-chibios.0UTc6U.ltrans2.ltrans.o
 *fill*         0x0801152c        0x4 
 .text._lv_ll_get_head
                0x08011530        0x8 C:\Users\error414\AppData\Local\Temp\stm32-chibios.0UTc6U.ltrans2.ltrans.o
                0x08011530                _lv_ll_get_head
 *fill*         0x08011538        0x8 
 .text._lv_ll_get_tail
                0x08011540        0x8 C:\Users\error414\AppData\Local\Temp\stm32-chibios.0UTc6U.ltrans2.ltrans.o
                0x08011540                _lv_ll_get_tail
 *fill*         0x08011548        0x8 
 .text._lv_ll_get_next
                0x08011550        0xc C:\Users\error414\AppData\Local\Temp\stm32-chibios.0UTc6U.ltrans2.ltrans.o
                0x08011550                _lv_ll_get_next
 *fill*         0x0801155c        0x4 
 .text._lv_ll_get_prev
                0x08011560        0xc C:\Users\error414\AppData\Local\Temp\stm32-chibios.0UTc6U.ltrans2.ltrans.o
                0x08011560                _lv_ll_get_prev
 *fill*         0x0801156c        0x4 
 .text._lv_ll_get_len
                0x08011570       0x20 C:\Users\error414\AppData\Local\Temp\stm32-chibios.0UTc6U.ltrans2.ltrans.o
 .text._lv_ll_is_empty
                0x08011590       0x1c C:\Users\error414\AppData\Local\Temp\stm32-chibios.0UTc6U.ltrans2.ltrans.o
 *fill*         0x080115ac        0x4 
 .text.node_set_prev
                0x080115b0        0xc C:\Users\error414\AppData\Local\Temp\stm32-chibios.0UTc6U.ltrans2.ltrans.o
 *fill*         0x080115bc        0x4 
 .text.node_set_next
                0x080115c0        0xc C:\Users\error414\AppData\Local\Temp\stm32-chibios.0UTc6U.ltrans2.ltrans.o
 *fill*         0x080115cc        0x4 
 .text.ent_get_next
                0x080115d0       0x28 C:\Users\error414\AppData\Local\Temp\stm32-chibios.0UTc6U.ltrans2.ltrans.o
 *fill*         0x080115f8        0x8 
 .text.lv_mem_defrag
                0x08011600       0x54 C:\Users\error414\AppData\Local\Temp\stm32-chibios.0UTc6U.ltrans2.ltrans.o
 *fill*         0x08011654        0xc 
 .text.ent_trunc
                0x08011660       0x44 C:\Users\error414\AppData\Local\Temp\stm32-chibios.0UTc6U.ltrans2.ltrans.o
 *fill*         0x080116a4        0xc 
 .text.ent_alloc
                0x080116b0       0x30 C:\Users\error414\AppData\Local\Temp\stm32-chibios.0UTc6U.ltrans2.ltrans.o
 .text.lv_task_enable
                0x080116e0        0xc C:\Users\error414\AppData\Local\Temp\stm32-chibios.0UTc6U.ltrans2.ltrans.o
 *fill*         0x080116ec        0x4 
 .text.lv_txt_utf8_size.lto_priv.0
                0x080116f0       0x38 C:\Users\error414\AppData\Local\Temp\stm32-chibios.0UTc6U.ltrans2.ltrans.o
                0x080116f0                lv_txt_utf8_size.lto_priv.0
 *fill*         0x08011728        0x8 
 .text.lv_txt_utf8_next.lto_priv.0
                0x08011730      0x128 C:\Users\error414\AppData\Local\Temp\stm32-chibios.0UTc6U.ltrans2.ltrans.o
                0x08011730                lv_txt_utf8_next.lto_priv.0
 *fill*         0x08011858        0x8 
 .text.lv_txt_utf8_prev.lto_priv.0
                0x08011860       0x4c C:\Users\error414\AppData\Local\Temp\stm32-chibios.0UTc6U.ltrans2.ltrans.o
                0x08011860                lv_txt_utf8_prev.lto_priv.0
 *fill*         0x080118ac        0x4 
 .text.lv_txt_utf8_get_byte_id.lto_priv.0
                0x080118b0       0x28 C:\Users\error414\AppData\Local\Temp\stm32-chibios.0UTc6U.ltrans2.ltrans.o
                0x080118b0                lv_txt_utf8_get_byte_id.lto_priv.0
 *fill*         0x080118d8        0x8 
 .text.lv_txt_utf8_get_char_id.lto_priv.0
                0x080118e0       0x24 C:\Users\error414\AppData\Local\Temp\stm32-chibios.0UTc6U.ltrans2.ltrans.o
                0x080118e0                lv_txt_utf8_get_char_id.lto_priv.0
 *fill*         0x08011904        0xc 
 .text.lv_txt_utf8_get_length.lto_priv.0
                0x08011910       0x24 C:\Users\error414\AppData\Local\Temp\stm32-chibios.0UTc6U.ltrans2.ltrans.o
                0x08011910                lv_txt_utf8_get_length.lto_priv.0
 *fill*         0x08011934        0xc 
 .text.apply_theme
                0x08011940       0x34 C:\Users\error414\AppData\Local\Temp\stm32-chibios.0UTc6U.ltrans2.ltrans.o
 *fill*         0x08011974        0xc 
 .text.create_axis_label_iter
                0x08011980       0x44 C:\Users\error414\AppData\Local\Temp\stm32-chibios.0UTc6U.ltrans2.ltrans.o
 *fill*         0x080119c4        0xc 
 .text.lv_cont_get_style
                0x080119d0        0xc C:\Users\error414\AppData\Local\Temp\stm32-chibios.0UTc6U.ltrans2.ltrans.o
 *fill*         0x080119dc        0x4 
 .text.lv_chart_refresh
                0x080119e0        0x8 C:\Users\error414\AppData\Local\Temp\stm32-chibios.0UTc6U.ltrans2.ltrans.o
 *fill*         0x080119e8        0x8 
 .text.clear_styles
                0x080119f0      0x2d8 C:\Users\error414\AppData\Local\Temp\stm32-chibios.0UTc6U.ltrans2.ltrans.o
 *fill*         0x08011cc8        0x8 
 .text.theme_apply
                0x08011cd0      0x7c0 C:\Users\error414\AppData\Local\Temp\stm32-chibios.0UTc6U.ltrans2.ltrans.o
 .text.style_init_reset
                0x08012490        0x8 C:\Users\error414\AppData\Local\Temp\stm32-chibios.0UTc6U.ltrans2.ltrans.o
 *fill*         0x08012498        0x8 
 .text.basic_init
                0x080124a0      0x888 C:\Users\error414\AppData\Local\Temp\stm32-chibios.0UTc6U.ltrans2.ltrans.o
 *fill*         0x08012d28        0x8 
 .text.arc_init
                0x08012d30       0x94 C:\Users\error414\AppData\Local\Temp\stm32-chibios.0UTc6U.ltrans2.ltrans.o
 *fill*         0x08012dc4        0xc 
 .text.calendar_init
                0x08012dd0      0x188 C:\Users\error414\AppData\Local\Temp\stm32-chibios.0UTc6U.ltrans2.ltrans.o
 *fill*         0x08012f58        0x8 
 .text.chart_init
                0x08012f60       0x38 C:\Users\error414\AppData\Local\Temp\stm32-chibios.0UTc6U.ltrans2.ltrans.o
 *fill*         0x08012f98        0x8 
 .text.gauge_init
                0x08012fa0      0x160 C:\Users\error414\AppData\Local\Temp\stm32-chibios.0UTc6U.ltrans2.ltrans.o
 .text.linemeter_init
                0x08013100       0x2c C:\Users\error414\AppData\Local\Temp\stm32-chibios.0UTc6U.ltrans2.ltrans.o
 *fill*         0x0801312c        0x4 
 .text.switch_init
                0x08013130       0x84 C:\Users\error414\AppData\Local\Temp\stm32-chibios.0UTc6U.ltrans2.ltrans.o
 *fill*         0x080131b4        0xc 
 .text.textarea_init
                0x080131c0       0x68 C:\Users\error414\AppData\Local\Temp\stm32-chibios.0UTc6U.ltrans2.ltrans.o
 *fill*         0x08013228        0x8 
 .text.list_init
                0x08013230       0x54 C:\Users\error414\AppData\Local\Temp\stm32-chibios.0UTc6U.ltrans2.ltrans.o
 *fill*         0x08013284        0xc 
 .text.tabview_init
                0x08013290       0x60 C:\Users\error414\AppData\Local\Temp\stm32-chibios.0UTc6U.ltrans2.ltrans.o
 .text.lv_chart_get_style
                0x080132f0       0x2c C:\Users\error414\AppData\Local\Temp\stm32-chibios.0UTc6U.ltrans2.ltrans.o
 *fill*         0x0801331c        0x4 
 .text.lv_cont_get_layout
                0x08013320       0x10 C:\Users\error414\AppData\Local\Temp\stm32-chibios.0UTc6U.ltrans2.ltrans.o
 .text.lv_img_get_auto_size
                0x08013330       0x10 C:\Users\error414\AppData\Local\Temp\stm32-chibios.0UTc6U.ltrans2.ltrans.o
 .text.lv_chart_get_series_area
                0x08013340       0x68 C:\Users\error414\AppData\Local\Temp\stm32-chibios.0UTc6U.ltrans2.ltrans.o
 *fill*         0x080133a8        0x8 
 .text.draw_series_bg
                0x080133b0      0x150 C:\Users\error414\AppData\Local\Temp\stm32-chibios.0UTc6U.ltrans2.ltrans.o
 .text.get_next_axis_label
                0x08013500       0x7c C:\Users\error414\AppData\Local\Temp\stm32-chibios.0UTc6U.ltrans2.ltrans.o
 *fill*         0x0801357c        0x4 
 .text.invalidate_lines
                0x08013580      0x10c C:\Users\error414\AppData\Local\Temp\stm32-chibios.0UTc6U.ltrans2.ltrans.o
 *fill*         0x0801368c        0x4 
 .text.invalidate_columns
                0x08013690       0x7c C:\Users\error414\AppData\Local\Temp\stm32-chibios.0UTc6U.ltrans2.ltrans.o
 *fill*         0x0801370c        0x4 
 .text.lv_cont_layout_col
                0x08013710      0x100 C:\Users\error414\AppData\Local\Temp\stm32-chibios.0UTc6U.ltrans2.ltrans.o
 .text.lv_cont_layout_center
                0x08013810       0xe0 C:\Users\error414\AppData\Local\Temp\stm32-chibios.0UTc6U.ltrans2.ltrans.o
 .text.lv_cont_layout_row
                0x080138f0      0x13c C:\Users\error414\AppData\Local\Temp\stm32-chibios.0UTc6U.ltrans2.ltrans.o
 *fill*         0x08013a2c        0x4 
 .text.lv_cont_layout_pretty
                0x08013a30      0x32c C:\Users\error414\AppData\Local\Temp\stm32-chibios.0UTc6U.ltrans2.ltrans.o
 *fill*         0x08013d5c        0x4 
 .text.lv_cont_layout_grid
                0x08013d60       0xc4 C:\Users\error414\AppData\Local\Temp\stm32-chibios.0UTc6U.ltrans2.ltrans.o
 *fill*         0x08013e24        0xc 
 .text.lv_cont_refr_layout
                0x08013e30       0x70 C:\Users\error414\AppData\Local\Temp\stm32-chibios.0UTc6U.ltrans2.ltrans.o
 .text.lv_cont_refr_autofit
                0x08013ea0      0x3e8 C:\Users\error414\AppData\Local\Temp\stm32-chibios.0UTc6U.ltrans2.ltrans.o
 *fill*         0x08014288        0x8 
 .text.lv_cont_signal
                0x08014290       0xc8 C:\Users\error414\AppData\Local\Temp\stm32-chibios.0UTc6U.ltrans2.ltrans.o
 *fill*         0x08014358        0x8 
 .text.lv_disp_get_default
                0x08014360        0xc C:\Users\error414\AppData\Local\Temp\stm32-chibios.0UTc6U.ltrans2.ltrans.o
                0x08014360                lv_disp_get_default
 *fill*         0x0801436c        0x4 
 .text.lv_disp_get_hor_res
                0x08014370       0x2c C:\Users\error414\AppData\Local\Temp\stm32-chibios.0UTc6U.ltrans2.ltrans.o
                0x08014370                lv_disp_get_hor_res
 *fill*         0x0801439c        0x4 
 .text.lv_disp_get_ver_res
                0x080143a0       0x2c C:\Users\error414\AppData\Local\Temp\stm32-chibios.0UTc6U.ltrans2.ltrans.o
                0x080143a0                lv_disp_get_ver_res
 *fill*         0x080143cc        0x4 
 .text.lv_disp_get_dpi
                0x080143d0       0x1c C:\Users\error414\AppData\Local\Temp\stm32-chibios.0UTc6U.ltrans2.ltrans.o
                0x080143d0                lv_disp_get_dpi
 *fill*         0x080143ec        0x4 
 .text.lv_disp_flush_ready
                0x080143f0        0xc C:\Users\error414\AppData\Local\Temp\stm32-chibios.0UTc6U.ltrans2.ltrans.o
                0x080143f0                lv_disp_flush_ready
 *fill*         0x080143fc        0x4 
 .text.lv_disp_get_buf
                0x08014400        0x4 C:\Users\error414\AppData\Local\Temp\stm32-chibios.0UTc6U.ltrans2.ltrans.o
                0x08014400                lv_disp_get_buf
 *fill*         0x08014404        0xc 
 .text.lv_disp_is_double_buf
                0x08014410       0x18 C:\Users\error414\AppData\Local\Temp\stm32-chibios.0UTc6U.ltrans2.ltrans.o
                0x08014410                lv_disp_is_double_buf
 *fill*         0x08014428        0x8 
 .text.lv_disp_is_true_double_buf
                0x08014430       0x28 C:\Users\error414\AppData\Local\Temp\stm32-chibios.0UTc6U.ltrans2.ltrans.o
                0x08014430                lv_disp_is_true_double_buf
 *fill*         0x08014458        0x8 
 .text.lv_indev_get_next
                0x08014460       0x1c C:\Users\error414\AppData\Local\Temp\stm32-chibios.0UTc6U.ltrans2.ltrans.o
                0x08014460                lv_indev_get_next
 *fill*         0x0801447c        0x4 
 .text.lv_tick_inc
                0x08014480       0x18 C:\Users\error414\AppData\Local\Temp\stm32-chibios.0UTc6U.ltrans2.ltrans.o
                0x08014480                lv_tick_inc
 *fill*         0x08014498        0x8 
 .text.lv_tick_get
                0x080144a0       0x1c C:\Users\error414\AppData\Local\Temp\stm32-chibios.0UTc6U.ltrans2.ltrans.o
                0x080144a0                lv_tick_get
 *fill*         0x080144bc        0x4 
 .text.lv_task_ready
                0x080144c0       0x14 C:\Users\error414\AppData\Local\Temp\stm32-chibios.0UTc6U.ltrans2.ltrans.o
 *fill*         0x080144d4        0xc 
 .text.lv_tick_elaps
                0x080144e0       0x14 C:\Users\error414\AppData\Local\Temp\stm32-chibios.0UTc6U.ltrans2.ltrans.o
                0x080144e0                lv_tick_elaps
 *fill*         0x080144f4        0xc 
 .text.lv_task_time_remaining
                0x08014500       0x18 C:\Users\error414\AppData\Local\Temp\stm32-chibios.0UTc6U.ltrans2.ltrans.o
 *fill*         0x08014518        0x8 
 .text.lv_area_set
                0x08014520       0x10 C:\Users\error414\AppData\Local\Temp\stm32-chibios.0UTc6U.ltrans2.ltrans.o
                0x08014520                lv_area_set
 .text.lv_area_set_height
                0x08014530        0xc C:\Users\error414\AppData\Local\Temp\stm32-chibios.0UTc6U.ltrans2.ltrans.o
                0x08014530                lv_area_set_height
 *fill*         0x0801453c        0x4 
 .text.lv_area_get_size
                0x08014540       0x1c C:\Users\error414\AppData\Local\Temp\stm32-chibios.0UTc6U.ltrans2.ltrans.o
                0x08014540                lv_area_get_size
 *fill*         0x0801455c        0x4 
 .text._lv_area_intersect
                0x08014560       0x5c C:\Users\error414\AppData\Local\Temp\stm32-chibios.0UTc6U.ltrans2.ltrans.o
                0x08014560                _lv_area_intersect
 *fill*         0x080145bc        0x4 
 .text.draw_series_line
                0x080145c0      0x368 C:\Users\error414\AppData\Local\Temp\stm32-chibios.0UTc6U.ltrans2.ltrans.o
 *fill*         0x08014928        0x8 
 .text.draw_series_column
                0x08014930      0x1ac C:\Users\error414\AppData\Local\Temp\stm32-chibios.0UTc6U.ltrans2.ltrans.o
 *fill*         0x08014adc        0x4 
 .text.draw_cursors
                0x08014ae0      0x1c8 C:\Users\error414\AppData\Local\Temp\stm32-chibios.0UTc6U.ltrans2.ltrans.o
 *fill*         0x08014ca8        0x8 
 .text._lv_area_join
                0x08014cb0       0x44 C:\Users\error414\AppData\Local\Temp\stm32-chibios.0UTc6U.ltrans2.ltrans.o
                0x08014cb0                _lv_area_join
 *fill*         0x08014cf4        0xc 
 .text._lv_area_is_point_on
                0x08014d00      0x188 C:\Users\error414\AppData\Local\Temp\stm32-chibios.0UTc6U.ltrans2.ltrans.o
                0x08014d00                _lv_area_is_point_on
 *fill*         0x08014e88        0x8 
 .text._lv_area_is_on
                0x08014e90       0x44 C:\Users\error414\AppData\Local\Temp\stm32-chibios.0UTc6U.ltrans2.ltrans.o
                0x08014e90                _lv_area_is_on
 *fill*         0x08014ed4        0xc 
 .text._lv_area_is_in
                0x08014ee0       0xac C:\Users\error414\AppData\Local\Temp\stm32-chibios.0UTc6U.ltrans2.ltrans.o
                0x08014ee0                _lv_area_is_in
 *fill*         0x08014f8c        0x4 
 .text._lv_area_align
                0x08014f90      0x544 C:\Users\error414\AppData\Local\Temp\stm32-chibios.0UTc6U.ltrans2.ltrans.o
                0x08014f90                _lv_area_align
 *fill*         0x080154d4        0xc 
 .text.lv_color_fill
                0x080154e0       0x38 C:\Users\error414\AppData\Local\Temp\stm32-chibios.0UTc6U.ltrans2.ltrans.o
                0x080154e0                lv_color_fill
 *fill*         0x08015518        0x8 
 .text._lv_ll_init
                0x08015520       0x10 C:\Users\error414\AppData\Local\Temp\stm32-chibios.0UTc6U.ltrans2.ltrans.o
                0x08015520                _lv_ll_init
 .text._lv_ll_remove
                0x08015530       0x80 C:\Users\error414\AppData\Local\Temp\stm32-chibios.0UTc6U.ltrans2.ltrans.o
                0x08015530                _lv_ll_remove
 .text._lv_ll_move_before
                0x080155b0       0x64 C:\Users\error414\AppData\Local\Temp\stm32-chibios.0UTc6U.ltrans2.ltrans.o
 *fill*         0x08015614        0xc 
 .text._lv_ll_chg_list
                0x08015620       0x68 C:\Users\error414\AppData\Local\Temp\stm32-chibios.0UTc6U.ltrans2.ltrans.o
                0x08015620                _lv_ll_chg_list
 *fill*         0x08015688        0x8 
 .text._lv_trigo_sin
                0x08015690       0x7c C:\Users\error414\AppData\Local\Temp\stm32-chibios.0UTc6U.ltrans2.ltrans.o
                0x08015690                _lv_trigo_sin
 *fill*         0x0801570c        0x4 
 .text._lv_sqrt
                0x08015710       0x34 C:\Users\error414\AppData\Local\Temp\stm32-chibios.0UTc6U.ltrans2.ltrans.o
                0x08015710                _lv_sqrt
 *fill*         0x08015744        0xc 
 .text._lv_mem_init
                0x08015750       0x24 C:\Users\error414\AppData\Local\Temp\stm32-chibios.0UTc6U.ltrans2.ltrans.o
                0x08015750                _lv_mem_init
 *fill*         0x08015774        0xc 
 .text.lv_mem_alloc
                0x08015780       0x5c C:\Users\error414\AppData\Local\Temp\stm32-chibios.0UTc6U.ltrans2.ltrans.o
                0x08015780                lv_mem_alloc
 *fill*         0x080157dc        0x4 
 .text._lv_ll_ins_head
                0x080157e0       0x40 C:\Users\error414\AppData\Local\Temp\stm32-chibios.0UTc6U.ltrans2.ltrans.o
                0x080157e0                _lv_ll_ins_head
 .text._lv_ll_ins_prev
                0x08015820       0x68 C:\Users\error414\AppData\Local\Temp\stm32-chibios.0UTc6U.ltrans2.ltrans.o
 *fill*         0x08015888        0x8 
 .text._lv_ll_ins_tail
                0x08015890       0x40 C:\Users\error414\AppData\Local\Temp\stm32-chibios.0UTc6U.ltrans2.ltrans.o
                0x08015890                _lv_ll_ins_tail
 .text.lv_task_create
                0x080158d0       0xa4 C:\Users\error414\AppData\Local\Temp\stm32-chibios.0UTc6U.ltrans2.ltrans.o
 *fill*         0x08015974        0xc 
 .text.lv_mem_free
                0x08015980       0x6c C:\Users\error414\AppData\Local\Temp\stm32-chibios.0UTc6U.ltrans2.ltrans.o
                0x08015980                lv_mem_free
 *fill*         0x080159ec        0x4 
 .text._lv_ll_clear
                0x080159f0       0x2c C:\Users\error414\AppData\Local\Temp\stm32-chibios.0UTc6U.ltrans2.ltrans.o
 *fill*         0x08015a1c        0x4 
 .text.lv_task_del
                0x08015a20       0x3c C:\Users\error414\AppData\Local\Temp\stm32-chibios.0UTc6U.ltrans2.ltrans.o
 *fill*         0x08015a5c        0x4 
 .text.lv_task_exec
                0x08015a60       0x44 C:\Users\error414\AppData\Local\Temp\stm32-chibios.0UTc6U.ltrans2.ltrans.o
 *fill*         0x08015aa4        0xc 
 .text.lv_chart_signal
                0x08015ab0       0xa8 C:\Users\error414\AppData\Local\Temp\stm32-chibios.0UTc6U.ltrans2.ltrans.o
 *fill*         0x08015b58        0x8 
 .text._lv_mem_get_size
                0x08015b60       0x20 C:\Users\error414\AppData\Local\Temp\stm32-chibios.0UTc6U.ltrans2.ltrans.o
                0x08015b60                _lv_mem_get_size
 .text._lv_mem_buf_release
                0x08015b80       0x5c C:\Users\error414\AppData\Local\Temp\stm32-chibios.0UTc6U.ltrans2.ltrans.o
                0x08015b80                _lv_mem_buf_release
 *fill*         0x08015bdc        0x4 
 .text._lv_mem_buf_free_all
                0x08015be0       0x58 C:\Users\error414\AppData\Local\Temp\stm32-chibios.0UTc6U.ltrans2.ltrans.o
                0x08015be0                _lv_mem_buf_free_all
 *fill*         0x08015c38        0x8 
 .text._lv_memcpy
                0x08015c40      0x120 C:\Users\error414\AppData\Local\Temp\stm32-chibios.0UTc6U.ltrans2.ltrans.o
                0x08015c40                _lv_memcpy
 .text.lv_mem_realloc
                0x08015d60       0x60 C:\Users\error414\AppData\Local\Temp\stm32-chibios.0UTc6U.ltrans2.ltrans.o
                0x08015d60                lv_mem_realloc
 .text._lv_mem_buf_get
                0x08015dc0      0x108 C:\Users\error414\AppData\Local\Temp\stm32-chibios.0UTc6U.ltrans2.ltrans.o
                0x08015dc0                _lv_mem_buf_get
 *fill*         0x08015ec8        0x8 
 .text._lv_memset
                0x08015ed0       0x58 C:\Users\error414\AppData\Local\Temp\stm32-chibios.0UTc6U.ltrans2.ltrans.o
                0x08015ed0                _lv_memset
 *fill*         0x08015f28        0x8 
 .text._lv_memset_00
                0x08015f30       0x54 C:\Users\error414\AppData\Local\Temp\stm32-chibios.0UTc6U.ltrans2.ltrans.o
                0x08015f30                _lv_memset_00
 *fill*         0x08015f84        0xc 
 .text.lv_disp_drv_init
                0x08015f90       0x38 C:\Users\error414\AppData\Local\Temp\stm32-chibios.0UTc6U.ltrans2.ltrans.o
                0x08015f90                lv_disp_drv_init
 *fill*         0x08015fc8        0x8 
 .text.lv_disp_buf_init
                0x08015fd0       0x1c C:\Users\error414\AppData\Local\Temp\stm32-chibios.0UTc6U.ltrans2.ltrans.o
                0x08015fd0                lv_disp_buf_init
 *fill*         0x08015fec        0x4 
 .text.lv_disp_drv_register
                0x08015ff0       0xdc C:\Users\error414\AppData\Local\Temp\stm32-chibios.0UTc6U.ltrans2.ltrans.o
                0x08015ff0                lv_disp_drv_register
 *fill*         0x080160cc        0x4 
 .text._lv_memset_ff
                0x080160d0       0x58 C:\Users\error414\AppData\Local\Temp\stm32-chibios.0UTc6U.ltrans2.ltrans.o
                0x080160d0                _lv_memset_ff
 *fill*         0x08016128        0x8 
 .text._lv_task_core_init
                0x08016130       0x18 C:\Users\error414\AppData\Local\Temp\stm32-chibios.0UTc6U.ltrans2.ltrans.o
                0x08016130                _lv_task_core_init
 *fill*         0x08016148        0x8 
 .text.lv_task_handler
                0x08016150      0x1ac C:\Users\error414\AppData\Local\Temp\stm32-chibios.0UTc6U.ltrans2.ltrans.o
                0x08016150                lv_task_handler
 *fill*         0x080162fc        0x4 
 .text.lv_task_set_prio
                0x08016300       0x68 C:\Users\error414\AppData\Local\Temp\stm32-chibios.0UTc6U.ltrans2.ltrans.o
                0x08016300                lv_task_set_prio
 *fill*         0x08016368        0x8 
 .text._lv_txt_is_cmd
                0x08016370       0x44 C:\Users\error414\AppData\Local\Temp\stm32-chibios.0UTc6U.ltrans2.ltrans.o
                0x08016370                _lv_txt_is_cmd
 *fill*         0x080163b4        0xc 
 .text.lv_txt_get_next_word
                0x080163c0      0x158 C:\Users\error414\AppData\Local\Temp\stm32-chibios.0UTc6U.ltrans2.ltrans.o
 *fill*         0x08016518        0x8 
 .text._lv_txt_get_next_line
                0x08016520       0xd4 C:\Users\error414\AppData\Local\Temp\stm32-chibios.0UTc6U.ltrans2.ltrans.o
                0x08016520                _lv_txt_get_next_line
 *fill*         0x080165f4        0xc 
 .text._lv_txt_get_width
                0x08016600       0x9c C:\Users\error414\AppData\Local\Temp\stm32-chibios.0UTc6U.ltrans2.ltrans.o
                0x08016600                _lv_txt_get_width
 *fill*         0x0801669c        0x4 
 .text._lv_txt_get_size
                0x080166a0       0xc8 C:\Users\error414\AppData\Local\Temp\stm32-chibios.0UTc6U.ltrans2.ltrans.o
                0x080166a0                _lv_txt_get_size
 *fill*         0x08016768        0x8 
 .text.draw_y_ticks
                0x08016770      0x310 C:\Users\error414\AppData\Local\Temp\stm32-chibios.0UTc6U.ltrans2.ltrans.o
 .text.draw_x_ticks
                0x08016a80      0x29c C:\Users\error414\AppData\Local\Temp\stm32-chibios.0UTc6U.ltrans2.ltrans.o
 *fill*         0x08016d1c        0x4 
 .text.draw_axes
                0x08016d20       0x28 C:\Users\error414\AppData\Local\Temp\stm32-chibios.0UTc6U.ltrans2.ltrans.o
 *fill*         0x08016d48        0x8 
 .text.lv_chart_design
                0x08016d50       0x9c C:\Users\error414\AppData\Local\Temp\stm32-chibios.0UTc6U.ltrans2.ltrans.o
 *fill*         0x08016dec        0x4 
 .text._lv_utils_bsearch
                0x08016df0       0x44 C:\Users\error414\AppData\Local\Temp\stm32-chibios.0UTc6U.ltrans2.ltrans.o
                0x08016df0                _lv_utils_bsearch
 *fill*         0x08016e34        0xc 
 .text.lv_theme_set_act
                0x08016e40        0xc C:\Users\error414\AppData\Local\Temp\stm32-chibios.0UTc6U.ltrans2.ltrans.o
                0x08016e40                lv_theme_set_act
 *fill*         0x08016e4c        0x4 
 .text.lv_theme_apply
                0x08016e50       0x1c C:\Users\error414\AppData\Local\Temp\stm32-chibios.0UTc6U.ltrans2.ltrans.o
                0x08016e50                lv_theme_apply
 *fill*         0x08016e6c        0x4 
 .text.lv_theme_get_font_normal
                0x08016e70        0xc C:\Users\error414\AppData\Local\Temp\stm32-chibios.0UTc6U.ltrans2.ltrans.o
                0x08016e70                lv_theme_get_font_normal
 *fill*         0x08016e7c        0x4 
 .text.lv_theme_mono_init
                0x08016e80       0x78 C:\Users\error414\AppData\Local\Temp\stm32-chibios.0UTc6U.ltrans2.ltrans.o
                0x08016e80                lv_theme_mono_init
 *fill*         0x08016ef8        0x8 
 .text.lv_chart_create
                0x08016f00      0x1e0 C:\Users\error414\AppData\Local\Temp\stm32-chibios.0UTc6U.ltrans2.ltrans.o
                0x08016f00                lv_chart_create
 .text.lv_chart_add_series
                0x080170e0       0x68 C:\Users\error414\AppData\Local\Temp\stm32-chibios.0UTc6U.ltrans2.ltrans.o
                0x080170e0                lv_chart_add_series
 *fill*         0x08017148        0x8 
 .text.lv_chart_set_div_line_count
                0x08017150       0x2c C:\Users\error414\AppData\Local\Temp\stm32-chibios.0UTc6U.ltrans2.ltrans.o
                0x08017150                lv_chart_set_div_line_count
 *fill*         0x0801717c        0x4 
 .text.lv_chart_set_y_range
                0x08017180       0x54 C:\Users\error414\AppData\Local\Temp\stm32-chibios.0UTc6U.ltrans2.ltrans.o
                0x08017180                lv_chart_set_y_range
 *fill*         0x080171d4        0xc 
 .text.lv_chart_set_type
                0x080171e0       0x20 C:\Users\error414\AppData\Local\Temp\stm32-chibios.0UTc6U.ltrans2.ltrans.o
                0x080171e0                lv_chart_set_type
 .text.lv_chart_set_point_count
                0x08017200       0xe4 C:\Users\error414\AppData\Local\Temp\stm32-chibios.0UTc6U.ltrans2.ltrans.o
                0x08017200                lv_chart_set_point_count
 *fill*         0x080172e4        0xc 
 .text.lv_chart_set_next
                0x080172f0       0x7c C:\Users\error414\AppData\Local\Temp\stm32-chibios.0UTc6U.ltrans2.ltrans.o
                0x080172f0                lv_chart_set_next
 *fill*         0x0801736c        0x4 
 .text.lv_chart_set_y_tick_length
                0x08017370       0x14 C:\Users\error414\AppData\Local\Temp\stm32-chibios.0UTc6U.ltrans2.ltrans.o
                0x08017370                lv_chart_set_y_tick_length
 *fill*         0x08017384        0xc 
 .text.lv_chart_set_y_tick_texts
                0x08017390       0x18 C:\Users\error414\AppData\Local\Temp\stm32-chibios.0UTc6U.ltrans2.ltrans.o
                0x08017390                lv_chart_set_y_tick_texts
 *fill*         0x080173a8        0x8 
 .text.lv_cont_create
                0x080173b0       0xf4 C:\Users\error414\AppData\Local\Temp\stm32-chibios.0UTc6U.ltrans2.ltrans.o
                0x080173b0                lv_cont_create
 *fill*         0x080174a4        0xc 
 .text.lv_cont_set_layout
                0x080174b0       0x28 C:\Users\error414\AppData\Local\Temp\stm32-chibios.0UTc6U.ltrans2.ltrans.o
                0x080174b0                lv_cont_set_layout
 *fill*         0x080174d8        0x8 
 .text.lv_img_set_src
                0x080174e0      0x180 C:\Users\error414\AppData\Local\Temp\stm32-chibios.0UTc6U.ltrans2.ltrans.o
                0x080174e0                lv_img_set_src
 .text.lv_img_create
                0x08017660      0x128 C:\Users\error414\AppData\Local\Temp\stm32-chibios.0UTc6U.ltrans2.ltrans.o
                0x08017660                lv_img_create
 *fill*         0x08017788        0x8 
 .text.lv_img_get_style
                0x08017790        0xc C:\Users\error414\AppData\Local\Temp\stm32-chibios.0UTc6U.ltrans3.ltrans.o
 *fill*         0x0801779c        0x4 
 .text.lv_label_get_text_sel_start
                0x080177a0        0x8 C:\Users\error414\AppData\Local\Temp\stm32-chibios.0UTc6U.ltrans3.ltrans.o
 *fill*         0x080177a8        0x8 
 .text.lv_label_get_text_sel_end
                0x080177b0        0x8 C:\Users\error414\AppData\Local\Temp\stm32-chibios.0UTc6U.ltrans3.ltrans.o
 *fill*         0x080177b8        0x8 
 .text.lv_label_get_style
                0x080177c0        0xc C:\Users\error414\AppData\Local\Temp\stm32-chibios.0UTc6U.ltrans3.ltrans.o
 *fill*         0x080177cc        0x4 
 .text.shellInit
                0x080177d0        0xc C:\Users\error414\AppData\Local\Temp\stm32-chibios.0UTc6U.ltrans3.ltrans.o
 *fill*         0x080177dc        0x4 
 .text.gpio_init
                0x080177e0       0x20 C:\Users\error414\AppData\Local\Temp\stm32-chibios.0UTc6U.ltrans3.ltrans.o
 .text.stm32_gpio_init
                0x08017800       0x88 C:\Users\error414\AppData\Local\Temp\stm32-chibios.0UTc6U.ltrans3.ltrans.o
 *fill*         0x08017888        0x8 
 .text.BMP280_init_default_params
                0x08017890       0x14 C:\Users\error414\AppData\Local\Temp\stm32-chibios.0UTc6U.ltrans3.ltrans.o
 *fill*         0x080178a4        0xc 
 .text.MSP__getFrameI
                0x080178b0       0x10 C:\Users\error414\AppData\Local\Temp\stm32-chibios.0UTc6U.ltrans3.ltrans.o
 .text.Bmp280__thread_init
                0x080178c0       0x24 C:\Users\error414\AppData\Local\Temp\stm32-chibios.0UTc6U.ltrans3.ltrans.o
 *fill*         0x080178e4        0xc 
 .text.Gui__thread_init
                0x080178f0        0xc C:\Users\error414\AppData\Local\Temp\stm32-chibios.0UTc6U.ltrans3.ltrans.o
 *fill*         0x080178fc        0x4 
 .text.HwList__thread_init
                0x08017900        0x4 C:\Users\error414\AppData\Local\Temp\stm32-chibios.0UTc6U.ltrans3.ltrans.o
 *fill*         0x08017904        0xc 
 .text.HwList__getHw
                0x08017910        0x8 C:\Users\error414\AppData\Local\Temp\stm32-chibios.0UTc6U.ltrans3.ltrans.o
 *fill*         0x08017918        0x8 
 .text.MSPRX__thread_init
                0x08017920        0x4 C:\Users\error414\AppData\Local\Temp\stm32-chibios.0UTc6U.ltrans3.ltrans.o
 *fill*         0x08017924        0xc 
 .text.processFrameI
                0x08017930       0xac C:\Users\error414\AppData\Local\Temp\stm32-chibios.0UTc6U.ltrans3.ltrans.o
 *fill*         0x080179dc        0x4 
 .text.get_txt_coords
                0x080179e0       0x58 C:\Users\error414\AppData\Local\Temp\stm32-chibios.0UTc6U.ltrans3.ltrans.o
 *fill*         0x08017a38        0x8 
 .text.lv_img_design.lto_priv.0
                0x08017a40      0x604 C:\Users\error414\AppData\Local\Temp\stm32-chibios.0UTc6U.ltrans3.ltrans.o
                0x08017a40                lv_img_design.lto_priv.0
 *fill*         0x08018044        0xc 
 .text.lv_label_get_text
                0x08018050        0xc C:\Users\error414\AppData\Local\Temp\stm32-chibios.0UTc6U.ltrans3.ltrans.o
 *fill*         0x0801805c        0x4 
 .text.lv_label_get_long_mode
                0x08018060       0x10 C:\Users\error414\AppData\Local\Temp\stm32-chibios.0UTc6U.ltrans3.ltrans.o
 .text.lv_label_get_align
                0x08018070       0x18 C:\Users\error414\AppData\Local\Temp\stm32-chibios.0UTc6U.ltrans3.ltrans.o
 *fill*         0x08018088        0x8 
 .text.lv_label_get_recolor
                0x08018090       0x10 C:\Users\error414\AppData\Local\Temp\stm32-chibios.0UTc6U.ltrans3.ltrans.o
 .text.lv_label_get_dot_tmp
                0x080180a0       0x18 C:\Users\error414\AppData\Local\Temp\stm32-chibios.0UTc6U.ltrans3.ltrans.o
 *fill*         0x080180b8        0x8 
 .text.lv_line_get_auto_size
                0x080180c0       0x10 C:\Users\error414\AppData\Local\Temp\stm32-chibios.0UTc6U.ltrans3.ltrans.o
 .text.lv_line_get_y_invert
                0x080180d0       0x10 C:\Users\error414\AppData\Local\Temp\stm32-chibios.0UTc6U.ltrans3.ltrans.o
 .text.lv_label_dot_tmp_free
                0x080180e0       0x28 C:\Users\error414\AppData\Local\Temp\stm32-chibios.0UTc6U.ltrans3.ltrans.o
 *fill*         0x08018108        0x8 
 .text.lv_label_revert_dots
                0x08018110       0x5c C:\Users\error414\AppData\Local\Temp\stm32-chibios.0UTc6U.ltrans3.ltrans.o
 *fill*         0x0801816c        0x4 
 .text.lv_img_signal.lto_priv.0
                0x08018170      0x294 C:\Users\error414\AppData\Local\Temp\stm32-chibios.0UTc6U.ltrans3.ltrans.o
                0x08018170                lv_img_signal.lto_priv.0
 *fill*         0x08018404        0xc 
 .text.lv_line_signal
                0x08018410       0x4c C:\Users\error414\AppData\Local\Temp\stm32-chibios.0UTc6U.ltrans3.ltrans.o
 *fill*         0x0801845c        0x4 
 .text.lv_label_design
                0x08018460      0x268 C:\Users\error414\AppData\Local\Temp\stm32-chibios.0UTc6U.ltrans3.ltrans.o
 *fill*         0x080186c8        0x8 
 .text.lv_label_set_dot_tmp
                0x080186d0       0x58 C:\Users\error414\AppData\Local\Temp\stm32-chibios.0UTc6U.ltrans3.ltrans.o
 *fill*         0x08018728        0x8 
 .text.lv_label_set_align
                0x08018730       0x24 C:\Users\error414\AppData\Local\Temp\stm32-chibios.0UTc6U.ltrans3.ltrans.o
 *fill*         0x08018754        0xc 
 .text.lv_line_set_y_invert
                0x08018760       0x24 C:\Users\error414\AppData\Local\Temp\stm32-chibios.0UTc6U.ltrans3.ltrans.o
 *fill*         0x08018784        0xc 
 .text.lv_label_get_letter_on
                0x08018790      0x234 C:\Users\error414\AppData\Local\Temp\stm32-chibios.0UTc6U.ltrans3.ltrans.o
 *fill*         0x080189c4        0xc 
 .text.lv_label_refr_text
                0x080189d0      0x264 C:\Users\error414\AppData\Local\Temp\stm32-chibios.0UTc6U.ltrans3.ltrans.o
 *fill*         0x08018c34        0xc 
 .text.lv_label_signal
                0x08018c40       0xd0 C:\Users\error414\AppData\Local\Temp\stm32-chibios.0UTc6U.ltrans3.ltrans.o
 .text.lv_label_set_text
                0x08018d10       0x78 C:\Users\error414\AppData\Local\Temp\stm32-chibios.0UTc6U.ltrans3.ltrans.o
 *fill*         0x08018d88        0x8 
 .text.guiFillMainHeader
                0x08018d90       0x18 C:\Users\error414\AppData\Local\Temp\stm32-chibios.0UTc6U.ltrans3.ltrans.o
 *fill*         0x08018da8        0x8 
 .text.lv_label_set_text_static
                0x08018db0       0x34 C:\Users\error414\AppData\Local\Temp\stm32-chibios.0UTc6U.ltrans3.ltrans.o
 *fill*         0x08018de4        0xc 
 .text.lv_label_set_long_mode
                0x08018df0       0x58 C:\Users\error414\AppData\Local\Temp\stm32-chibios.0UTc6U.ltrans3.ltrans.o
 *fill*         0x08018e48        0x8 
 .text.lv_label_set_recolor
                0x08018e50       0x24 C:\Users\error414\AppData\Local\Temp\stm32-chibios.0UTc6U.ltrans3.ltrans.o
 *fill*         0x08018e74        0xc 
 .text.lv_label_create
                0x08018e80      0x198 C:\Users\error414\AppData\Local\Temp\stm32-chibios.0UTc6U.ltrans3.ltrans.o
 *fill*         0x08019018        0x8 
 .text.lv_line_set_points
                0x08019020       0x74 C:\Users\error414\AppData\Local\Temp\stm32-chibios.0UTc6U.ltrans3.ltrans.o
 *fill*         0x08019094        0xc 
 .text.lv_line_set_auto_size
                0x080190a0       0x2c C:\Users\error414\AppData\Local\Temp\stm32-chibios.0UTc6U.ltrans3.ltrans.o
 *fill*         0x080190cc        0x4 
 .text.lv_line_create
                0x080190d0       0xd4 C:\Users\error414\AppData\Local\Temp\stm32-chibios.0UTc6U.ltrans3.ltrans.o
 *fill*         0x080191a4        0xc 
 .text.lv_line_design
                0x080191b0       0xf8 C:\Users\error414\AppData\Local\Temp\stm32-chibios.0UTc6U.ltrans3.ltrans.o
 *fill*         0x080192a8        0x8 
 .text.EPD_7IN5_HD_Reset
                0x080192b0       0x5c C:\Users\error414\AppData\Local\Temp\stm32-chibios.0UTc6U.ltrans3.ltrans.o
 *fill*         0x0801930c        0x4 
 .text.EPD_7IN5_HD_WaitUntilIdle
                0x08019310       0x30 C:\Users\error414\AppData\Local\Temp\stm32-chibios.0UTc6U.ltrans3.ltrans.o
 .text.HC12__thread_progMode
                0x08019340       0x28 C:\Users\error414\AppData\Local\Temp\stm32-chibios.0UTc6U.ltrans3.ltrans.o
 *fill*         0x08019368        0x8 
 .text.HC12__thread_normalMode
                0x08019370       0x28 C:\Users\error414\AppData\Local\Temp\stm32-chibios.0UTc6U.ltrans3.ltrans.o
 *fill*         0x08019398        0x8 
 .text.parse_arguments
                0x080193a0       0x50 C:\Users\error414\AppData\Local\Temp\stm32-chibios.0UTc6U.ltrans3.ltrans.o
 .text.list_commands
                0x080193f0       0x20 C:\Users\error414\AppData\Local\Temp\stm32-chibios.0UTc6U.ltrans3.ltrans.o
 .text.shellGetLine
                0x08019410       0x88 C:\Users\error414\AppData\Local\Temp\stm32-chibios.0UTc6U.ltrans3.ltrans.o
 *fill*         0x08019498        0x8 
 .text.cmd_values
                0x080194a0       0xb8 C:\Users\error414\AppData\Local\Temp\stm32-chibios.0UTc6U.ltrans3.ltrans.o
 *fill*         0x08019558        0x8 
 .text.cmd_hw   0x08019560       0x54 C:\Users\error414\AppData\Local\Temp\stm32-chibios.0UTc6U.ltrans3.ltrans.o
 *fill*         0x080195b4        0xc 
 .text.cmdexec  0x080195c0       0x30 C:\Users\error414\AppData\Local\Temp\stm32-chibios.0UTc6U.ltrans3.ltrans.o
 .text.Shell__thread_init
                0x080195f0       0x28 C:\Users\error414\AppData\Local\Temp\stm32-chibios.0UTc6U.ltrans3.ltrans.o
 *fill*         0x08019618        0x8 
 .text.Bmp280__thread_start
                0x08019620       0x24 C:\Users\error414\AppData\Local\Temp\stm32-chibios.0UTc6U.ltrans3.ltrans.o
 *fill*         0x08019644        0xc 
 .text.Gui__thread_start
                0x08019650       0x24 C:\Users\error414\AppData\Local\Temp\stm32-chibios.0UTc6U.ltrans3.ltrans.o
 *fill*         0x08019674        0xc 
 .text.HC12__thread_start
                0x08019680       0x24 C:\Users\error414\AppData\Local\Temp\stm32-chibios.0UTc6U.ltrans3.ltrans.o
 *fill*         0x080196a4        0xc 
 .text.HwList__thread_start
                0x080196b0       0x24 C:\Users\error414\AppData\Local\Temp\stm32-chibios.0UTc6U.ltrans3.ltrans.o
 *fill*         0x080196d4        0xc 
 .text.MSPRX__thread_start
                0x080196e0       0x24 C:\Users\error414\AppData\Local\Temp\stm32-chibios.0UTc6U.ltrans3.ltrans.o
 *fill*         0x08019704        0xc 
 .text.cmd_threads
                0x08019710       0xa0 C:\Users\error414\AppData\Local\Temp\stm32-chibios.0UTc6U.ltrans3.ltrans.o
 .text.cmd_mem  0x080197b0       0x68 C:\Users\error414\AppData\Local\Temp\stm32-chibios.0UTc6U.ltrans3.ltrans.o
 *fill*         0x08019818        0x8 
 .text.i2c1_init
                0x08019820       0x38 C:\Users\error414\AppData\Local\Temp\stm32-chibios.0UTc6U.ltrans3.ltrans.o
 *fill*         0x08019858        0x8 
 .text.checkI2CCondition
                0x08019860       0x30 C:\Users\error414\AppData\Local\Temp\stm32-chibios.0UTc6U.ltrans3.ltrans.o
 .text.uart6_init
                0x08019890       0x38 C:\Users\error414\AppData\Local\Temp\stm32-chibios.0UTc6U.ltrans3.ltrans.o
 *fill*         0x080198c8        0x8 
 .text.uart2_init
                0x080198d0       0x34 C:\Users\error414\AppData\Local\Temp\stm32-chibios.0UTc6U.ltrans3.ltrans.o
 *fill*         0x08019904        0xc 
 .text.spi1_init
                0x08019910       0x74 C:\Users\error414\AppData\Local\Temp\stm32-chibios.0UTc6U.ltrans3.ltrans.o
 *fill*         0x08019984        0xc 
 .text.guiInitMainHeader
                0x08019990       0xd8 C:\Users\error414\AppData\Local\Temp\stm32-chibios.0UTc6U.ltrans3.ltrans.o
 *fill*         0x08019a68        0x8 
 .text.lv_scr_act.lto_priv.2
                0x08019a70        0xc C:\Users\error414\AppData\Local\Temp\stm32-chibios.0UTc6U.ltrans3.ltrans.o
 *fill*         0x08019a7c        0x4 
 .text.guiCreateBackground
                0x08019a80       0xb4 C:\Users\error414\AppData\Local\Temp\stm32-chibios.0UTc6U.ltrans3.ltrans.o
 *fill*         0x08019b34        0xc 
 .text.lv_scr_act.lto_priv.3
                0x08019b40        0xc C:\Users\error414\AppData\Local\Temp\stm32-chibios.0UTc6U.ltrans3.ltrans.o
 *fill*         0x08019b4c        0x4 
 .text.Gui__LVGLmonitorCb
                0x08019b50       0x24 C:\Users\error414\AppData\Local\Temp\stm32-chibios.0UTc6U.ltrans3.ltrans.o
 *fill*         0x08019b74        0xc 
 .text.guiInitForecast
                0x08019b80       0xe8 C:\Users\error414\AppData\Local\Temp\stm32-chibios.0UTc6U.ltrans3.ltrans.o
 *fill*         0x08019c68        0x8 
 .text.guiFillForecast
                0x08019c70      0x194 C:\Users\error414\AppData\Local\Temp\stm32-chibios.0UTc6U.ltrans3.ltrans.o
 *fill*         0x08019e04        0xc 
 .text.guiInitInside
                0x08019e10      0x4c4 C:\Users\error414\AppData\Local\Temp\stm32-chibios.0UTc6U.ltrans3.ltrans.o
 *fill*         0x0801a2d4        0xc 
 .text.guiInitOutside
                0x0801a2e0      0x520 C:\Users\error414\AppData\Local\Temp\stm32-chibios.0UTc6U.ltrans3.ltrans.o
 .text.guiFillInsideAll
                0x0801a800       0xe8 C:\Users\error414\AppData\Local\Temp\stm32-chibios.0UTc6U.ltrans3.ltrans.o
 *fill*         0x0801a8e8        0x8 
 .text.guiFillOutsideAll
                0x0801a8f0      0x134 C:\Users\error414\AppData\Local\Temp\stm32-chibios.0UTc6U.ltrans3.ltrans.o
 *fill*         0x0801aa24        0xc 
 .text.guiInit  0x0801aa30      0x1c8 C:\Users\error414\AppData\Local\Temp\stm32-chibios.0UTc6U.ltrans3.ltrans.o
 *fill*         0x0801abf8        0x8 
 .text.EPD_7IN5_HD_SendCommand
                0x0801ac00       0x64 C:\Users\error414\AppData\Local\Temp\stm32-chibios.0UTc6U.ltrans3.ltrans.o
 *fill*         0x0801ac64        0xc 
 .text.EPD_7IN5_HD_SendDataByte
                0x0801ac70       0x64 C:\Users\error414\AppData\Local\Temp\stm32-chibios.0UTc6U.ltrans3.ltrans.o
 *fill*         0x0801acd4        0xc 
 .text.EPD_7IN5_HD_Init
                0x0801ace0      0x114 C:\Users\error414\AppData\Local\Temp\stm32-chibios.0UTc6U.ltrans3.ltrans.o
 *fill*         0x0801adf4        0xc 
 .text.EPD_7IN5_HD_WriteToScreen
                0x0801ae00       0x18 C:\Users\error414\AppData\Local\Temp\stm32-chibios.0UTc6U.ltrans3.ltrans.o
 *fill*         0x0801ae18        0x8 
 .text.EPD_7IN5_HD_StartWriteToScreen
                0x0801ae20       0x30 C:\Users\error414\AppData\Local\Temp\stm32-chibios.0UTc6U.ltrans3.ltrans.o
 .text.EPD_7IN5_HD_EndWriteToScreen
                0x0801ae50       0x20 C:\Users\error414\AppData\Local\Temp\stm32-chibios.0UTc6U.ltrans3.ltrans.o
 .text.EPD_7IN5_HD_Sleep
                0x0801ae70       0x10 C:\Users\error414\AppData\Local\Temp\stm32-chibios.0UTc6U.ltrans3.ltrans.o
 .text.BMP280_read_register16
                0x0801ae80       0x68 C:\Users\error414\AppData\Local\Temp\stm32-chibios.0UTc6U.ltrans3.ltrans.o
 *fill*         0x0801aee8        0x8 
 .text.BMP280_read_calibration_data
                0x0801aef0       0xb8 C:\Users\error414\AppData\Local\Temp\stm32-chibios.0UTc6U.ltrans3.ltrans.o
 *fill*         0x0801afa8        0x8 
 .text.BMP280_read_data
                0x0801afb0       0x54 C:\Users\error414\AppData\Local\Temp\stm32-chibios.0UTc6U.ltrans3.ltrans.o
 *fill*         0x0801b004        0xc 
 .text.BMP280_read_hum_calibration_data
                0x0801b010       0x88 C:\Users\error414\AppData\Local\Temp\stm32-chibios.0UTc6U.ltrans3.ltrans.o
 *fill*         0x0801b098        0x8 
 .text.BMP280_read_fixed
                0x0801b0a0      0x2ac C:\Users\error414\AppData\Local\Temp\stm32-chibios.0UTc6U.ltrans3.ltrans.o
 *fill*         0x0801b34c        0x4 
 .text.BMP280_read_float
                0x0801b350       0x58 C:\Users\error414\AppData\Local\Temp\stm32-chibios.0UTc6U.ltrans3.ltrans.o
 *fill*         0x0801b3a8        0x8 
 .text.BMP280_write_register8
                0x0801b3b0       0x60 C:\Users\error414\AppData\Local\Temp\stm32-chibios.0UTc6U.ltrans3.ltrans.o
 .text.BMP280_init
                0x0801b410       0xf4 C:\Users\error414\AppData\Local\Temp\stm32-chibios.0UTc6U.ltrans3.ltrans.o
 *fill*         0x0801b504        0xc 
 .text.MSP__createMspFrame
                0x0801b510       0x78 C:\Users\error414\AppData\Local\Temp\stm32-chibios.0UTc6U.ltrans3.ltrans.o
 *fill*         0x0801b588        0x8 
 .text.MSP__parseMspFrameLoop
                0x0801b590      0x114 C:\Users\error414\AppData\Local\Temp\stm32-chibios.0UTc6U.ltrans3.ltrans.o
 *fill*         0x0801b6a4        0xc 
 .text.Gui__LVGLdispFlushCb
                0x0801b6b0       0xb4 C:\Users\error414\AppData\Local\Temp\stm32-chibios.0UTc6U.ltrans3.ltrans.o
 *fill*         0x0801b764        0xc 
 .text.registerHwThread
                0x0801b770       0x3c C:\Users\error414\AppData\Local\Temp\stm32-chibios.0UTc6U.ltrans3.ltrans.o
 *fill*         0x0801b7ac        0x4 
 .text.HC12__thread_init
                0x0801b7b0       0x3c C:\Users\error414\AppData\Local\Temp\stm32-chibios.0UTc6U.ltrans3.ltrans.o
 *fill*         0x0801b7ec        0x4 
 .text.shared_pools_init
                0x0801b7f0       0x28 C:\Users\error414\AppData\Local\Temp\stm32-chibios.0UTc6U.ltrans3.ltrans.o
 *fill*         0x0801b818        0x8 
 .text.__early_init
                0x0801b820        0xc C:\Users\error414\AppData\Local\Temp\stm32-chibios.0UTc6U.ltrans3.ltrans.o
                0x0801b820                __early_init
 *fill*         0x0801b82c        0x4 
 .text.boardInit
                0x0801b830        0x4 C:\Users\error414\AppData\Local\Temp\stm32-chibios.0UTc6U.ltrans3.ltrans.o
                0x0801b830                boardInit
 *fill*         0x0801b834        0xc 
 .text.shellExit
                0x0801b840       0x24 C:\Users\error414\AppData\Local\Temp\stm32-chibios.0UTc6U.ltrans3.ltrans.o
 *fill*         0x0801b864        0xc 
 .text.shellThread
                0x0801b870      0x160 C:\Users\error414\AppData\Local\Temp\stm32-chibios.0UTc6U.ltrans3.ltrans.o
 .text.main     0x0801b9d0       0xe8 C:\Users\error414\AppData\Local\Temp\stm32-chibios.0UTc6U.ltrans3.ltrans.o
                0x0801b9d0                main
 *fill*         0x0801bab8        0x8 
 .text.Bmp280Thread
                0x0801bac0      0x160 C:\Users\error414\AppData\Local\Temp\stm32-chibios.0UTc6U.ltrans3.ltrans.o
 .text.guiThread
                0x0801bc20      0x194 C:\Users\error414\AppData\Local\Temp\stm32-chibios.0UTc6U.ltrans3.ltrans.o
 *fill*         0x0801bdb4        0xc 
 .text.HC12__thread_checkStatus
                0x0801bdc0       0x94 C:\Users\error414\AppData\Local\Temp\stm32-chibios.0UTc6U.ltrans3.ltrans.o
 *fill*         0x0801be54        0xc 
 .text.chVTGetSystemTime
                0x0801be60       0x40 C:\Users\error414\AppData\Local\Temp\stm32-chibios.0UTc6U.ltrans3.ltrans.o
 .text.chBSemSignal
                0x0801bea0       0x50 C:\Users\error414\AppData\Local\Temp\stm32-chibios.0UTc6U.ltrans3.ltrans.o
 .text.hc12StreamRXMSPThread
                0x0801bef0       0xcc C:\Users\error414\AppData\Local\Temp\stm32-chibios.0UTc6U.ltrans3.ltrans.o
 *fill*         0x0801bfbc        0x4 
 .text.hc12StreamTXThread
                0x0801bfc0      0x164 C:\Users\error414\AppData\Local\Temp\stm32-chibios.0UTc6U.ltrans3.ltrans.o
 *fill*         0x0801c124        0xc 
 .text.HC12__thread_wakeUp
                0x0801c130       0x80 C:\Users\error414\AppData\Local\Temp\stm32-chibios.0UTc6U.ltrans3.ltrans.o
 .text.HC12__thread_reconfigure
                0x0801c1b0      0x434 C:\Users\error414\AppData\Local\Temp\stm32-chibios.0UTc6U.ltrans3.ltrans.o
 *fill*         0x0801c5e4        0xc 
 .text.HC12__thread_reconfigureDefault
                0x0801c5f0       0x14 C:\Users\error414\AppData\Local\Temp\stm32-chibios.0UTc6U.ltrans3.ltrans.o
 *fill*         0x0801c604        0xc 
 .text.cmd_hc12Set
                0x0801c610       0x1c C:\Users\error414\AppData\Local\Temp\stm32-chibios.0UTc6U.ltrans3.ltrans.o
 *fill*         0x0801c62c        0x4 
 .text.mspParserThread
                0x0801c630       0x90 C:\Users\error414\AppData\Local\Temp\stm32-chibios.0UTc6U.ltrans3.ltrans.o
 .text.memcmp   0x0801c6c0       0x68 c:/users/error414/documents/stm32-tools/gcc-arm-none-eabi-10-2020-q4-major/bin/../lib/gcc/arm-none-eabi/10.2.1/../../../../arm-none-eabi/lib/thumb/v7e-m/nofp\libg.a(lib_a-memcmp.o)
                0x0801c6c0                memcmp
 .text.strchr   0x0801c728       0xcc c:/users/error414/documents/stm32-tools/gcc-arm-none-eabi-10-2020-q4-major/bin/../lib/gcc/arm-none-eabi/10.2.1/../../../../arm-none-eabi/lib/thumb/v7e-m/nofp\libg.a(lib_a-strchr.o)
                0x0801c728                strchr
 .text.strcpy   0x0801c7f4       0xbc c:/users/error414/documents/stm32-tools/gcc-arm-none-eabi-10-2020-q4-major/bin/../lib/gcc/arm-none-eabi/10.2.1/../../../../arm-none-eabi/lib/thumb/v7e-m/nofp\libg.a(lib_a-strcpy.o)
                0x0801c7f4                strcpy
 .text.strncpy  0x0801c8b0       0x64 c:/users/error414/documents/stm32-tools/gcc-arm-none-eabi-10-2020-q4-major/bin/../lib/gcc/arm-none-eabi/10.2.1/../../../../arm-none-eabi/lib/thumb/v7e-m/nofp\libg.a(lib_a-strncpy.o)
                0x0801c8b0                strncpy
 .text.strpbrk  0x0801c914       0x38 c:/users/error414/documents/stm32-tools/gcc-arm-none-eabi-10-2020-q4-major/bin/../lib/gcc/arm-none-eabi/10.2.1/../../../../arm-none-eabi/lib/thumb/v7e-m/nofp\libg.a(lib_a-strpbrk.o)
                0x0801c914                strpbrk
 .text.strspn   0x0801c94c       0x30 c:/users/error414/documents/stm32-tools/gcc-arm-none-eabi-10-2020-q4-major/bin/../lib/gcc/arm-none-eabi/10.2.1/../../../../arm-none-eabi/lib/thumb/v7e-m/nofp\libg.a(lib_a-strspn.o)
                0x0801c94c                strspn
 *(.glue_7t)
 .glue_7t       0x0801c97c        0x0 linker stubs
 *(.glue_7)
 .glue_7        0x0801c97c        0x0 linker stubs
 *(.gcc*)
                0x0801c97c                __text_end__ = .

.vfp11_veneer   0x0801c97c        0x0
 .vfp11_veneer  0x0801c97c        0x0 linker stubs

.v4_bx          0x0801c97c        0x0
 .v4_bx         0x0801c97c        0x0 linker stubs

.iplt           0x0801c97c        0x0
 .iplt          0x0801c97c        0x0 CMakeFiles/stm32-chibios.dir/C_/Users/error414/Documents/STM32/meteo-F4/ChibiOS/os/common/startup/ARMCMx/compilers/GCC/crt0_v7m.S.obj

.rodata         0x0801c97c    0x1342c
                0x0801c97c                __rodata_base__ = .
 *(.rodata)
 .rodata        0x0801c97c       0x10 C:\Users\error414\AppData\Local\Temp\stm32-chibios.0UTc6U.ltrans1.ltrans.o
 .rodata        0x0801c98c       0x30 C:\Users\error414\AppData\Local\Temp\stm32-chibios.0UTc6U.ltrans3.ltrans.o
 *(.rodata.*)
 .rodata.chvprintf.str1.4
                0x0801c9bc        0x7 C:\Users\error414\AppData\Local\Temp\stm32-chibios.0UTc6U.ltrans0.ltrans.o
 *fill*         0x0801c9c3        0x1 
 .rodata.i2c_lld_serve_tx_end_irq.str1.4
                0x0801c9c4        0xc C:\Users\error414\AppData\Local\Temp\stm32-chibios.0UTc6U.ltrans0.ltrans.o
 .rodata.__dbg_check_lock_from_isr.str1.4
                0x0801c9d0        0x5 C:\Users\error414\AppData\Local\Temp\stm32-chibios.0UTc6U.ltrans0.ltrans.o
 *fill*         0x0801c9d5        0x3 
 .rodata.__dbg_check_unlock_from_isr.str1.4
                0x0801c9d8        0x5 C:\Users\error414\AppData\Local\Temp\stm32-chibios.0UTc6U.ltrans0.ltrans.o
 *fill*         0x0801c9dd        0x3 
 .rodata.__dbg_check_enter_isr.str1.4
                0x0801c9e0        0x5 C:\Users\error414\AppData\Local\Temp\stm32-chibios.0UTc6U.ltrans0.ltrans.o
 *fill*         0x0801c9e5        0x3 
 .rodata.__dbg_check_leave_isr.str1.4
                0x0801c9e8        0x5 C:\Users\error414\AppData\Local\Temp\stm32-chibios.0UTc6U.ltrans0.ltrans.o
 *fill*         0x0801c9ed        0x3 
 .rodata.chDbgCheckClassS.str1.4
                0x0801c9f0        0x6 C:\Users\error414\AppData\Local\Temp\stm32-chibios.0UTc6U.ltrans0.ltrans.o
 *fill*         0x0801c9f6        0x2 
 .rodata.__sch_reschedule_ahead.str1.4
                0x0801c9f8        0xf C:\Users\error414\AppData\Local\Temp\stm32-chibios.0UTc6U.ltrans0.ltrans.o
 *fill*         0x0801ca07        0x1 
 .rodata.__dbg_check_lock.str1.4
                0x0801ca08        0x5 C:\Users\error414\AppData\Local\Temp\stm32-chibios.0UTc6U.ltrans0.ltrans.o
 *fill*         0x0801ca0d        0x3 
 .rodata.__dbg_check_unlock.str1.4
                0x0801ca10        0x5 C:\Users\error414\AppData\Local\Temp\stm32-chibios.0UTc6U.ltrans0.ltrans.o
 *fill*         0x0801ca15        0x3 
 .rodata.chDbgCheckClassI.str1.4
                0x0801ca18        0x6 C:\Users\error414\AppData\Local\Temp\stm32-chibios.0UTc6U.ltrans0.ltrans.o
 *fill*         0x0801ca1e        0x2 
 .rodata.chInstanceObjectInit.str1.4
                0x0801ca20        0x5 C:\Users\error414\AppData\Local\Temp\stm32-chibios.0UTc6U.ltrans0.ltrans.o
 *fill*         0x0801ca25        0x3 
 .rodata.chThdCreateStatic.str1.4
                0x0801ca28        0x7 C:\Users\error414\AppData\Local\Temp\stm32-chibios.0UTc6U.ltrans0.ltrans.o
 *fill*         0x0801ca2f        0x1 
 .rodata.lv_obj_signal.str1.4
                0x0801ca30        0x7 C:\Users\error414\AppData\Local\Temp\stm32-chibios.0UTc6U.ltrans0.ltrans.o
 *fill*         0x0801ca37        0x1 
 .rodata.str1.4
                0x0801ca38        0x3 C:\Users\error414\AppData\Local\Temp\stm32-chibios.0UTc6U.ltrans0.ltrans.o
 *fill*         0x0801ca3b        0x1 
 .rodata.__func__.0.lto_priv.0
                0x0801ca3c        0xf C:\Users\error414\AppData\Local\Temp\stm32-chibios.0UTc6U.ltrans0.ltrans.o
 *fill*         0x0801ca4b        0x1 
 .rodata.__func__.0.lto_priv.1
                0x0801ca4c        0xe C:\Users\error414\AppData\Local\Temp\stm32-chibios.0UTc6U.ltrans0.ltrans.o
 *fill*         0x0801ca5a        0x2 
 .rodata.__func__.0.lto_priv.10
                0x0801ca5c       0x10 C:\Users\error414\AppData\Local\Temp\stm32-chibios.0UTc6U.ltrans0.ltrans.o
 .rodata.__func__.0.lto_priv.11
                0x0801ca6c        0xc C:\Users\error414\AppData\Local\Temp\stm32-chibios.0UTc6U.ltrans0.ltrans.o
 .rodata.__func__.0.lto_priv.12
                0x0801ca78        0xb C:\Users\error414\AppData\Local\Temp\stm32-chibios.0UTc6U.ltrans0.ltrans.o
 *fill*         0x0801ca83        0x1 
 .rodata.__func__.0.lto_priv.2
                0x0801ca84        0xe C:\Users\error414\AppData\Local\Temp\stm32-chibios.0UTc6U.ltrans0.ltrans.o
 *fill*         0x0801ca92        0x2 
 .rodata.__func__.0.lto_priv.3
                0x0801ca94        0xf C:\Users\error414\AppData\Local\Temp\stm32-chibios.0UTc6U.ltrans0.ltrans.o
 *fill*         0x0801caa3        0x1 
 .rodata.__func__.0.lto_priv.4
                0x0801caa4        0xc C:\Users\error414\AppData\Local\Temp\stm32-chibios.0UTc6U.ltrans0.ltrans.o
 .rodata.__func__.0.lto_priv.5
                0x0801cab0        0xb C:\Users\error414\AppData\Local\Temp\stm32-chibios.0UTc6U.ltrans0.ltrans.o
 *fill*         0x0801cabb        0x1 
 .rodata.__func__.0.lto_priv.6
                0x0801cabc        0xc C:\Users\error414\AppData\Local\Temp\stm32-chibios.0UTc6U.ltrans0.ltrans.o
 .rodata.__func__.0.lto_priv.7
                0x0801cac8       0x12 C:\Users\error414\AppData\Local\Temp\stm32-chibios.0UTc6U.ltrans0.ltrans.o
 *fill*         0x0801cada        0x2 
 .rodata.__func__.0.lto_priv.8
                0x0801cadc       0x15 C:\Users\error414\AppData\Local\Temp\stm32-chibios.0UTc6U.ltrans0.ltrans.o
 *fill*         0x0801caf1        0x3 
 .rodata.__func__.0.lto_priv.9
                0x0801caf4       0x14 C:\Users\error414\AppData\Local\Temp\stm32-chibios.0UTc6U.ltrans0.ltrans.o
 .rodata.__func__.1.lto_priv.0
                0x0801cb08        0xb C:\Users\error414\AppData\Local\Temp\stm32-chibios.0UTc6U.ltrans0.ltrans.o
 *fill*         0x0801cb13        0x1 
 .rodata.__func__.1.lto_priv.1
                0x0801cb14        0x9 C:\Users\error414\AppData\Local\Temp\stm32-chibios.0UTc6U.ltrans0.ltrans.o
 *fill*         0x0801cb1d        0x3 
 .rodata.__func__.1.lto_priv.10
                0x0801cb20        0xc C:\Users\error414\AppData\Local\Temp\stm32-chibios.0UTc6U.ltrans0.ltrans.o
 .rodata.__func__.1.lto_priv.11
                0x0801cb2c        0xd C:\Users\error414\AppData\Local\Temp\stm32-chibios.0UTc6U.ltrans0.ltrans.o
 *fill*         0x0801cb39        0x3 
 .rodata.__func__.1.lto_priv.12
                0x0801cb3c       0x12 C:\Users\error414\AppData\Local\Temp\stm32-chibios.0UTc6U.ltrans0.ltrans.o
 *fill*         0x0801cb4e        0x2 
 .rodata.__func__.1.lto_priv.13
                0x0801cb50       0x14 C:\Users\error414\AppData\Local\Temp\stm32-chibios.0UTc6U.ltrans0.ltrans.o
 .rodata.__func__.1.lto_priv.14
                0x0801cb64        0xc C:\Users\error414\AppData\Local\Temp\stm32-chibios.0UTc6U.ltrans0.ltrans.o
 .rodata.__func__.1.lto_priv.2
                0x0801cb70        0xe C:\Users\error414\AppData\Local\Temp\stm32-chibios.0UTc6U.ltrans0.ltrans.o
 *fill*         0x0801cb7e        0x2 
 .rodata.__func__.1.lto_priv.3
                0x0801cb80       0x10 C:\Users\error414\AppData\Local\Temp\stm32-chibios.0UTc6U.ltrans0.ltrans.o
 .rodata.__func__.1.lto_priv.4
                0x0801cb90        0xe C:\Users\error414\AppData\Local\Temp\stm32-chibios.0UTc6U.ltrans0.ltrans.o
 *fill*         0x0801cb9e        0x2 
 .rodata.__func__.1.lto_priv.5
                0x0801cba0       0x12 C:\Users\error414\AppData\Local\Temp\stm32-chibios.0UTc6U.ltrans0.ltrans.o
 *fill*         0x0801cbb2        0x2 
 .rodata.__func__.1.lto_priv.6
                0x0801cbb4        0xd C:\Users\error414\AppData\Local\Temp\stm32-chibios.0UTc6U.ltrans0.ltrans.o
 *fill*         0x0801cbc1        0x3 
 .rodata.__func__.1.lto_priv.7
                0x0801cbc4        0xc C:\Users\error414\AppData\Local\Temp\stm32-chibios.0UTc6U.ltrans0.ltrans.o
 .rodata.__func__.1.lto_priv.8
                0x0801cbd0        0xd C:\Users\error414\AppData\Local\Temp\stm32-chibios.0UTc6U.ltrans0.ltrans.o
 *fill*         0x0801cbdd        0x3 
 .rodata.__func__.1.lto_priv.9
                0x0801cbe0        0xc C:\Users\error414\AppData\Local\Temp\stm32-chibios.0UTc6U.ltrans0.ltrans.o
 .rodata.__func__.12
                0x0801cbec       0x12 C:\Users\error414\AppData\Local\Temp\stm32-chibios.0UTc6U.ltrans0.ltrans.o
 *fill*         0x0801cbfe        0x2 
 .rodata.__func__.14
                0x0801cc00        0xc C:\Users\error414\AppData\Local\Temp\stm32-chibios.0UTc6U.ltrans0.ltrans.o
 .rodata.__func__.15
                0x0801cc0c        0xc C:\Users\error414\AppData\Local\Temp\stm32-chibios.0UTc6U.ltrans0.ltrans.o
 .rodata.__func__.16.lto_priv.0
                0x0801cc18        0x9 C:\Users\error414\AppData\Local\Temp\stm32-chibios.0UTc6U.ltrans0.ltrans.o
 *fill*         0x0801cc21        0x3 
 .rodata.__func__.16.lto_priv.1
                0x0801cc24       0x16 C:\Users\error414\AppData\Local\Temp\stm32-chibios.0UTc6U.ltrans0.ltrans.o
 *fill*         0x0801cc3a        0x2 
 .rodata.__func__.2.lto_priv.0
                0x0801cc3c        0xd C:\Users\error414\AppData\Local\Temp\stm32-chibios.0UTc6U.ltrans0.ltrans.o
 *fill*         0x0801cc49        0x3 
 .rodata.__func__.2.lto_priv.1
                0x0801cc4c        0xe C:\Users\error414\AppData\Local\Temp\stm32-chibios.0UTc6U.ltrans0.ltrans.o
 *fill*         0x0801cc5a        0x2 
 .rodata.__func__.2.lto_priv.2
                0x0801cc5c       0x10 C:\Users\error414\AppData\Local\Temp\stm32-chibios.0UTc6U.ltrans0.ltrans.o
 .rodata.__func__.2.lto_priv.3
                0x0801cc6c        0xe C:\Users\error414\AppData\Local\Temp\stm32-chibios.0UTc6U.ltrans0.ltrans.o
 *fill*         0x0801cc7a        0x2 
 .rodata.__func__.2.lto_priv.4
                0x0801cc7c        0xd C:\Users\error414\AppData\Local\Temp\stm32-chibios.0UTc6U.ltrans0.ltrans.o
 *fill*         0x0801cc89        0x3 
 .rodata.__func__.2.lto_priv.5
                0x0801cc8c        0xe C:\Users\error414\AppData\Local\Temp\stm32-chibios.0UTc6U.ltrans0.ltrans.o
 *fill*         0x0801cc9a        0x2 
 .rodata.__func__.2.lto_priv.6
                0x0801cc9c        0xd C:\Users\error414\AppData\Local\Temp\stm32-chibios.0UTc6U.ltrans0.ltrans.o
 *fill*         0x0801cca9        0x3 
 .rodata.__func__.2.lto_priv.7
                0x0801ccac        0xd C:\Users\error414\AppData\Local\Temp\stm32-chibios.0UTc6U.ltrans0.ltrans.o
 *fill*         0x0801ccb9        0x3 
 .rodata.__func__.2.lto_priv.8
                0x0801ccbc        0xc C:\Users\error414\AppData\Local\Temp\stm32-chibios.0UTc6U.ltrans0.ltrans.o
 .rodata.__func__.3.lto_priv.0
                0x0801ccc8        0x8 C:\Users\error414\AppData\Local\Temp\stm32-chibios.0UTc6U.ltrans0.ltrans.o
 .rodata.__func__.3.lto_priv.1
                0x0801ccd0       0x19 C:\Users\error414\AppData\Local\Temp\stm32-chibios.0UTc6U.ltrans0.ltrans.o
 *fill*         0x0801cce9        0x3 
 .rodata.__func__.3.lto_priv.2
                0x0801ccec        0xc C:\Users\error414\AppData\Local\Temp\stm32-chibios.0UTc6U.ltrans0.ltrans.o
 .rodata.__func__.3.lto_priv.3
                0x0801ccf8        0x8 C:\Users\error414\AppData\Local\Temp\stm32-chibios.0UTc6U.ltrans0.ltrans.o
 .rodata.__func__.3.lto_priv.4
                0x0801cd00        0xb C:\Users\error414\AppData\Local\Temp\stm32-chibios.0UTc6U.ltrans0.ltrans.o
 *fill*         0x0801cd0b        0x1 
 .rodata.__func__.3.lto_priv.5
                0x0801cd0c       0x13 C:\Users\error414\AppData\Local\Temp\stm32-chibios.0UTc6U.ltrans0.ltrans.o
 *fill*         0x0801cd1f        0x1 
 .rodata.__func__.3.lto_priv.6
                0x0801cd20       0x15 C:\Users\error414\AppData\Local\Temp\stm32-chibios.0UTc6U.ltrans0.ltrans.o
 *fill*         0x0801cd35        0x3 
 .rodata.__func__.3.lto_priv.7
                0x0801cd38        0xb C:\Users\error414\AppData\Local\Temp\stm32-chibios.0UTc6U.ltrans0.ltrans.o
 *fill*         0x0801cd43        0x1 
 .rodata.__func__.3.lto_priv.8
                0x0801cd44       0x15 C:\Users\error414\AppData\Local\Temp\stm32-chibios.0UTc6U.ltrans0.ltrans.o
 *fill*         0x0801cd59        0x3 
 .rodata.__func__.3.lto_priv.9
                0x0801cd5c        0xd C:\Users\error414\AppData\Local\Temp\stm32-chibios.0UTc6U.ltrans0.ltrans.o
 *fill*         0x0801cd69        0x3 
 .rodata.__func__.4.lto_priv.0
                0x0801cd6c        0xc C:\Users\error414\AppData\Local\Temp\stm32-chibios.0UTc6U.ltrans0.ltrans.o
 .rodata.__func__.4.lto_priv.1
                0x0801cd78        0x8 C:\Users\error414\AppData\Local\Temp\stm32-chibios.0UTc6U.ltrans0.ltrans.o
 .rodata.__func__.4.lto_priv.2
                0x0801cd80        0xe C:\Users\error414\AppData\Local\Temp\stm32-chibios.0UTc6U.ltrans0.ltrans.o
 *fill*         0x0801cd8e        0x2 
 .rodata.__func__.4.lto_priv.3
                0x0801cd90        0xc C:\Users\error414\AppData\Local\Temp\stm32-chibios.0UTc6U.ltrans0.ltrans.o
 .rodata.__func__.4.lto_priv.4
                0x0801cd9c       0x12 C:\Users\error414\AppData\Local\Temp\stm32-chibios.0UTc6U.ltrans0.ltrans.o
 *fill*         0x0801cdae        0x2 
 .rodata.__func__.4.lto_priv.5
                0x0801cdb0        0xc C:\Users\error414\AppData\Local\Temp\stm32-chibios.0UTc6U.ltrans0.ltrans.o
 .rodata.__func__.4.lto_priv.6
                0x0801cdbc       0x10 C:\Users\error414\AppData\Local\Temp\stm32-chibios.0UTc6U.ltrans0.ltrans.o
 .rodata.__func__.5.lto_priv.0
                0x0801cdcc        0x8 C:\Users\error414\AppData\Local\Temp\stm32-chibios.0UTc6U.ltrans0.ltrans.o
 .rodata.__func__.5.lto_priv.1
                0x0801cdd4        0x5 C:\Users\error414\AppData\Local\Temp\stm32-chibios.0UTc6U.ltrans0.ltrans.o
 *fill*         0x0801cdd9        0x3 
 .rodata.__func__.5.lto_priv.2
                0x0801cddc        0xc C:\Users\error414\AppData\Local\Temp\stm32-chibios.0UTc6U.ltrans0.ltrans.o
 .rodata.__func__.5.lto_priv.3
                0x0801cde8        0xb C:\Users\error414\AppData\Local\Temp\stm32-chibios.0UTc6U.ltrans0.ltrans.o
 *fill*         0x0801cdf3        0x1 
 .rodata.__func__.5.lto_priv.4
                0x0801cdf4       0x10 C:\Users\error414\AppData\Local\Temp\stm32-chibios.0UTc6U.ltrans0.ltrans.o
 .rodata.__func__.5.lto_priv.5
                0x0801ce04       0x11 C:\Users\error414\AppData\Local\Temp\stm32-chibios.0UTc6U.ltrans0.ltrans.o
 *fill*         0x0801ce15        0x3 
 .rodata.__func__.5.lto_priv.6
                0x0801ce18       0x18 C:\Users\error414\AppData\Local\Temp\stm32-chibios.0UTc6U.ltrans0.ltrans.o
 .rodata.__func__.6
                0x0801ce30        0xc C:\Users\error414\AppData\Local\Temp\stm32-chibios.0UTc6U.ltrans0.ltrans.o
 .rodata.__func__.7.lto_priv.0
                0x0801ce3c        0x9 C:\Users\error414\AppData\Local\Temp\stm32-chibios.0UTc6U.ltrans0.ltrans.o
 *fill*         0x0801ce45        0x3 
 .rodata.__func__.7.lto_priv.1
                0x0801ce48        0xa C:\Users\error414\AppData\Local\Temp\stm32-chibios.0UTc6U.ltrans0.ltrans.o
 *fill*         0x0801ce52        0x2 
 .rodata.__func__.7.lto_priv.2
                0x0801ce54        0xc C:\Users\error414\AppData\Local\Temp\stm32-chibios.0UTc6U.ltrans0.ltrans.o
 .rodata.__func__.7.lto_priv.3
                0x0801ce60        0xc C:\Users\error414\AppData\Local\Temp\stm32-chibios.0UTc6U.ltrans0.ltrans.o
 .rodata.__func__.8.lto_priv.0
                0x0801ce6c        0xb C:\Users\error414\AppData\Local\Temp\stm32-chibios.0UTc6U.ltrans0.ltrans.o
 *fill*         0x0801ce77        0x1 
 .rodata.__func__.8.lto_priv.1
                0x0801ce78       0x10 C:\Users\error414\AppData\Local\Temp\stm32-chibios.0UTc6U.ltrans0.ltrans.o
 .rodata.__func__.9
                0x0801ce88        0xd C:\Users\error414\AppData\Local\Temp\stm32-chibios.0UTc6U.ltrans0.ltrans.o
 *fill*         0x0801ce95        0x3 
 .rodata._stm32_dma_streams
                0x0801ce98       0xc0 C:\Users\error414\AppData\Local\Temp\stm32-chibios.0UTc6U.ltrans0.ltrans.o
 .rodata.ch_core0_cfg
                0x0801cf58       0x14 C:\Users\error414\AppData\Local\Temp\stm32-chibios.0UTc6U.ltrans0.ltrans.o
 .rodata.ch_debug
                0x0801cf6c       0x16 C:\Users\error414\AppData\Local\Temp\stm32-chibios.0UTc6U.ltrans0.ltrans.o
 *fill*         0x0801cf82        0x2 
 .rodata.cmaps  0x0801cf84       0x28 C:\Users\error414\AppData\Local\Temp\stm32-chibios.0UTc6U.ltrans0.ltrans.o
 .rodata.default_config
                0x0801cfac        0xc C:\Users\error414\AppData\Local\Temp\stm32-chibios.0UTc6U.ltrans0.ltrans.o
 .rodata.glyph_dsc
                0x0801cfb8      0x4d8 C:\Users\error414\AppData\Local\Temp\stm32-chibios.0UTc6U.ltrans0.ltrans.o
 .rodata.gylph_bitmap
                0x0801d490     0x219a C:\Users\error414\AppData\Local\Temp\stm32-chibios.0UTc6U.ltrans0.ltrans.o
 *fill*         0x0801f62a        0x2 
 .rodata.kern_class_values
                0x0801f62c      0xbad C:\Users\error414\AppData\Local\Temp\stm32-chibios.0UTc6U.ltrans0.ltrans.o
 *fill*         0x080201d9        0x3 
 .rodata.kern_classes
                0x080201dc       0x10 C:\Users\error414\AppData\Local\Temp\stm32-chibios.0UTc6U.ltrans0.ltrans.o
 .rodata.kern_left_class_mapping
                0x080201ec       0x9b C:\Users\error414\AppData\Local\Temp\stm32-chibios.0UTc6U.ltrans0.ltrans.o
 *fill*         0x08020287        0x1 
 .rodata.kern_right_class_mapping
                0x08020288       0x9b C:\Users\error414\AppData\Local\Temp\stm32-chibios.0UTc6U.ltrans0.ltrans.o
 *fill*         0x08020323        0x1 
 .rodata.pow10  0x08020324       0x24 C:\Users\error414\AppData\Local\Temp\stm32-chibios.0UTc6U.ltrans0.ltrans.o
 .rodata.ram_areas
                0x08020348       0x80 C:\Users\error414\AppData\Local\Temp\stm32-chibios.0UTc6U.ltrans0.ltrans.o
 .rodata.unicode_list_1
                0x080203c8       0x76 C:\Users\error414\AppData\Local\Temp\stm32-chibios.0UTc6U.ltrans0.ltrans.o
 *fill*         0x0802043e        0x2 
 .rodata.vmt.lto_priv.0
                0x08020440       0x28 C:\Users\error414\AppData\Local\Temp\stm32-chibios.0UTc6U.ltrans0.ltrans.o
 .rodata.vmt.lto_priv.1
                0x08020468       0x18 C:\Users\error414\AppData\Local\Temp\stm32-chibios.0UTc6U.ltrans0.ltrans.o
 .rodata.lv_draw_img.str1.4
                0x08020480        0x8 C:\Users\error414\AppData\Local\Temp\stm32-chibios.0UTc6U.ltrans1.ltrans.o
 .rodata._lv_bpp1_opa_table
                0x08020488        0x2 C:\Users\error414\AppData\Local\Temp\stm32-chibios.0UTc6U.ltrans1.ltrans.o
 *fill*         0x0802048a        0x2 
 .rodata._lv_bpp2_opa_table
                0x0802048c        0x4 C:\Users\error414\AppData\Local\Temp\stm32-chibios.0UTc6U.ltrans1.ltrans.o
 .rodata._lv_bpp4_opa_table
                0x08020490       0x10 C:\Users\error414\AppData\Local\Temp\stm32-chibios.0UTc6U.ltrans1.ltrans.o
 .rodata._lv_bpp8_opa_table
                0x080204a0      0x100 C:\Users\error414\AppData\Local\Temp\stm32-chibios.0UTc6U.ltrans1.ltrans.o
 .rodata._lv_txt_encoded_get_char_id
                0x080205a0        0x4 C:\Users\error414\AppData\Local\Temp\stm32-chibios.0UTc6U.ltrans1.ltrans.o
                0x080205a0                _lv_txt_encoded_get_char_id
 .rodata._lv_txt_encoded_next
                0x080205a4        0x4 C:\Users\error414\AppData\Local\Temp\stm32-chibios.0UTc6U.ltrans1.ltrans.o
                0x080205a4                _lv_txt_encoded_next
 .rodata.wcorr.0
                0x080205a8       0x21 C:\Users\error414\AppData\Local\Temp\stm32-chibios.0UTc6U.ltrans1.ltrans.o
 *fill*         0x080205c9        0x3 
 .rodata.calendar_init.str1.4
                0x080205cc        0x4 C:\Users\error414\AppData\Local\Temp\stm32-chibios.0UTc6U.ltrans2.ltrans.o
 .rodata.lv_cont_signal.str1.4
                0x080205d0        0x8 C:\Users\error414\AppData\Local\Temp\stm32-chibios.0UTc6U.ltrans2.ltrans.o
 .rodata.lv_chart_signal.str1.4
                0x080205d8        0x9 C:\Users\error414\AppData\Local\Temp\stm32-chibios.0UTc6U.ltrans2.ltrans.o
 *fill*         0x080205e1        0x3 
 .rodata.lv_txt_get_next_word.str1.4
                0x080205e4        0x8 C:\Users\error414\AppData\Local\Temp\stm32-chibios.0UTc6U.ltrans2.ltrans.o
 .rodata._lv_txt_encoded_size
                0x080205ec        0x4 C:\Users\error414\AppData\Local\Temp\stm32-chibios.0UTc6U.ltrans2.ltrans.o
                0x080205ec                _lv_txt_encoded_size
 .rodata.sin0_90_table
                0x080205f0       0xb6 C:\Users\error414\AppData\Local\Temp\stm32-chibios.0UTc6U.ltrans2.ltrans.o
 *fill*         0x080206a6        0x2 
 .rodata.lv_img_signal.lto_priv.0.str1.4
                0x080206a8        0x7 C:\Users\error414\AppData\Local\Temp\stm32-chibios.0UTc6U.ltrans3.ltrans.o
 *fill*         0x080206af        0x1 
 .rodata.lv_line_signal.str1.4
                0x080206b0        0x8 C:\Users\error414\AppData\Local\Temp\stm32-chibios.0UTc6U.ltrans3.ltrans.o
 .rodata.lv_label_signal.str1.4
                0x080206b8        0x9 C:\Users\error414\AppData\Local\Temp\stm32-chibios.0UTc6U.ltrans3.ltrans.o
 *fill*         0x080206c1        0x3 
 .rodata.guiFillMainHeader.str1.4
                0x080206c4        0x6 C:\Users\error414\AppData\Local\Temp\stm32-chibios.0UTc6U.ltrans3.ltrans.o
 *fill*         0x080206ca        0x2 
 .rodata.lv_label_create.str1.4
                0x080206cc        0x5 C:\Users\error414\AppData\Local\Temp\stm32-chibios.0UTc6U.ltrans3.ltrans.o
 *fill*         0x080206d1        0x3 
 .rodata.parse_arguments.str1.4
                0x080206d4        0x3 C:\Users\error414\AppData\Local\Temp\stm32-chibios.0UTc6U.ltrans3.ltrans.o
 *fill*         0x080206d7        0x1 
 .rodata.list_commands.str1.4
                0x080206d8        0x4 C:\Users\error414\AppData\Local\Temp\stm32-chibios.0UTc6U.ltrans3.ltrans.o
 .rodata.shellGetLine.str1.4
                0x080206dc        0x4 C:\Users\error414\AppData\Local\Temp\stm32-chibios.0UTc6U.ltrans3.ltrans.o
                                  0x3 (size before relaxing)
 .rodata.cmd_values.str1.4
                0x080206dc       0x27 C:\Users\error414\AppData\Local\Temp\stm32-chibios.0UTc6U.ltrans3.ltrans.o
 *fill*         0x08020703        0x1 
 .rodata.cmd_hw.str1.4
                0x08020704       0x18 C:\Users\error414\AppData\Local\Temp\stm32-chibios.0UTc6U.ltrans3.ltrans.o
 .rodata.cmd_threads.str1.4
                0x0802071c       0xbf C:\Users\error414\AppData\Local\Temp\stm32-chibios.0UTc6U.ltrans3.ltrans.o
                                 0xc3 (size before relaxing)
 *fill*         0x080207db        0x1 
 .rodata.cmd_mem.str1.4
                0x080207dc       0x7a C:\Users\error414\AppData\Local\Temp\stm32-chibios.0UTc6U.ltrans3.ltrans.o
 *fill*         0x08020856        0x2 
 .rodata.guiFillForecast.str1.4
                0x08020858        0xd C:\Users\error414\AppData\Local\Temp\stm32-chibios.0UTc6U.ltrans3.ltrans.o
 *fill*         0x08020865        0x3 
 .rodata.guiInitInside.str1.4
                0x08020868       0x16 C:\Users\error414\AppData\Local\Temp\stm32-chibios.0UTc6U.ltrans3.ltrans.o
 *fill*         0x0802087e        0x2 
 .rodata.guiFillInsideAll.str1.4
                0x08020880        0x3 C:\Users\error414\AppData\Local\Temp\stm32-chibios.0UTc6U.ltrans3.ltrans.o
 *fill*         0x08020883        0x1 
 .rodata.guiFillOutsideAll.str1.4
                0x08020884        0x6 C:\Users\error414\AppData\Local\Temp\stm32-chibios.0UTc6U.ltrans3.ltrans.o
                                  0xa (size before relaxing)
 *fill*         0x0802088a        0x2 
 .rodata.MSP__createMspFrame.str1.4
                0x0802088c        0x4 C:\Users\error414\AppData\Local\Temp\stm32-chibios.0UTc6U.ltrans3.ltrans.o
 .rodata.registerHwThread.str1.4
                0x08020890        0xb C:\Users\error414\AppData\Local\Temp\stm32-chibios.0UTc6U.ltrans3.ltrans.o
 *fill*         0x0802089b        0x1 
 .rodata.shellThread.str1.4
                0x0802089c       0x5d C:\Users\error414\AppData\Local\Temp\stm32-chibios.0UTc6U.ltrans3.ltrans.o
 *fill*         0x080208f9        0x3 
 .rodata.Bmp280Thread.str1.4
                0x080208fc       0x31 C:\Users\error414\AppData\Local\Temp\stm32-chibios.0UTc6U.ltrans3.ltrans.o
 *fill*         0x0802092d        0x3 
 .rodata.guiThread.str1.4
                0x08020930       0x4b C:\Users\error414\AppData\Local\Temp\stm32-chibios.0UTc6U.ltrans3.ltrans.o
 *fill*         0x0802097b        0x1 
 .rodata.HC12__thread_checkStatus.str1.4
                0x0802097c        0x3 C:\Users\error414\AppData\Local\Temp\stm32-chibios.0UTc6U.ltrans3.ltrans.o
 *fill*         0x0802097f        0x1 
 .rodata.hc12StreamRXMSPThread.str1.4
                0x08020980       0x10 C:\Users\error414\AppData\Local\Temp\stm32-chibios.0UTc6U.ltrans3.ltrans.o
 .rodata.hc12StreamTXThread.str1.4
                0x08020990       0x15 C:\Users\error414\AppData\Local\Temp\stm32-chibios.0UTc6U.ltrans3.ltrans.o
 *fill*         0x080209a5        0x3 
 .rodata.HC12__thread_reconfigure.str1.4
                0x080209a8       0x27 C:\Users\error414\AppData\Local\Temp\stm32-chibios.0UTc6U.ltrans3.ltrans.o
 *fill*         0x080209cf        0x1 
 .rodata.cmd_hc12Set.str1.4
                0x080209d0        0x6 C:\Users\error414\AppData\Local\Temp\stm32-chibios.0UTc6U.ltrans3.ltrans.o
 *fill*         0x080209d6        0x2 
 .rodata.mspParserThread.str1.4
                0x080209d8        0xa C:\Users\error414\AppData\Local\Temp\stm32-chibios.0UTc6U.ltrans3.ltrans.o
 *fill*         0x080209e2        0x2 
 .rodata.str1.4
                0x080209e4       0xf8 C:\Users\error414\AppData\Local\Temp\stm32-chibios.0UTc6U.ltrans3.ltrans.o
 .rodata.__func__.0.lto_priv.13
                0x08020adc        0xc C:\Users\error414\AppData\Local\Temp\stm32-chibios.0UTc6U.ltrans3.ltrans.o
 .rodata.__func__.0.lto_priv.14
                0x08020ae8        0xc C:\Users\error414\AppData\Local\Temp\stm32-chibios.0UTc6U.ltrans3.ltrans.o
 .rodata.__func__.0.lto_priv.15
                0x08020af4        0xc C:\Users\error414\AppData\Local\Temp\stm32-chibios.0UTc6U.ltrans3.ltrans.o
 .rodata.__func__.0.lto_priv.16
                0x08020b00        0xc C:\Users\error414\AppData\Local\Temp\stm32-chibios.0UTc6U.ltrans3.ltrans.o
 .rodata.__func__.0.lto_priv.17
                0x08020b0c        0xc C:\Users\error414\AppData\Local\Temp\stm32-chibios.0UTc6U.ltrans3.ltrans.o
 .rodata.cmaps.lto_priv.0
                0x08020b18       0x28 C:\Users\error414\AppData\Local\Temp\stm32-chibios.0UTc6U.ltrans3.ltrans.o
 .rodata.cmaps.lto_priv.1
                0x08020b40       0x64 C:\Users\error414\AppData\Local\Temp\stm32-chibios.0UTc6U.ltrans3.ltrans.o
 .rodata.cmaps.lto_priv.2
                0x08020ba4       0x14 C:\Users\error414\AppData\Local\Temp\stm32-chibios.0UTc6U.ltrans3.ltrans.o
 .rodata.cmaps.lto_priv.3
                0x08020bb8       0x50 C:\Users\error414\AppData\Local\Temp\stm32-chibios.0UTc6U.ltrans3.ltrans.o
 .rodata.cmaps.lto_priv.4
                0x08020c08       0x50 C:\Users\error414\AppData\Local\Temp\stm32-chibios.0UTc6U.ltrans3.ltrans.o
 .rodata.cmaps.lto_priv.5
                0x08020c58       0x50 C:\Users\error414\AppData\Local\Temp\stm32-chibios.0UTc6U.ltrans3.ltrans.o
 .rodata.dayNameList
                0x08020ca8       0x1c C:\Users\error414\AppData\Local\Temp\stm32-chibios.0UTc6U.ltrans3.ltrans.o
 .rodata.fc_clear
                0x08020cc4        0xc C:\Users\error414\AppData\Local\Temp\stm32-chibios.0UTc6U.ltrans3.ltrans.o
 .rodata.fc_clear_map
                0x08020cd0      0x1f8 C:\Users\error414\AppData\Local\Temp\stm32-chibios.0UTc6U.ltrans3.ltrans.o
 .rodata.fc_cloud
                0x08020ec8        0xc C:\Users\error414\AppData\Local\Temp\stm32-chibios.0UTc6U.ltrans3.ltrans.o
 .rodata.fc_cloud_map
                0x08020ed4      0x1f8 C:\Users\error414\AppData\Local\Temp\stm32-chibios.0UTc6U.ltrans3.ltrans.o
 .rodata.fc_drizzle
                0x080210cc        0xc C:\Users\error414\AppData\Local\Temp\stm32-chibios.0UTc6U.ltrans3.ltrans.o
 .rodata.fc_drizzle_map
                0x080210d8      0x1f8 C:\Users\error414\AppData\Local\Temp\stm32-chibios.0UTc6U.ltrans3.ltrans.o
 .rodata.fc_part_clound
                0x080212d0        0xc C:\Users\error414\AppData\Local\Temp\stm32-chibios.0UTc6U.ltrans3.ltrans.o
 .rodata.fc_part_clound_map
                0x080212dc      0x1f8 C:\Users\error414\AppData\Local\Temp\stm32-chibios.0UTc6U.ltrans3.ltrans.o
 .rodata.fc_rain
                0x080214d4        0xc C:\Users\error414\AppData\Local\Temp\stm32-chibios.0UTc6U.ltrans3.ltrans.o
 .rodata.fc_rain_map
                0x080214e0      0x1f8 C:\Users\error414\AppData\Local\Temp\stm32-chibios.0UTc6U.ltrans3.ltrans.o
 .rodata.fc_snow
                0x080216d8        0xc C:\Users\error414\AppData\Local\Temp\stm32-chibios.0UTc6U.ltrans3.ltrans.o
 .rodata.fc_snow_map
                0x080216e4      0x1f8 C:\Users\error414\AppData\Local\Temp\stm32-chibios.0UTc6U.ltrans3.ltrans.o
 .rodata.fc_thunderstorm
                0x080218dc        0xc C:\Users\error414\AppData\Local\Temp\stm32-chibios.0UTc6U.ltrans3.ltrans.o
 .rodata.fc_thunderstorm_map
                0x080218e8      0x1f8 C:\Users\error414\AppData\Local\Temp\stm32-chibios.0UTc6U.ltrans3.ltrans.o
 .rodata.glyph_bitmap.lto_priv.0
                0x08021ae0      0x480 C:\Users\error414\AppData\Local\Temp\stm32-chibios.0UTc6U.ltrans3.ltrans.o
 .rodata.glyph_bitmap.lto_priv.1
                0x08021f60      0x2ef C:\Users\error414\AppData\Local\Temp\stm32-chibios.0UTc6U.ltrans3.ltrans.o
 *fill*         0x0802224f        0x1 
 .rodata.glyph_bitmap.lto_priv.2
                0x08022250      0xb80 C:\Users\error414\AppData\Local\Temp\stm32-chibios.0UTc6U.ltrans3.ltrans.o
 .rodata.glyph_bitmap.lto_priv.3
                0x08022dd0     0x1a2c C:\Users\error414\AppData\Local\Temp\stm32-chibios.0UTc6U.ltrans3.ltrans.o
 .rodata.glyph_bitmap.lto_priv.4
                0x080247fc     0x6580 C:\Users\error414\AppData\Local\Temp\stm32-chibios.0UTc6U.ltrans3.ltrans.o
 .rodata.glyph_dsc.lto_priv.0
                0x0802ad7c      0x4d8 C:\Users\error414\AppData\Local\Temp\stm32-chibios.0UTc6U.ltrans3.ltrans.o
 .rodata.glyph_dsc.lto_priv.1
                0x0802b254      0x590 C:\Users\error414\AppData\Local\Temp\stm32-chibios.0UTc6U.ltrans3.ltrans.o
 .rodata.glyph_dsc.lto_priv.2
                0x0802b7e4      0x308 C:\Users\error414\AppData\Local\Temp\stm32-chibios.0UTc6U.ltrans3.ltrans.o
 .rodata.glyph_dsc.lto_priv.3
                0x0802baec      0x670 C:\Users\error414\AppData\Local\Temp\stm32-chibios.0UTc6U.ltrans3.ltrans.o
 .rodata.glyph_dsc.lto_priv.4
                0x0802c15c      0x670 C:\Users\error414\AppData\Local\Temp\stm32-chibios.0UTc6U.ltrans3.ltrans.o
 .rodata.glyph_dsc.lto_priv.5
                0x0802c7cc      0x670 C:\Users\error414\AppData\Local\Temp\stm32-chibios.0UTc6U.ltrans3.ltrans.o
 .rodata.gpio_default_config
                0x0802ce3c       0xa8 C:\Users\error414\AppData\Local\Temp\stm32-chibios.0UTc6U.ltrans3.ltrans.o
 .rodata.gylph_bitmap
                0x0802cee4     0x1961 C:\Users\error414\AppData\Local\Temp\stm32-chibios.0UTc6U.ltrans3.ltrans.o
 *fill*         0x0802e845        0x3 
 .rodata.hs_spicfg1
                0x0802e848       0x14 C:\Users\error414\AppData\Local\Temp\stm32-chibios.0UTc6U.ltrans3.ltrans.o
 .rodata.humidity36
                0x0802e85c        0xc C:\Users\error414\AppData\Local\Temp\stm32-chibios.0UTc6U.ltrans3.ltrans.o
 .rodata.humidity36_map
                0x0802e868       0xb4 C:\Users\error414\AppData\Local\Temp\stm32-chibios.0UTc6U.ltrans3.ltrans.o
 .rodata.i2cfg1
                0x0802e91c        0xc C:\Users\error414\AppData\Local\Temp\stm32-chibios.0UTc6U.ltrans3.ltrans.o
 .rodata.kern_class_values
                0x0802e928      0xbad C:\Users\error414\AppData\Local\Temp\stm32-chibios.0UTc6U.ltrans3.ltrans.o
 *fill*         0x0802f4d5        0x3 
 .rodata.kern_classes
                0x0802f4d8       0x10 C:\Users\error414\AppData\Local\Temp\stm32-chibios.0UTc6U.ltrans3.ltrans.o
 .rodata.kern_left_class_mapping
                0x0802f4e8       0x9b C:\Users\error414\AppData\Local\Temp\stm32-chibios.0UTc6U.ltrans3.ltrans.o
 *fill*         0x0802f583        0x1 
 .rodata.kern_right_class_mapping
                0x0802f584       0x9b C:\Users\error414\AppData\Local\Temp\stm32-chibios.0UTc6U.ltrans3.ltrans.o
 *fill*         0x0802f61f        0x1 
 .rodata.no_rain36
                0x0802f620        0xc C:\Users\error414\AppData\Local\Temp\stm32-chibios.0UTc6U.ltrans3.ltrans.o
 .rodata.no_rain36_map
                0x0802f62c       0xaf C:\Users\error414\AppData\Local\Temp\stm32-chibios.0UTc6U.ltrans3.ltrans.o
 *fill*         0x0802f6db        0x1 
 .rodata.pressure36
                0x0802f6dc        0xc C:\Users\error414\AppData\Local\Temp\stm32-chibios.0UTc6U.ltrans3.ltrans.o
 .rodata.pressure36_map
                0x0802f6e8       0xb4 C:\Users\error414\AppData\Local\Temp\stm32-chibios.0UTc6U.ltrans3.ltrans.o
 .rodata.rain36
                0x0802f79c        0xc C:\Users\error414\AppData\Local\Temp\stm32-chibios.0UTc6U.ltrans3.ltrans.o
 .rodata.rain36_map
                0x0802f7a8       0xb4 C:\Users\error414\AppData\Local\Temp\stm32-chibios.0UTc6U.ltrans3.ltrans.o
 .rodata.sd2cfg
                0x0802f85c        0xc C:\Users\error414\AppData\Local\Temp\stm32-chibios.0UTc6U.ltrans3.ltrans.o
 .rodata.sd6cfg
                0x0802f868        0xc C:\Users\error414\AppData\Local\Temp\stm32-chibios.0UTc6U.ltrans3.ltrans.o
 .rodata.shellCommands
                0x0802f874       0x30 C:\Users\error414\AppData\Local\Temp\stm32-chibios.0UTc6U.ltrans3.ltrans.o
 .rodata.states.0
                0x0802f8a4       0x40 C:\Users\error414\AppData\Local\Temp\stm32-chibios.0UTc6U.ltrans3.ltrans.o
 .rodata.states.1
                0x0802f8e4        0xc C:\Users\error414\AppData\Local\Temp\stm32-chibios.0UTc6U.ltrans3.ltrans.o
 .rodata.sun36  0x0802f8f0        0xc C:\Users\error414\AppData\Local\Temp\stm32-chibios.0UTc6U.ltrans3.ltrans.o
 .rodata.sun36_map
                0x0802f8fc       0xb4 C:\Users\error414\AppData\Local\Temp\stm32-chibios.0UTc6U.ltrans3.ltrans.o
 .rodata.temp   0x0802f9b0        0xc C:\Users\error414\AppData\Local\Temp\stm32-chibios.0UTc6U.ltrans3.ltrans.o
 .rodata.temp_map
                0x0802f9bc       0x92 C:\Users\error414\AppData\Local\Temp\stm32-chibios.0UTc6U.ltrans3.ltrans.o
 *fill*         0x0802fa4e        0x2 
 .rodata.type.2
                0x0802fa50        0x8 C:\Users\error414\AppData\Local\Temp\stm32-chibios.0UTc6U.ltrans3.ltrans.o
 .rodata.unicode_list_1.lto_priv.0
                0x0802fa58       0x76 C:\Users\error414\AppData\Local\Temp\stm32-chibios.0UTc6U.ltrans3.ltrans.o
 *fill*         0x0802face        0x2 
 .rodata.unicode_list_1.lto_priv.1
                0x0802fad0        0xc C:\Users\error414\AppData\Local\Temp\stm32-chibios.0UTc6U.ltrans3.ltrans.o
 .rodata.unicode_list_1.lto_priv.2
                0x0802fadc        0xc C:\Users\error414\AppData\Local\Temp\stm32-chibios.0UTc6U.ltrans3.ltrans.o
 .rodata.unicode_list_1.lto_priv.3
                0x0802fae8        0xc C:\Users\error414\AppData\Local\Temp\stm32-chibios.0UTc6U.ltrans3.ltrans.o
 .rodata.unicode_list_2
                0x0802faf4        0xa C:\Users\error414\AppData\Local\Temp\stm32-chibios.0UTc6U.ltrans3.ltrans.o
 *fill*         0x0802fafe        0x2 
 .rodata.unicode_list_3.lto_priv.0
                0x0802fb00        0xa C:\Users\error414\AppData\Local\Temp\stm32-chibios.0UTc6U.ltrans3.ltrans.o
 *fill*         0x0802fb0a        0x2 
 .rodata.unicode_list_3.lto_priv.1
                0x0802fb0c        0xa C:\Users\error414\AppData\Local\Temp\stm32-chibios.0UTc6U.ltrans3.ltrans.o
 *fill*         0x0802fb16        0x2 
 .rodata.unicode_list_3.lto_priv.2
                0x0802fb18        0xa C:\Users\error414\AppData\Local\Temp\stm32-chibios.0UTc6U.ltrans3.ltrans.o
 *fill*         0x0802fb22        0x2 
 .rodata.uv36   0x0802fb24        0xc C:\Users\error414\AppData\Local\Temp\stm32-chibios.0UTc6U.ltrans3.ltrans.o
 .rodata.uv36_map
                0x0802fb30       0xb4 C:\Users\error414\AppData\Local\Temp\stm32-chibios.0UTc6U.ltrans3.ltrans.o
 .rodata.wind36
                0x0802fbe4        0xc C:\Users\error414\AppData\Local\Temp\stm32-chibios.0UTc6U.ltrans3.ltrans.o
 .rodata.wind36_map
                0x0802fbf0       0xb4 C:\Users\error414\AppData\Local\Temp\stm32-chibios.0UTc6U.ltrans3.ltrans.o
 .rodata._ctype_
                0x0802fca4      0x101 c:/users/error414/documents/stm32-tools/gcc-arm-none-eabi-10-2020-q4-major/bin/../lib/gcc/arm-none-eabi/10.2.1/../../../../arm-none-eabi/lib/thumb/v7e-m/nofp\libg.a(lib_a-ctype_.o)
                0x0802fca4                _ctype_
                0x0802fda8                . = ALIGN (0x4)
 *fill*         0x0802fda5        0x3 
                0x0802fda8                __rodata_end__ = .

.ARM.extab      0x0802fda8        0x0
 *(.ARM.extab* .gnu.linkonce.armextab.*)
 .ARM.extab     0x0802fda8        0x0 c:/users/error414/documents/stm32-tools/gcc-arm-none-eabi-10-2020-q4-major/bin/../lib/gcc/arm-none-eabi/10.2.1/thumb/v7e-m/nofp\libgcc.a(_udivmoddi4.o)

.ARM.exidx      0x0802fda8        0x8
                0x0802fda8                __exidx_base__ = .
                0x0802fda8                __exidx_start = .
 *(.ARM.exidx* .gnu.linkonce.armexidx.*)
 .ARM.exidx     0x0802fda8        0x8 c:/users/error414/documents/stm32-tools/gcc-arm-none-eabi-10-2020-q4-major/bin/../lib/gcc/arm-none-eabi/10.2.1/thumb/v7e-m/nofp\libgcc.a(_udivmoddi4.o)
                0x0802fdb0                __exidx_end__ = .
                0x0802fdb0                __exidx_end = .

.rel.dyn        0x0802fdb0        0x0
 .rel.iplt      0x0802fdb0        0x0 CMakeFiles/stm32-chibios.dir/C_/Users/error414/Documents/STM32/meteo-F4/ChibiOS/os/common/startup/ARMCMx/compilers/GCC/crt0_v7m.S.obj

.eh_frame_hdr
 *(.eh_frame_hdr)

.eh_frame
 *(.eh_frame)

.data           0x20000320      0x238 load address 0x0802fdb0
                [!provide]                PROVIDE (_textdata = LOADADDR (.data))
                [!provide]                PROVIDE (_data = .)
                0x0802fdb0                __textdata_base__ = LOADADDR (.data)
                0x20000320                __data_base__ = .
 *(.data)
 .data          0x20000320        0x0 C:\Users\error414\AppData\Local\Temp\stm32-chibios.0UTc6U.ltrans0.ltrans.o
 .data          0x20000320        0x0 C:\Users\error414\AppData\Local\Temp\stm32-chibios.0UTc6U.ltrans1.ltrans.o
 .data          0x20000320        0x0 C:\Users\error414\AppData\Local\Temp\stm32-chibios.0UTc6U.ltrans2.ltrans.o
 .data          0x20000320        0x0 C:\Users\error414\AppData\Local\Temp\stm32-chibios.0UTc6U.ltrans3.ltrans.o
 .data          0x20000320        0x0 CMakeFiles/stm32-chibios.dir/C_/Users/error414/Documents/STM32/meteo-F4/ChibiOS/os/common/startup/ARMCMx/compilers/GCC/crt0_v7m.S.obj
 .data          0x20000320        0x0 CMakeFiles/stm32-chibios.dir/C_/Users/error414/Documents/STM32/meteo-F4/ChibiOS/os/common/startup/ARMCMx/compilers/GCC/vectors.S.obj
 .data          0x20000320        0x0 CMakeFiles/stm32-chibios.dir/C_/Users/error414/Documents/STM32/meteo-F4/ChibiOS/os/common/ports/ARMv7-M/compilers/GCC/chcoreasm.S.obj
 .data          0x20000320        0x0 c:/users/error414/documents/stm32-tools/gcc-arm-none-eabi-10-2020-q4-major/bin/../lib/gcc/arm-none-eabi/10.2.1/../../../../arm-none-eabi/lib/thumb/v7e-m/nofp\libg.a(lib_a-ctype_.o)
 .data          0x20000320        0x0 c:/users/error414/documents/stm32-tools/gcc-arm-none-eabi-10-2020-q4-major/bin/../lib/gcc/arm-none-eabi/10.2.1/../../../../arm-none-eabi/lib/thumb/v7e-m/nofp\libg.a(lib_a-memcmp.o)
 .data          0x20000320        0x0 c:/users/error414/documents/stm32-tools/gcc-arm-none-eabi-10-2020-q4-major/bin/../lib/gcc/arm-none-eabi/10.2.1/../../../../arm-none-eabi/lib/thumb/v7e-m/nofp\libg.a(lib_a-memcpy.o)
 .data          0x20000320        0x0 c:/users/error414/documents/stm32-tools/gcc-arm-none-eabi-10-2020-q4-major/bin/../lib/gcc/arm-none-eabi/10.2.1/../../../../arm-none-eabi/lib/thumb/v7e-m/nofp\libg.a(lib_a-strchr.o)
 .data          0x20000320        0x0 c:/users/error414/documents/stm32-tools/gcc-arm-none-eabi-10-2020-q4-major/bin/../lib/gcc/arm-none-eabi/10.2.1/../../../../arm-none-eabi/lib/thumb/v7e-m/nofp\libg.a(lib_a-strcmp.o)
 .data          0x20000320        0x0 c:/users/error414/documents/stm32-tools/gcc-arm-none-eabi-10-2020-q4-major/bin/../lib/gcc/arm-none-eabi/10.2.1/../../../../arm-none-eabi/lib/thumb/v7e-m/nofp\libg.a(lib_a-strcpy.o)
 .data          0x20000320        0x0 c:/users/error414/documents/stm32-tools/gcc-arm-none-eabi-10-2020-q4-major/bin/../lib/gcc/arm-none-eabi/10.2.1/../../../../arm-none-eabi/lib/thumb/v7e-m/nofp\libg.a(lib_a-strlen.o)
 .data          0x20000320        0x0 c:/users/error414/documents/stm32-tools/gcc-arm-none-eabi-10-2020-q4-major/bin/../lib/gcc/arm-none-eabi/10.2.1/../../../../arm-none-eabi/lib/thumb/v7e-m/nofp\libg.a(lib_a-strncpy.o)
 .data          0x20000320        0x0 c:/users/error414/documents/stm32-tools/gcc-arm-none-eabi-10-2020-q4-major/bin/../lib/gcc/arm-none-eabi/10.2.1/../../../../arm-none-eabi/lib/thumb/v7e-m/nofp\libg.a(lib_a-strpbrk.o)
 .data          0x20000320        0x0 c:/users/error414/documents/stm32-tools/gcc-arm-none-eabi-10-2020-q4-major/bin/../lib/gcc/arm-none-eabi/10.2.1/../../../../arm-none-eabi/lib/thumb/v7e-m/nofp\libg.a(lib_a-strspn.o)
 .data          0x20000320        0x0 c:/users/error414/documents/stm32-tools/gcc-arm-none-eabi-10-2020-q4-major/bin/../lib/gcc/arm-none-eabi/10.2.1/thumb/v7e-m/nofp\libgcc.a(_arm_muldf3.o)
 .data          0x20000320        0x0 c:/users/error414/documents/stm32-tools/gcc-arm-none-eabi-10-2020-q4-major/bin/../lib/gcc/arm-none-eabi/10.2.1/thumb/v7e-m/nofp\libgcc.a(_arm_mulsf3.o)
 .data          0x20000320        0x0 c:/users/error414/documents/stm32-tools/gcc-arm-none-eabi-10-2020-q4-major/bin/../lib/gcc/arm-none-eabi/10.2.1/thumb/v7e-m/nofp\libgcc.a(_arm_addsubdf3.o)
 .data          0x20000320        0x0 c:/users/error414/documents/stm32-tools/gcc-arm-none-eabi-10-2020-q4-major/bin/../lib/gcc/arm-none-eabi/10.2.1/thumb/v7e-m/nofp\libgcc.a(_arm_fixdfsi.o)
 .data          0x20000320        0x0 c:/users/error414/documents/stm32-tools/gcc-arm-none-eabi-10-2020-q4-major/bin/../lib/gcc/arm-none-eabi/10.2.1/thumb/v7e-m/nofp\libgcc.a(_arm_truncdfsf2.o)
 .data          0x20000320        0x0 c:/users/error414/documents/stm32-tools/gcc-arm-none-eabi-10-2020-q4-major/bin/../lib/gcc/arm-none-eabi/10.2.1/thumb/v7e-m/nofp\libgcc.a(_arm_addsubsf3.o)
 .data          0x20000320        0x0 c:/users/error414/documents/stm32-tools/gcc-arm-none-eabi-10-2020-q4-major/bin/../lib/gcc/arm-none-eabi/10.2.1/thumb/v7e-m/nofp\libgcc.a(_arm_muldivsf3.o)
 .data          0x20000320        0x0 c:/users/error414/documents/stm32-tools/gcc-arm-none-eabi-10-2020-q4-major/bin/../lib/gcc/arm-none-eabi/10.2.1/thumb/v7e-m/nofp\libgcc.a(_arm_cmpsf2.o)
 .data          0x20000320        0x0 c:/users/error414/documents/stm32-tools/gcc-arm-none-eabi-10-2020-q4-major/bin/../lib/gcc/arm-none-eabi/10.2.1/thumb/v7e-m/nofp\libgcc.a(_arm_fixunssfsi.o)
 .data          0x20000320        0x0 c:/users/error414/documents/stm32-tools/gcc-arm-none-eabi-10-2020-q4-major/bin/../lib/gcc/arm-none-eabi/10.2.1/thumb/v7e-m/nofp\libgcc.a(_aeabi_ldivmod.o)
 .data          0x20000320        0x0 c:/users/error414/documents/stm32-tools/gcc-arm-none-eabi-10-2020-q4-major/bin/../lib/gcc/arm-none-eabi/10.2.1/thumb/v7e-m/nofp\libgcc.a(_udivmoddi4.o)
 .data          0x20000320        0x0 c:/users/error414/documents/stm32-tools/gcc-arm-none-eabi-10-2020-q4-major/bin/../lib/gcc/arm-none-eabi/10.2.1/thumb/v7e-m/nofp\libgcc.a(_dvmd_tls.o)
 *(.data.*)
 .data.font_dsc
                0x20000320       0x20 C:\Users\error414\AppData\Local\Temp\stm32-chibios.0UTc6U.ltrans0.ltrans.o
 .data.lv_font_montserrat_14
                0x20000340       0x14 C:\Users\error414\AppData\Local\Temp\stm32-chibios.0UTc6U.ltrans0.ltrans.o
                0x20000340                lv_font_montserrat_14
 .data.mem_buf_small
                0x20000354       0x10 C:\Users\error414\AppData\Local\Temp\stm32-chibios.0UTc6U.ltrans2.ltrans.o
 .data.blackTransmission
                0x20000364        0x1 C:\Users\error414\AppData\Local\Temp\stm32-chibios.0UTc6U.ltrans3.ltrans.o
 *fill*         0x20000365        0x3 
 .data.font_dsc.lto_priv.0
                0x20000368       0x20 C:\Users\error414\AppData\Local\Temp\stm32-chibios.0UTc6U.ltrans3.ltrans.o
 .data.font_dsc.lto_priv.1
                0x20000388       0x20 C:\Users\error414\AppData\Local\Temp\stm32-chibios.0UTc6U.ltrans3.ltrans.o
 .data.font_dsc.lto_priv.2
                0x200003a8       0x20 C:\Users\error414\AppData\Local\Temp\stm32-chibios.0UTc6U.ltrans3.ltrans.o
 .data.font_dsc.lto_priv.3
                0x200003c8       0x20 C:\Users\error414\AppData\Local\Temp\stm32-chibios.0UTc6U.ltrans3.ltrans.o
 .data.font_dsc.lto_priv.4
                0x200003e8       0x20 C:\Users\error414\AppData\Local\Temp\stm32-chibios.0UTc6U.ltrans3.ltrans.o
 .data.font_dsc.lto_priv.5
                0x20000408       0x20 C:\Users\error414\AppData\Local\Temp\stm32-chibios.0UTc6U.ltrans3.ltrans.o
 .data.hc12cfg.1
                0x20000428        0x6 C:\Users\error414\AppData\Local\Temp\stm32-chibios.0UTc6U.ltrans3.ltrans.o
 *fill*         0x2000042e        0x2 
 .data.lineTopPoints1
                0x20000430        0x8 C:\Users\error414\AppData\Local\Temp\stm32-chibios.0UTc6U.ltrans3.ltrans.o
 .data.lineTopPoints2
                0x20000438        0x8 C:\Users\error414\AppData\Local\Temp\stm32-chibios.0UTc6U.ltrans3.ltrans.o
 .data.lineTopPoints3
                0x20000440        0x8 C:\Users\error414\AppData\Local\Temp\stm32-chibios.0UTc6U.ltrans3.ltrans.o
 .data.lineTopPoints4
                0x20000448        0x8 C:\Users\error414\AppData\Local\Temp\stm32-chibios.0UTc6U.ltrans3.ltrans.o
 .data.lineTopPoints5
                0x20000450        0x8 C:\Users\error414\AppData\Local\Temp\stm32-chibios.0UTc6U.ltrans3.ltrans.o
 .data.lv_font_montserrat_12
                0x20000458       0x14 C:\Users\error414\AppData\Local\Temp\stm32-chibios.0UTc6U.ltrans3.ltrans.o
 .data.registerHwMail
                0x2000046c       0x28 C:\Users\error414\AppData\Local\Temp\stm32-chibios.0UTc6U.ltrans3.ltrans.o
 .data.retro12  0x20000494       0x14 C:\Users\error414\AppData\Local\Temp\stm32-chibios.0UTc6U.ltrans3.ltrans.o
 .data.streamMemPool
                0x200004a8       0x10 C:\Users\error414\AppData\Local\Temp\stm32-chibios.0UTc6U.ltrans3.ltrans.o
 .data.streamRxMSPMail
                0x200004b8       0x28 C:\Users\error414\AppData\Local\Temp\stm32-chibios.0UTc6U.ltrans3.ltrans.o
 .data.streamTxMail
                0x200004e0       0x28 C:\Users\error414\AppData\Local\Temp\stm32-chibios.0UTc6U.ltrans3.ltrans.o
 .data.upheaval16
                0x20000508       0x14 C:\Users\error414\AppData\Local\Temp\stm32-chibios.0UTc6U.ltrans3.ltrans.o
 .data.upheaval20
                0x2000051c       0x14 C:\Users\error414\AppData\Local\Temp\stm32-chibios.0UTc6U.ltrans3.ltrans.o
 .data.upheaval30
                0x20000530       0x14 C:\Users\error414\AppData\Local\Temp\stm32-chibios.0UTc6U.ltrans3.ltrans.o
 .data.upheaval48
                0x20000544       0x14 C:\Users\error414\AppData\Local\Temp\stm32-chibios.0UTc6U.ltrans3.ltrans.o
 *(.ramtext)
                0x20000558                . = ALIGN (0x4)
                [!provide]                PROVIDE (_edata = .)
                0x20000558                __data_end__ = .

.igot.plt       0x20000558        0x0 load address 0x0802ffe8
 .igot.plt      0x20000558        0x0 CMakeFiles/stm32-chibios.dir/C_/Users/error414/Documents/STM32/meteo-F4/ChibiOS/os/common/startup/ARMCMx/compilers/GCC/crt0_v7m.S.obj

.bss            0x20000558     0xf600 load address 0x0802ffe8
                0x20000558                __bss_base__ = .
 *(.bss)
 .bss           0x20000558        0x0 C:\Users\error414\AppData\Local\Temp\stm32-chibios.0UTc6U.ltrans0.ltrans.o
 .bss           0x20000558        0x0 C:\Users\error414\AppData\Local\Temp\stm32-chibios.0UTc6U.ltrans1.ltrans.o
 .bss           0x20000558        0x0 C:\Users\error414\AppData\Local\Temp\stm32-chibios.0UTc6U.ltrans2.ltrans.o
 .bss           0x20000558        0x0 C:\Users\error414\AppData\Local\Temp\stm32-chibios.0UTc6U.ltrans3.ltrans.o
 .bss           0x20000558        0x0 CMakeFiles/stm32-chibios.dir/C_/Users/error414/Documents/STM32/meteo-F4/ChibiOS/os/common/startup/ARMCMx/compilers/GCC/crt0_v7m.S.obj
 .bss           0x20000558        0x0 CMakeFiles/stm32-chibios.dir/C_/Users/error414/Documents/STM32/meteo-F4/ChibiOS/os/common/startup/ARMCMx/compilers/GCC/vectors.S.obj
 .bss           0x20000558        0x0 CMakeFiles/stm32-chibios.dir/C_/Users/error414/Documents/STM32/meteo-F4/ChibiOS/os/common/ports/ARMv7-M/compilers/GCC/chcoreasm.S.obj
 .bss           0x20000558        0x0 c:/users/error414/documents/stm32-tools/gcc-arm-none-eabi-10-2020-q4-major/bin/../lib/gcc/arm-none-eabi/10.2.1/../../../../arm-none-eabi/lib/thumb/v7e-m/nofp\libg.a(lib_a-ctype_.o)
 .bss           0x20000558        0x0 c:/users/error414/documents/stm32-tools/gcc-arm-none-eabi-10-2020-q4-major/bin/../lib/gcc/arm-none-eabi/10.2.1/../../../../arm-none-eabi/lib/thumb/v7e-m/nofp\libg.a(lib_a-memcmp.o)
 .bss           0x20000558        0x0 c:/users/error414/documents/stm32-tools/gcc-arm-none-eabi-10-2020-q4-major/bin/../lib/gcc/arm-none-eabi/10.2.1/../../../../arm-none-eabi/lib/thumb/v7e-m/nofp\libg.a(lib_a-memcpy.o)
 .bss           0x20000558        0x0 c:/users/error414/documents/stm32-tools/gcc-arm-none-eabi-10-2020-q4-major/bin/../lib/gcc/arm-none-eabi/10.2.1/../../../../arm-none-eabi/lib/thumb/v7e-m/nofp\libg.a(lib_a-strchr.o)
 .bss           0x20000558        0x0 c:/users/error414/documents/stm32-tools/gcc-arm-none-eabi-10-2020-q4-major/bin/../lib/gcc/arm-none-eabi/10.2.1/../../../../arm-none-eabi/lib/thumb/v7e-m/nofp\libg.a(lib_a-strcmp.o)
 .bss           0x20000558        0x0 c:/users/error414/documents/stm32-tools/gcc-arm-none-eabi-10-2020-q4-major/bin/../lib/gcc/arm-none-eabi/10.2.1/../../../../arm-none-eabi/lib/thumb/v7e-m/nofp\libg.a(lib_a-strcpy.o)
 .bss           0x20000558        0x0 c:/users/error414/documents/stm32-tools/gcc-arm-none-eabi-10-2020-q4-major/bin/../lib/gcc/arm-none-eabi/10.2.1/../../../../arm-none-eabi/lib/thumb/v7e-m/nofp\libg.a(lib_a-strlen.o)
 .bss           0x20000558        0x0 c:/users/error414/documents/stm32-tools/gcc-arm-none-eabi-10-2020-q4-major/bin/../lib/gcc/arm-none-eabi/10.2.1/../../../../arm-none-eabi/lib/thumb/v7e-m/nofp\libg.a(lib_a-strncpy.o)
 .bss           0x20000558        0x0 c:/users/error414/documents/stm32-tools/gcc-arm-none-eabi-10-2020-q4-major/bin/../lib/gcc/arm-none-eabi/10.2.1/../../../../arm-none-eabi/lib/thumb/v7e-m/nofp\libg.a(lib_a-strpbrk.o)
 .bss           0x20000558        0x0 c:/users/error414/documents/stm32-tools/gcc-arm-none-eabi-10-2020-q4-major/bin/../lib/gcc/arm-none-eabi/10.2.1/../../../../arm-none-eabi/lib/thumb/v7e-m/nofp\libg.a(lib_a-strspn.o)
 .bss           0x20000558        0x0 c:/users/error414/documents/stm32-tools/gcc-arm-none-eabi-10-2020-q4-major/bin/../lib/gcc/arm-none-eabi/10.2.1/thumb/v7e-m/nofp\libgcc.a(_arm_muldf3.o)
 .bss           0x20000558        0x0 c:/users/error414/documents/stm32-tools/gcc-arm-none-eabi-10-2020-q4-major/bin/../lib/gcc/arm-none-eabi/10.2.1/thumb/v7e-m/nofp\libgcc.a(_arm_mulsf3.o)
 .bss           0x20000558        0x0 c:/users/error414/documents/stm32-tools/gcc-arm-none-eabi-10-2020-q4-major/bin/../lib/gcc/arm-none-eabi/10.2.1/thumb/v7e-m/nofp\libgcc.a(_arm_addsubdf3.o)
 .bss           0x20000558        0x0 c:/users/error414/documents/stm32-tools/gcc-arm-none-eabi-10-2020-q4-major/bin/../lib/gcc/arm-none-eabi/10.2.1/thumb/v7e-m/nofp\libgcc.a(_arm_fixdfsi.o)
 .bss           0x20000558        0x0 c:/users/error414/documents/stm32-tools/gcc-arm-none-eabi-10-2020-q4-major/bin/../lib/gcc/arm-none-eabi/10.2.1/thumb/v7e-m/nofp\libgcc.a(_arm_truncdfsf2.o)
 .bss           0x20000558        0x0 c:/users/error414/documents/stm32-tools/gcc-arm-none-eabi-10-2020-q4-major/bin/../lib/gcc/arm-none-eabi/10.2.1/thumb/v7e-m/nofp\libgcc.a(_arm_addsubsf3.o)
 .bss           0x20000558        0x0 c:/users/error414/documents/stm32-tools/gcc-arm-none-eabi-10-2020-q4-major/bin/../lib/gcc/arm-none-eabi/10.2.1/thumb/v7e-m/nofp\libgcc.a(_arm_muldivsf3.o)
 .bss           0x20000558        0x0 c:/users/error414/documents/stm32-tools/gcc-arm-none-eabi-10-2020-q4-major/bin/../lib/gcc/arm-none-eabi/10.2.1/thumb/v7e-m/nofp\libgcc.a(_arm_cmpsf2.o)
 .bss           0x20000558        0x0 c:/users/error414/documents/stm32-tools/gcc-arm-none-eabi-10-2020-q4-major/bin/../lib/gcc/arm-none-eabi/10.2.1/thumb/v7e-m/nofp\libgcc.a(_arm_fixunssfsi.o)
 .bss           0x20000558        0x0 c:/users/error414/documents/stm32-tools/gcc-arm-none-eabi-10-2020-q4-major/bin/../lib/gcc/arm-none-eabi/10.2.1/thumb/v7e-m/nofp\libgcc.a(_aeabi_ldivmod.o)
 .bss           0x20000558        0x0 c:/users/error414/documents/stm32-tools/gcc-arm-none-eabi-10-2020-q4-major/bin/../lib/gcc/arm-none-eabi/10.2.1/thumb/v7e-m/nofp\libgcc.a(_udivmoddi4.o)
 .bss           0x20000558        0x0 c:/users/error414/documents/stm32-tools/gcc-arm-none-eabi-10-2020-q4-major/bin/../lib/gcc/arm-none-eabi/10.2.1/thumb/v7e-m/nofp\libgcc.a(_dvmd_tls.o)
 *(.bss.*)
 .bss.I2CD1     0x20000558       0x38 C:\Users\error414\AppData\Local\Temp\stm32-chibios.0UTc6U.ltrans0.ltrans.o
                0x20000558                I2CD1
 .bss.SD2       0x20000590      0x260 C:\Users\error414\AppData\Local\Temp\stm32-chibios.0UTc6U.ltrans0.ltrans.o
                0x20000590                SD2
 .bss.SD6       0x200007f0      0x260 C:\Users\error414\AppData\Local\Temp\stm32-chibios.0UTc6U.ltrans0.ltrans.o
                0x200007f0                SD6
 .bss.SPID1     0x20000a50       0x30 C:\Users\error414\AppData\Local\Temp\stm32-chibios.0UTc6U.ltrans0.ltrans.o
                0x20000a50                SPID1
 .bss._lv_disp_ll
                0x20000a80        0xc C:\Users\error414\AppData\Local\Temp\stm32-chibios.0UTc6U.ltrans0.ltrans.o
                0x20000a80                _lv_disp_ll
 .bss._lv_group_ll
                0x20000a8c        0xc C:\Users\error414\AppData\Local\Temp\stm32-chibios.0UTc6U.ltrans0.ltrans.o
 .bss._lv_indev_ll
                0x20000a98        0xc C:\Users\error414\AppData\Local\Temp\stm32-chibios.0UTc6U.ltrans0.ltrans.o
                0x20000a98                _lv_indev_ll
 .bss._lv_obj_style_trans_ll
                0x20000aa4        0xc C:\Users\error414\AppData\Local\Temp\stm32-chibios.0UTc6U.ltrans0.ltrans.o
 .bss._pal_events
                0x20000ab0       0x80 C:\Users\error414\AppData\Local\Temp\stm32-chibios.0UTc6U.ltrans0.ltrans.o
 .bss.ch0       0x20000b30       0x90 C:\Users\error414\AppData\Local\Temp\stm32-chibios.0UTc6U.ltrans0.ltrans.o
                0x20000b30                ch0
 .bss.ch_c0_idle_thread_wa
                0x20000bc0      0x1d0 C:\Users\error414\AppData\Local\Temp\stm32-chibios.0UTc6U.ltrans0.ltrans.o
 .bss.ch_factory
                0x20000d90       0x48 C:\Users\error414\AppData\Local\Temp\stm32-chibios.0UTc6U.ltrans0.ltrans.o
 .bss.ch_memcore
                0x20000dd8        0x8 C:\Users\error414\AppData\Local\Temp\stm32-chibios.0UTc6U.ltrans0.ltrans.o
 .bss.ch_system
                0x20000de0        0xc C:\Users\error414\AppData\Local\Temp\stm32-chibios.0UTc6U.ltrans0.ltrans.o
 .bss.default_heap
                0x20000dec       0x1c C:\Users\error414\AppData\Local\Temp\stm32-chibios.0UTc6U.ltrans0.ltrans.o
 .bss.disp_refr
                0x20000e08        0x4 C:\Users\error414\AppData\Local\Temp\stm32-chibios.0UTc6U.ltrans0.ltrans.o
 .bss.dma       0x20000e0c       0x84 C:\Users\error414\AppData\Local\Temp\stm32-chibios.0UTc6U.ltrans0.ltrans.o
 .bss.dummyrx   0x20000e90        0x2 C:\Users\error414\AppData\Local\Temp\stm32-chibios.0UTc6U.ltrans0.ltrans.o
 *fill*         0x20000e92        0x2 
 .bss.event_act_data
                0x20000e94        0x4 C:\Users\error414\AppData\Local\Temp\stm32-chibios.0UTc6U.ltrans0.ltrans.o
 .bss.event_temp_data_head
                0x20000e98        0x4 C:\Users\error414\AppData\Local\Temp\stm32-chibios.0UTc6U.ltrans0.ltrans.o
 .bss.indev_obj_act
                0x20000e9c        0x4 C:\Users\error414\AppData\Local\Temp\stm32-chibios.0UTc6U.ltrans0.ltrans.o
 .bss.lv_initialized
                0x20000ea0        0x1 C:\Users\error414\AppData\Local\Temp\stm32-chibios.0UTc6U.ltrans0.ltrans.o
 *fill*         0x20000ea1        0x3 
 .bss.px_num    0x20000ea4        0x4 C:\Users\error414\AppData\Local\Temp\stm32-chibios.0UTc6U.ltrans0.ltrans.o
 .bss._lv_draw_mask_list
                0x20000ea8       0x80 C:\Users\error414\AppData\Local\Temp\stm32-chibios.0UTc6U.ltrans1.ltrans.o
 .bss._lv_font_decompr_buf
                0x20000f28        0x4 C:\Users\error414\AppData\Local\Temp\stm32-chibios.0UTc6U.ltrans1.ltrans.o
 .bss._lv_img_defoder_ll
                0x20000f2c        0xc C:\Users\error414\AppData\Local\Temp\stm32-chibios.0UTc6U.ltrans1.ltrans.o
 .bss.cache_temp
                0x20000f38       0x24 C:\Users\error414\AppData\Local\Temp\stm32-chibios.0UTc6U.ltrans1.ltrans.o
 .bss.opa_table.0
                0x20000f5c      0x100 C:\Users\error414\AppData\Local\Temp\stm32-chibios.0UTc6U.ltrans1.ltrans.o
 .bss.prev_bpp.1
                0x2000105c        0x4 C:\Users\error414\AppData\Local\Temp\stm32-chibios.0UTc6U.ltrans1.ltrans.o
 .bss.prev_opa.2
                0x20001060        0x1 C:\Users\error414\AppData\Local\Temp\stm32-chibios.0UTc6U.ltrans1.ltrans.o
 .bss.rle_bpp   0x20001061        0x1 C:\Users\error414\AppData\Local\Temp\stm32-chibios.0UTc6U.ltrans1.ltrans.o
 .bss.rle_cnt   0x20001062        0x1 C:\Users\error414\AppData\Local\Temp\stm32-chibios.0UTc6U.ltrans1.ltrans.o
 *fill*         0x20001063        0x1 
 .bss.rle_in    0x20001064        0x4 C:\Users\error414\AppData\Local\Temp\stm32-chibios.0UTc6U.ltrans1.ltrans.o
 .bss.rle_prev_v
                0x20001068        0x1 C:\Users\error414\AppData\Local\Temp\stm32-chibios.0UTc6U.ltrans1.ltrans.o
 *fill*         0x20001069        0x3 
 .bss.rle_rdp   0x2000106c        0x4 C:\Users\error414\AppData\Local\Temp\stm32-chibios.0UTc6U.ltrans1.ltrans.o
 .bss.rle_state
                0x20001070        0x1 C:\Users\error414\AppData\Local\Temp\stm32-chibios.0UTc6U.ltrans1.ltrans.o
 *fill*         0x20001071        0x3 
 .bss._lv_mem_buf
                0x20001074       0x80 C:\Users\error414\AppData\Local\Temp\stm32-chibios.0UTc6U.ltrans2.ltrans.o
 .bss._lv_task_act
                0x200010f4        0x4 C:\Users\error414\AppData\Local\Temp\stm32-chibios.0UTc6U.ltrans2.ltrans.o
 .bss._lv_task_ll
                0x200010f8        0xc C:\Users\error414\AppData\Local\Temp\stm32-chibios.0UTc6U.ltrans2.ltrans.o
 .bss._lv_theme_mono_styles
                0x20001104        0x4 C:\Users\error414\AppData\Local\Temp\stm32-chibios.0UTc6U.ltrans2.ltrans.o
 .bss.act_theme
                0x20001108        0x4 C:\Users\error414\AppData\Local\Temp\stm32-chibios.0UTc6U.ltrans2.ltrans.o
 .bss.already_running.2
                0x2000110c        0x1 C:\Users\error414\AppData\Local\Temp\stm32-chibios.0UTc6U.ltrans2.ltrans.o
 *fill*         0x2000110d        0x3 
 .bss.ancestor_design.lto_priv.0
                0x20001110        0x4 C:\Users\error414\AppData\Local\Temp\stm32-chibios.0UTc6U.ltrans2.ltrans.o
 .bss.ancestor_design.lto_priv.1
                0x20001114        0x4 C:\Users\error414\AppData\Local\Temp\stm32-chibios.0UTc6U.ltrans2.ltrans.o
 .bss.ancestor_signal.lto_priv.0
                0x20001118        0x4 C:\Users\error414\AppData\Local\Temp\stm32-chibios.0UTc6U.ltrans2.ltrans.o
 .bss.ancestor_signal.lto_priv.1
                0x2000111c        0x4 C:\Users\error414\AppData\Local\Temp\stm32-chibios.0UTc6U.ltrans2.ltrans.o
 .bss.ancestor_signal.lto_priv.2
                0x20001120        0x4 C:\Users\error414\AppData\Local\Temp\stm32-chibios.0UTc6U.ltrans2.ltrans.o
                0x20001120                ancestor_signal.lto_priv.2
 .bss.busy_time.1
                0x20001124        0x4 C:\Users\error414\AppData\Local\Temp\stm32-chibios.0UTc6U.ltrans2.ltrans.o
 .bss.disp_def  0x20001128        0x4 C:\Users\error414\AppData\Local\Temp\stm32-chibios.0UTc6U.ltrans2.ltrans.o
 .bss.full_defrag_cnt.0
                0x2000112c        0x2 C:\Users\error414\AppData\Local\Temp\stm32-chibios.0UTc6U.ltrans2.ltrans.o
 .bss.idle_last
                0x2000112e        0x1 C:\Users\error414\AppData\Local\Temp\stm32-chibios.0UTc6U.ltrans2.ltrans.o
 *fill*         0x2000112f        0x1 
 .bss.idle_period_start.0
                0x20001130        0x4 C:\Users\error414\AppData\Local\Temp\stm32-chibios.0UTc6U.ltrans2.ltrans.o
 .bss.lv_task_run
                0x20001134        0x1 C:\Users\error414\AppData\Local\Temp\stm32-chibios.0UTc6U.ltrans2.ltrans.o
 *fill*         0x20001135        0x3 
 .bss.mem_buf1_32
                0x20001138       0x10 C:\Users\error414\AppData\Local\Temp\stm32-chibios.0UTc6U.ltrans2.ltrans.o
 .bss.mem_buf2_32
                0x20001148       0x10 C:\Users\error414\AppData\Local\Temp\stm32-chibios.0UTc6U.ltrans2.ltrans.o
 .bss.mem_max_size
                0x20001158        0x4 C:\Users\error414\AppData\Local\Temp\stm32-chibios.0UTc6U.ltrans2.ltrans.o
 .bss.recursion_level.0
                0x2000115c        0x4 C:\Users\error414\AppData\Local\Temp\stm32-chibios.0UTc6U.ltrans2.ltrans.o
 .bss.styles    0x20001160        0x4 C:\Users\error414\AppData\Local\Temp\stm32-chibios.0UTc6U.ltrans2.ltrans.o
 .bss.sys_time  0x20001164        0x4 C:\Users\error414\AppData\Local\Temp\stm32-chibios.0UTc6U.ltrans2.ltrans.o
 .bss.task_created
                0x20001168        0x1 C:\Users\error414\AppData\Local\Temp\stm32-chibios.0UTc6U.ltrans2.ltrans.o
 .bss.task_deleted
                0x20001169        0x1 C:\Users\error414\AppData\Local\Temp\stm32-chibios.0UTc6U.ltrans2.ltrans.o
 .bss.task_list_changed
                0x2000116a        0x1 C:\Users\error414\AppData\Local\Temp\stm32-chibios.0UTc6U.ltrans2.ltrans.o
 *fill*         0x2000116b        0x1 
 .bss.theme     0x2000116c       0x28 C:\Users\error414\AppData\Local\Temp\stm32-chibios.0UTc6U.ltrans2.ltrans.o
 .bss.tick_irq_flag
                0x20001194        0x1 C:\Users\error414\AppData\Local\Temp\stm32-chibios.0UTc6U.ltrans2.ltrans.o
 *fill*         0x20001195        0x3 
 .bss.work_mem  0x20001198        0x4 C:\Users\error414\AppData\Local\Temp\stm32-chibios.0UTc6U.ltrans2.ltrans.o
 .bss.work_mem_int.1
                0x2000119c     0x8000 C:\Users\error414\AppData\Local\Temp\stm32-chibios.0UTc6U.ltrans2.ltrans.o
 .bss.zero_mem  0x2000919c        0x4 C:\Users\error414\AppData\Local\Temp\stm32-chibios.0UTc6U.ltrans2.ltrans.o
 .bss.BMP280VA  0x200091a0      0x2c0 C:\Users\error414\AppData\Local\Temp\stm32-chibios.0UTc6U.ltrans3.ltrans.o
 .bss.BMP280_dev
                0x20009460       0x34 C:\Users\error414\AppData\Local\Temp\stm32-chibios.0UTc6U.ltrans3.ltrans.o
 *fill*         0x20009494        0x4 
 .bss.GUIVA     0x20009498     0x1b20 C:\Users\error414\AppData\Local\Temp\stm32-chibios.0UTc6U.ltrans3.ltrans.o
 .bss.MSP_status
                0x2000afb8       0x4c C:\Users\error414\AppData\Local\Temp\stm32-chibios.0UTc6U.ltrans3.ltrans.o
 *fill*         0x2000b004        0x4 
 .bss.ShellVA   0x2000b008      0x320 C:\Users\error414\AppData\Local\Temp\stm32-chibios.0UTc6U.ltrans3.ltrans.o
 .bss.ancestor_signal.lto_priv.3
                0x2000b328        0x4 C:\Users\error414\AppData\Local\Temp\stm32-chibios.0UTc6U.ltrans3.ltrans.o
 .bss.ancestor_signal.lto_priv.4
                0x2000b32c        0x4 C:\Users\error414\AppData\Local\Temp\stm32-chibios.0UTc6U.ltrans3.ltrans.o
 .bss.bmp280HW  0x2000b330       0x54 C:\Users\error414\AppData\Local\Temp\stm32-chibios.0UTc6U.ltrans3.ltrans.o
 .bss.bmp280ThreadCfg
                0x2000b384        0x4 C:\Users\error414\AppData\Local\Temp\stm32-chibios.0UTc6U.ltrans3.ltrans.o
 .bss.color_buff_1
                0x2000b388     0x2260 C:\Users\error414\AppData\Local\Temp\stm32-chibios.0UTc6U.ltrans3.ltrans.o
 .bss.data      0x2000d5e8        0x8 C:\Users\error414\AppData\Local\Temp\stm32-chibios.0UTc6U.ltrans3.ltrans.o
 .bss.disp_buf_lvgl
                0x2000d5f0       0x24 C:\Users\error414\AppData\Local\Temp\stm32-chibios.0UTc6U.ltrans3.ltrans.o
 .bss.disp_drv  0x2000d614       0x2c C:\Users\error414\AppData\Local\Temp\stm32-chibios.0UTc6U.ltrans3.ltrans.o
 .bss.epd7In5HdCfg
                0x2000d640        0x4 C:\Users\error414\AppData\Local\Temp\stm32-chibios.0UTc6U.ltrans3.ltrans.o
 .bss.flush_buff
                0x2000d644      0x44c C:\Users\error414\AppData\Local\Temp\stm32-chibios.0UTc6U.ltrans3.ltrans.o
 .bss.forecastValues
                0x2000da90       0x16 C:\Users\error414\AppData\Local\Temp\stm32-chibios.0UTc6U.ltrans3.ltrans.o
 *fill*         0x2000daa6        0x2 
 .bss.guiForecastObject
                0x2000daa8       0x54 C:\Users\error414\AppData\Local\Temp\stm32-chibios.0UTc6U.ltrans3.ltrans.o
 .bss.guiInsideChartTempSer
                0x2000dafc        0x4 C:\Users\error414\AppData\Local\Temp\stm32-chibios.0UTc6U.ltrans3.ltrans.o
 .bss.guiInsideObject
                0x2000db00       0x1c C:\Users\error414\AppData\Local\Temp\stm32-chibios.0UTc6U.ltrans3.ltrans.o
 .bss.guiMainHeaderObject
                0x2000db1c        0xc C:\Users\error414\AppData\Local\Temp\stm32-chibios.0UTc6U.ltrans3.ltrans.o
 .bss.guiOutsideChartTempSer
                0x2000db28        0x4 C:\Users\error414\AppData\Local\Temp\stm32-chibios.0UTc6U.ltrans3.ltrans.o
 .bss.guiOutsideObject
                0x2000db2c       0x28 C:\Users\error414\AppData\Local\Temp\stm32-chibios.0UTc6U.ltrans3.ltrans.o
 .bss.guiThreadCfg
                0x2000db54        0x4 C:\Users\error414\AppData\Local\Temp\stm32-chibios.0UTc6U.ltrans3.ltrans.o
 .bss.hc12HW    0x2000db58       0x54 C:\Users\error414\AppData\Local\Temp\stm32-chibios.0UTc6U.ltrans3.ltrans.o
 .bss.hc12State
                0x2000dbac       0x98 C:\Users\error414\AppData\Local\Temp\stm32-chibios.0UTc6U.ltrans3.ltrans.o
 *fill*         0x2000dc44        0x4 
 .bss.hc12StreamRXMSPVA
                0x2000dc48      0x2c0 C:\Users\error414\AppData\Local\Temp\stm32-chibios.0UTc6U.ltrans3.ltrans.o
 .bss.hc12StreamTXVA
                0x2000df08      0x2c0 C:\Users\error414\AppData\Local\Temp\stm32-chibios.0UTc6U.ltrans3.ltrans.o
 .bss.headerValues
                0x2000e1c8        0x4 C:\Users\error414\AppData\Local\Temp\stm32-chibios.0UTc6U.ltrans3.ltrans.o
 .bss.hwList    0x2000e1cc       0x28 C:\Users\error414\AppData\Local\Temp\stm32-chibios.0UTc6U.ltrans3.ltrans.o
 .bss.insideValues
                0x2000e1f4        0xc C:\Users\error414\AppData\Local\Temp\stm32-chibios.0UTc6U.ltrans3.ltrans.o
 .bss.mainData  0x2000e200       0x38 C:\Users\error414\AppData\Local\Temp\stm32-chibios.0UTc6U.ltrans3.ltrans.o
 .bss.mspRXVA   0x2000e238      0x240 C:\Users\error414\AppData\Local\Temp\stm32-chibios.0UTc6U.ltrans3.ltrans.o
 .bss.noBorder  0x2000e478        0x4 C:\Users\error414\AppData\Local\Temp\stm32-chibios.0UTc6U.ltrans3.ltrans.o
 .bss.outsideValues
                0x2000e47c       0x14 C:\Users\error414\AppData\Local\Temp\stm32-chibios.0UTc6U.ltrans3.ltrans.o
 .bss.registerHWVA
                0x2000e490      0x1d0 C:\Users\error414\AppData\Local\Temp\stm32-chibios.0UTc6U.ltrans3.ltrans.o
 .bss.registerHwDataLetter
                0x2000e660       0x28 C:\Users\error414\AppData\Local\Temp\stm32-chibios.0UTc6U.ltrans3.ltrans.o
 .bss.rx_buff   0x2000e688        0x2 C:\Users\error414\AppData\Local\Temp\stm32-chibios.0UTc6U.ltrans3.ltrans.o
 *fill*         0x2000e68a        0x2 
 .bss.shell_terminated
                0x2000e68c        0x4 C:\Users\error414\AppData\Local\Temp\stm32-chibios.0UTc6U.ltrans3.ltrans.o
 .bss.streamPoolObject
                0x2000e690     0x1400 C:\Users\error414\AppData\Local\Temp\stm32-chibios.0UTc6U.ltrans3.ltrans.o
 .bss.streamRxDataLetter
                0x2000fa90       0x50 C:\Users\error414\AppData\Local\Temp\stm32-chibios.0UTc6U.ltrans3.ltrans.o
 .bss.streamTxDataLetter
                0x2000fae0       0x50 C:\Users\error414\AppData\Local\Temp\stm32-chibios.0UTc6U.ltrans3.ltrans.o
 .bss.styleChart
                0x2000fb30        0x4 C:\Users\error414\AppData\Local\Temp\stm32-chibios.0UTc6U.ltrans3.ltrans.o
 .bss.styleChartSeries
                0x2000fb34        0x4 C:\Users\error414\AppData\Local\Temp\stm32-chibios.0UTc6U.ltrans3.ltrans.o
 .bss.styleFont16
                0x2000fb38        0x4 C:\Users\error414\AppData\Local\Temp\stm32-chibios.0UTc6U.ltrans3.ltrans.o
 .bss.styleFont20
                0x2000fb3c        0x4 C:\Users\error414\AppData\Local\Temp\stm32-chibios.0UTc6U.ltrans3.ltrans.o
 .bss.styleFont30
                0x2000fb40        0x4 C:\Users\error414\AppData\Local\Temp\stm32-chibios.0UTc6U.ltrans3.ltrans.o
 .bss.styleFont48
                0x2000fb44        0x4 C:\Users\error414\AppData\Local\Temp\stm32-chibios.0UTc6U.ltrans3.ltrans.o
 .bss.styleFontText12
                0x2000fb48        0x4 C:\Users\error414\AppData\Local\Temp\stm32-chibios.0UTc6U.ltrans3.ltrans.o
 .bss.styleLine
                0x2000fb4c        0x4 C:\Users\error414\AppData\Local\Temp\stm32-chibios.0UTc6U.ltrans3.ltrans.o
 .bss.txBuffer  0x2000fb50        0x1 C:\Users\error414\AppData\Local\Temp\stm32-chibios.0UTc6U.ltrans3.ltrans.o
 .bss.tx_buff   0x2000fb51        0x1 C:\Users\error414\AppData\Local\Temp\stm32-chibios.0UTc6U.ltrans3.ltrans.o
 *fill*         0x2000fb52        0x2 
 .bss.tx_buff2  0x2000fb54        0x2 C:\Users\error414\AppData\Local\Temp\stm32-chibios.0UTc6U.ltrans3.ltrans.o
 *(COMMON)
                0x2000fb58                . = ALIGN (0x4)
 *fill*         0x2000fb56        0x2 
                0x2000fb58                __bss_end__ = .
                [!provide]                PROVIDE (end = .)
                0x20000000                __ram0_base__ = ORIGIN (ram0)
                0x00018000                __ram0_size__ = LENGTH (ram0)
                0x20018000                __ram0_end__ = (__ram0_base__ + __ram0_size__)
                0x00000000                __ram1_base__ = ORIGIN (ram1)
                0x00000000                __ram1_size__ = LENGTH (ram1)
                0x00000000                __ram1_end__ = (__ram1_base__ + __ram1_size__)
                0x00000000                __ram2_base__ = ORIGIN (ram2)
                0x00000000                __ram2_size__ = LENGTH (ram2)
                0x00000000                __ram2_end__ = (__ram2_base__ + __ram2_size__)
                0x00000000                __ram3_base__ = ORIGIN (ram3)
                0x00000000                __ram3_size__ = LENGTH (ram3)
                0x00000000                __ram3_end__ = (__ram3_base__ + __ram3_size__)
                0x00000000                __ram4_base__ = ORIGIN (ram4)
                0x00000000                __ram4_size__ = LENGTH (ram4)
                0x00000000                __ram4_end__ = (__ram4_base__ + __ram4_size__)
                0x00000000                __ram5_base__ = ORIGIN (ram5)
                0x00000000                __ram5_size__ = LENGTH (ram5)
                0x00000000                __ram5_end__ = (__ram5_base__ + __ram5_size__)
                0x00000000                __ram6_base__ = ORIGIN (ram6)
                0x00000000                __ram6_size__ = LENGTH (ram6)
                0x00000000                __ram6_end__ = (__ram6_base__ + __ram6_size__)
                0x00000000                __ram7_base__ = ORIGIN (ram7)
                0x00000000                __ram7_size__ = LENGTH (ram7)
                0x00000000                __ram7_end__ = (__ram7_base__ + __ram7_size__)
                0x08000000                __flash0_base__ = ORIGIN (flash0)
                0x00080000                __flash0_size__ = LENGTH (flash0)
                0x08080000                __flash0_end__ = (__flash0_base__ + __flash0_size__)
                0x00000000                __flash1_base__ = ORIGIN (flash1)
                0x00000000                __flash1_size__ = LENGTH (flash1)
                0x00000000                __flash1_end__ = (__flash1_base__ + __flash1_size__)
                0x00000000                __flash2_base__ = ORIGIN (flash2)
                0x00000000                __flash2_size__ = LENGTH (flash2)
                0x00000000                __flash2_end__ = (__flash2_base__ + __flash2_size__)
                0x00000000                __flash3_base__ = ORIGIN (flash3)
                0x00000000                __flash3_size__ = LENGTH (flash3)
                0x00000000                __flash3_end__ = (__flash3_base__ + __flash3_size__)
                0x00000000                __flash4_base__ = ORIGIN (flash4)
                0x00000000                __flash4_size__ = LENGTH (flash4)
                0x00000000                __flash4_end__ = (__flash4_base__ + __flash4_size__)
                0x00000000                __flash5_base__ = ORIGIN (flash5)
                0x00000000                __flash5_size__ = LENGTH (flash5)
                0x00000000                __flash5_end__ = (__flash5_base__ + __flash5_size__)
                0x00000000                __flash6_base__ = ORIGIN (flash6)
                0x00000000                __flash6_size__ = LENGTH (flash6)
                0x00000000                __flash6_end__ = (__flash6_base__ + __flash6_size__)
                0x00000000                __flash7_base__ = ORIGIN (flash7)
                0x00000000                __flash7_size__ = LENGTH (flash7)
                0x00000000                __flash7_end__ = (__flash7_base__ + __flash7_size__)

.ram0_init      0x2000fb58        0x0 load address 0x0802ffe8
                0x0802ffe8                __ram0_init_text__ = LOADADDR (.ram0_init)
                0x2000fb58                __ram0_init__ = .
 *(.ram0_init)
 *(.ram0_init.*)
                0x2000fb58                . = ALIGN (0x4)

.ram0           0x2000fb58        0x0 load address 0x0802ffe8
                0x2000fb58                __ram0_clear__ = .
 *(.ram0_clear)
 *(.ram0_clear.*)
                0x2000fb58                . = ALIGN (0x4)
                0x2000fb58                __ram0_noinit__ = .
 *(.ram0)
 *(.ram0.*)
                0x2000fb58                . = ALIGN (0x4)
                0x2000fb58                __ram0_free__ = .

.ram1_init      0x00000000        0x0 load address 0x0802ffe8
                0x0802ffe8                __ram1_init_text__ = LOADADDR (.ram1_init)
                0x00000000                __ram1_init__ = .
 *(.ram1_init)
 *(.ram1_init.*)
                0x00000000                . = ALIGN (0x4)

.ram1           0x00000000        0x0 load address 0x0802ffe8
                0x00000000                __ram1_clear__ = .
 *(.ram1_clear)
 *(.ram1_clear.*)
                0x00000000                . = ALIGN (0x4)
                0x00000000                __ram1_noinit__ = .
 *(.ram1)
 *(.ram1.*)
                0x00000000                . = ALIGN (0x4)
                0x00000000                __ram1_free__ = .

.ram2_init      0x00000000        0x0 load address 0x0802ffe8
                0x0802ffe8                __ram2_init_text__ = LOADADDR (.ram2_init)
                0x00000000                __ram2_init__ = .
 *(.ram2_init)
 *(.ram2_init.*)
                0x00000000                . = ALIGN (0x4)

.ram2           0x00000000        0x0 load address 0x0802ffe8
                0x00000000                __ram2_clear__ = .
 *(.ram2_clear)
 *(.ram2_clear.*)
                0x00000000                . = ALIGN (0x4)
                0x00000000                __ram2_noinit__ = .
 *(.ram2)
 *(.ram2.*)
                0x00000000                . = ALIGN (0x4)
                0x00000000                __ram2_free__ = .

.ram3_init      0x00000000        0x0 load address 0x0802ffe8
                0x0802ffe8                __ram3_init_text__ = LOADADDR (.ram3_init)
                0x00000000                __ram3_init__ = .
 *(.ram3_init)
 *(.ram3_init.*)
                0x00000000                . = ALIGN (0x4)

.ram3           0x00000000        0x0 load address 0x0802ffe8
                0x00000000                __ram3_clear__ = .
 *(.ram3_clear)
 *(.ram3_clear.*)
                0x00000000                . = ALIGN (0x4)
                0x00000000                __ram3_noinit__ = .
 *(.ram3)
 *(.ram3.*)
                0x00000000                . = ALIGN (0x4)
                0x00000000                __ram3_free__ = .

.ram4_init      0x00000000        0x0 load address 0x0802ffe8
                0x0802ffe8                __ram4_init_text__ = LOADADDR (.ram4_init)
                0x00000000                __ram4_init__ = .
 *(.ram4_init)
 *(.ram4_init.*)
                0x00000000                . = ALIGN (0x4)

.ram4           0x00000000        0x0 load address 0x0802ffe8
                0x00000000                __ram4_clear__ = .
 *(.ram4_clear)
 *(.ram4_clear.*)
                0x00000000                . = ALIGN (0x4)
                0x00000000                __ram4_noinit__ = .
 *(.ram4)
 *(.ram4.*)
                0x00000000                . = ALIGN (0x4)
                0x00000000                __ram4_free__ = .

.ram5_init      0x00000000        0x0 load address 0x0802ffe8
                0x0802ffe8                __ram5_init_text__ = LOADADDR (.ram5_init)
                0x00000000                __ram5_init__ = .
 *(.ram5_init)
 *(.ram5_init.*)
                0x00000000                . = ALIGN (0x4)

.ram5           0x00000000        0x0 load address 0x0802ffe8
                0x00000000                __ram5_clear__ = .
 *(.ram5_clear)
 *(.ram5_clear.*)
                0x00000000                . = ALIGN (0x4)
                0x00000000                __ram5_noinit__ = .
 *(.ram5)
 *(.ram5.*)
                0x00000000                . = ALIGN (0x4)
                0x00000000                __ram5_free__ = .

.ram6_init      0x00000000        0x0 load address 0x0802ffe8
                0x0802ffe8                __ram6_init_text__ = LOADADDR (.ram6_init)
                0x00000000                __ram6_init__ = .
 *(.ram6_init)
 *(.ram6_init.*)
                0x00000000                . = ALIGN (0x4)

.ram6           0x00000000        0x0 load address 0x0802ffe8
                0x00000000                __ram6_clear__ = .
 *(.ram6_clear)
 *(.ram6_clear.*)
                0x00000000                . = ALIGN (0x4)
                0x00000000                __ram6_noinit__ = .
 *(.ram6)
 *(.ram6.*)
                0x00000000                . = ALIGN (0x4)
                0x00000000                __ram6_free__ = .

.ram7_init      0x00000000        0x0 load address 0x0802ffe8
                0x0802ffe8                __ram7_init_text__ = LOADADDR (.ram7_init)
                0x00000000                __ram7_init__ = .
 *(.ram7_init)
 *(.ram7_init.*)
                0x00000000                . = ALIGN (0x4)

.ram7           0x00000000        0x0 load address 0x0802ffe8
                0x00000000                __ram7_clear__ = .
 *(.ram7_clear)
 *(.ram7_clear.*)
                0x00000000                . = ALIGN (0x4)
                0x00000000                __ram7_noinit__ = .
 *(.ram7)
 *(.ram7.*)
                0x00000000                . = ALIGN (0x4)
                0x00000000                __ram7_free__ = .

.flash0         0x0802ffe8        0x0
                0x0802ffe8                __flash0_init__ = .
 *(.flash0_init)
 *(.flash0_init.*)
                0x0802ffe8                __flash0_free__ = .

.flash1         0x00000000        0x0
                0x00000000                __flash1_init__ = .
 *(.flash1_init)
 *(.flash1_init.*)
                0x00000000                __flash1_free__ = .

.flash2         0x00000000        0x0
                0x00000000                __flash2_init__ = .
 *(.flash2_init)
 *(.flash2_init.*)
                0x00000000                __flash2_free__ = .

.flash3         0x00000000        0x0
                0x00000000                __flash3_init__ = .
 *(.flash3_init)
 *(.flash3_init.*)
                0x00000000                __flash3_free__ = .

.flash4         0x00000000        0x0
                0x00000000                __flash4_init__ = .
 *(.flash4_init)
 *(.flash4_init.*)
                0x00000000                __flash4_free__ = .

.flash5         0x00000000        0x0
                0x00000000                __flash5_init__ = .
 *(.flash5_init)
 *(.flash5_init.*)
                0x00000000                __flash5_free__ = .

.flash6         0x00000000        0x0
                0x00000000                __flash6_init__ = .
 *(.flash6_init)
 *(.flash6_init.*)
                0x00000000                __flash6_free__ = .

.flash7         0x00000000        0x0
                0x00000000                __flash7_init__ = .
 *(.flash7_init)
 *(.flash7_init.*)
                0x00000000                __flash7_free__ = .

.heap           0x2000fb58     0x84a8
                0x2000fb58                . = ALIGN (0x8)
                0x2000fb58                __heap_base__ = .
                0x20018000                . = (ORIGIN (HEAP_RAM) + LENGTH (HEAP_RAM))
 *fill*         0x2000fb58     0x84a8 
                0x20018000                __heap_end__ = .
OUTPUT(stm32-chibios elf32-littlearm)
LOAD linker stubs

.debug_info     0x00000000    0xd4934
 .debug_info    0x00000000    0x118fc C:\Users\error414\AppData\Local\Temp\stm32-chibios.0UTc6U.ltrans0.ltrans.o
 .debug_info    0x000118fc     0xb439 C:\Users\error414\AppData\Local\Temp\stm32-chibios.0UTc6U.ltrans1.ltrans.o
 .debug_info    0x0001cd35     0xbba9 C:\Users\error414\AppData\Local\Temp\stm32-chibios.0UTc6U.ltrans2.ltrans.o
 .debug_info    0x000288de     0xb971 C:\Users\error414\AppData\Local\Temp\stm32-chibios.0UTc6U.ltrans3.ltrans.o
 .debug_info    0x0003424f      0x2c8 C:\Users\error414\AppData\Local\Temp\ccLignFf.debug.temp.o
                0x0003424f                crt1.c.68b51e9f
 .debug_info    0x00034517       0x8a C:\Users\error414\AppData\Local\Temp\ccOfRvXS.debug.temp.o
                0x00034517                hal.c.3ef107ef
 .debug_info    0x000345a1      0x315 C:\Users\error414\AppData\Local\Temp\ccfbBgnw.debug.temp.o
                0x000345a1                hal_st.c.fd0707fe
 .debug_info    0x000348b6     0x100e C:\Users\error414\AppData\Local\Temp\cc2bs0V9.debug.temp.o
                0x000348b6                hal_buffers.c.288e3382
 .debug_info    0x000358c4      0xee4 C:\Users\error414\AppData\Local\Temp\ccLgwDEN.debug.temp.o
                0x000358c4                hal_queues.c.1c477f5b
 .debug_info    0x000367a8      0x4c5 C:\Users\error414\AppData\Local\Temp\ccORLUpq.debug.temp.o
                0x000367a8                hal_flash.c.8f0a40db
 .debug_info    0x00036c6d       0x79 C:\Users\error414\AppData\Local\Temp\ccbvRak3.debug.temp.o
                0x00036c6d                hal_mmcsd.c.979a51b1
 .debug_info    0x00036ce6      0xe77 C:\Users\error414\AppData\Local\Temp\cc2LHsqG.debug.temp.o
                0x00036ce6                hal_i2c.c.022c6a57
 .debug_info    0x00037b5d      0x3ea C:\Users\error414\AppData\Local\Temp\ccrqjLFj.debug.temp.o
                0x00037b5d                hal_pal.c.caf20f42
 .debug_info    0x00037f47       0x79 C:\Users\error414\AppData\Local\Temp\cceNxhUV.debug.temp.o
                0x00037f47                hal_pwm.c.9791afd3
 .debug_info    0x00037fc0     0x1197 C:\Users\error414\AppData\Local\Temp\ccVcrBGx.debug.temp.o
                0x00037fc0                hal_serial.c.ca089e84
 .debug_info    0x00039157     0x10ee C:\Users\error414\AppData\Local\Temp\ccc1jFB9.debug.temp.o
                0x00039157                hal_spi.c.a61101dd
 .debug_info    0x0003a245      0x4bc C:\Users\error414\AppData\Local\Temp\cc1cUTnP.debug.temp.o
                0x0003a245                nvic.c.345a14db
 .debug_info    0x0003a701     0x10aa C:\Users\error414\AppData\Local\Temp\ccYg8rov.debug.temp.o
                0x0003a701                stm32_isr.c.e37de05a
 .debug_info    0x0003b7ab      0x594 C:\Users\error414\AppData\Local\Temp\cc7io5fa.debug.temp.o
                0x0003b7ab                hal_lld.c.035687c7
 .debug_info    0x0003bd3f       0x79 C:\Users\error414\AppData\Local\Temp\ccuoyEoO.debug.temp.o
                0x0003bd3f                hal_efl_lld.c.a99c5bcb
 .debug_info    0x0003bdb8      0xf4d C:\Users\error414\AppData\Local\Temp\ccHOJFKs.debug.temp.o
                0x0003bdb8                stm32_dma.c.9885815b
 .debug_info    0x0003cd05       0x79 C:\Users\error414\AppData\Local\Temp\ccSbAQOa.debug.temp.o
                0x0003cd05                stm32_exti.c.4cbceca6
 .debug_info    0x0003cd7e      0x513 C:\Users\error414\AppData\Local\Temp\cc5L8yqS.debug.temp.o
                0x0003cd7e                hal_pal_lld.c.748941bc
 .debug_info    0x0003d291     0x149d C:\Users\error414\AppData\Local\Temp\ccqgwWez.debug.temp.o
                0x0003d291                hal_i2c_lld.c.04387278
 .debug_info    0x0003e72e     0x1114 C:\Users\error414\AppData\Local\Temp\ccj8Ekcg.debug.temp.o
                0x0003e72e                hal_spi_lld.c.77af992a
 .debug_info    0x0003f842      0x4cc C:\Users\error414\AppData\Local\Temp\ccwUHRlX.debug.temp.o
                0x0003f842                hal_st_lld.c.9ae3f5b4
 .debug_info    0x0003fd0e       0x79 C:\Users\error414\AppData\Local\Temp\cc7Y1lMD.debug.temp.o
                0x0003fd0e                hal_pwm_lld.c.c012b930
 .debug_info    0x0003fd87     0x1137 C:\Users\error414\AppData\Local\Temp\ccygrstk.debug.temp.o
                0x0003fd87                hal_serial_lld.c.cf780f79
 .debug_info    0x00040ebe       0x79 C:\Users\error414\AppData\Local\Temp\ccTwTxP4.debug.temp.o
                0x00040ebe                osal.c.b45dbdd2
 .debug_info    0x00040f37      0xde3 C:\Users\error414\AppData\Local\Temp\ccShTnkP.debug.temp.o
                0x00040f37                chsys.c.09f397d9
 .debug_info    0x00041d1a      0x947 C:\Users\error414\AppData\Local\Temp\cc78V57z.debug.temp.o
                0x00041d1a                chdebug.c.19d9f0be
 .debug_info    0x00042661       0x79 C:\Users\error414\AppData\Local\Temp\ccgTk8Tj.debug.temp.o
                0x00042661                chtrace.c.f4f8431c
 .debug_info    0x000426da      0xc00 C:\Users\error414\AppData\Local\Temp\ccNBSMN3.debug.temp.o
                0x000426da                chvt.c.1301a199
 .debug_info    0x000432da      0xd7a C:\Users\error414\AppData\Local\Temp\cc8BaTUN.debug.temp.o
                0x000432da                chschd.c.347a9a5b
 .debug_info    0x00044054      0xba4 C:\Users\error414\AppData\Local\Temp\cc38DPby.debug.temp.o
                0x00044054                chinstances.c.f91ae22c
 .debug_info    0x00044bf8     0x1117 C:\Users\error414\AppData\Local\Temp\ccoJIJyh.debug.temp.o
                0x00044bf8                chthreads.c.1ab24bd8
 .debug_info    0x00045d0f      0xb44 C:\Users\error414\AppData\Local\Temp\ccfcnAd1.debug.temp.o
                0x00045d0f                chtm.c.0ed9d2d9
 .debug_info    0x00046853      0xae2 C:\Users\error414\AppData\Local\Temp\cckKqk0N.debug.temp.o
                0x00046853                chregistry.c.5357e456
 .debug_info    0x00047335      0xbf6 C:\Users\error414\AppData\Local\Temp\ccNM7LDA.debug.temp.o
                0x00047335                chsem.c.a3413877
 .debug_info    0x00047f2b      0xb45 C:\Users\error414\AppData\Local\Temp\cceWQyIl.debug.temp.o
                0x00047f2b                chmtx.c.aae55d99
 .debug_info    0x00048a70      0xb30 C:\Users\error414\AppData\Local\Temp\ccvOb636.debug.temp.o
                0x00048a70                chcond.c.efb5c0e3
 .debug_info    0x000495a0      0xd78 C:\Users\error414\AppData\Local\Temp\ccMiSu4V.debug.temp.o
                0x000495a0                chevents.c.3f8c687e
 .debug_info    0x0004a318      0xa05 C:\Users\error414\AppData\Local\Temp\cc383RQK.debug.temp.o
                0x0004a318                chmsg.c.2c318172
 .debug_info    0x0004ad1d      0xb70 C:\Users\error414\AppData\Local\Temp\ccWszgMz.debug.temp.o
                0x0004ad1d                chdynamic.c.3501f3a0
 .debug_info    0x0004b88d      0xced C:\Users\error414\AppData\Local\Temp\ccDEBUao.debug.temp.o
                0x0004b88d                chmboxes.c.89ba9821
 .debug_info    0x0004c57a      0xa37 C:\Users\error414\AppData\Local\Temp\ccq1TaCb.debug.temp.o
                0x0004c57a                chmemcore.c.9663f2d8
 .debug_info    0x0004cfb1      0xade C:\Users\error414\AppData\Local\Temp\ccBml3aZ.debug.temp.o
                0x0004cfb1                chmemheaps.c.fff52488
 .debug_info    0x0004da8f      0xc31 C:\Users\error414\AppData\Local\Temp\ccqK9lXM.debug.temp.o
                0x0004da8f                chmempools.c.e6a6c172
 .debug_info    0x0004e6c0      0xb8d C:\Users\error414\AppData\Local\Temp\ccxNswpE.debug.temp.o
                0x0004e6c0                chpipes.c.b5f15442
 .debug_info    0x0004f24d      0xd31 C:\Users\error414\AppData\Local\Temp\ccqzIZ4v.debug.temp.o
                0x0004f24d                chobjcaches.c.0e707a63
 .debug_info    0x0004ff7e      0xc14 C:\Users\error414\AppData\Local\Temp\ccpQszLm.debug.temp.o
                0x0004ff7e                chdelegates.c.f01975ee
 .debug_info    0x00050b92     0x1367 C:\Users\error414\AppData\Local\Temp\ccaMpbqc.debug.temp.o
                0x00050b92                chfactory.c.79941106
 .debug_info    0x00051ef9     0x115d C:\Users\error414\AppData\Local\Temp\ccB9hZg2.debug.temp.o
                0x00051ef9                chcore.c.592cbc7d
 .debug_info    0x00053056      0x5c2 C:\Users\error414\AppData\Local\Temp\ccWfDpeW.debug.temp.o
                0x00053056                chprintf.c.96c1b9f9
 .debug_info    0x00053618      0x4d1 C:\Users\error414\AppData\Local\Temp\cc1persQ.debug.temp.o
                0x00053618                chscanf.c.12a6c33e
 .debug_info    0x00053ae9      0x35a C:\Users\error414\AppData\Local\Temp\ccsRSGXJ.debug.temp.o
                0x00053ae9                memstreams.c.fe477482
 .debug_info    0x00053e43      0x2bc C:\Users\error414\AppData\Local\Temp\ccXO6QyC.debug.temp.o
                0x00053e43                nullstreams.c.7f7c80a7
 .debug_info    0x000540ff      0x3e2 C:\Users\error414\AppData\Local\Temp\ccW1uKiv.debug.temp.o
                0x000540ff                bufstreams.c.29f98fd4
 .debug_info    0x000544e1      0xcb5 C:\Users\error414\AppData\Local\Temp\ccblGfho.debug.temp.o
                0x000544e1                lv_disp.c.dfc46d94
 .debug_info    0x00055196      0xda5 C:\Users\error414\AppData\Local\Temp\ccoBIOdg.debug.temp.o
                0x00055196                lv_group.c.7b8ac079
 .debug_info    0x00055f3b     0x18fd C:\Users\error414\AppData\Local\Temp\ccXWRmj8.debug.temp.o
                0x00055f3b                lv_indev.c.a34644f5
 .debug_info    0x00057838     0x56cf C:\Users\error414\AppData\Local\Temp\cc2McZp4.debug.temp.o
                0x00057838                lv_obj.c.aae43860
 .debug_info    0x0005cf07     0x1864 C:\Users\error414\AppData\Local\Temp\ccrDkjF0.debug.temp.o
                0x0005cf07                lv_refr.c.b84a1845
 .debug_info    0x0005e76b     0x10f4 C:\Users\error414\AppData\Local\Temp\ccQDDUnW.debug.temp.o
                0x0005e76b                lv_style.c.ccd03dad
 .debug_info    0x0005f85f      0xc6f C:\Users\error414\AppData\Local\Temp\ccDgeKyR.debug.temp.o
                0x0005f85f                lv_draw_arc.c.0af52e51
 .debug_info    0x000604ce     0x1536 C:\Users\error414\AppData\Local\Temp\ccgOcsTM.debug.temp.o
                0x000604ce                lv_draw_blend.c.47cc9e00
 .debug_info    0x00061a04     0x1d7c C:\Users\error414\AppData\Local\Temp\ccHxa7sH.debug.temp.o
                0x00061a04                lv_draw_img.c.3c6235d8
 .debug_info    0x00063780     0x1bc3 C:\Users\error414\AppData\Local\Temp\cc2pWERF.debug.temp.o
                0x00063780                lv_draw_label.c.8ed75df4
 .debug_info    0x00065343     0x16a2 C:\Users\error414\AppData\Local\Temp\ccFJRSDD.debug.temp.o
                0x00065343                lv_draw_line.c.1a855e20
 .debug_info    0x000669e5     0x10ff C:\Users\error414\AppData\Local\Temp\ccUGxF6A.debug.temp.o
                0x000669e5                lv_draw_mask.c.c25c7f5b
 .debug_info    0x00067ae4     0x1cb9 C:\Users\error414\AppData\Local\Temp\cc7guKNy.debug.temp.o
                0x00067ae4                lv_draw_rect.c.78eb6195
 .debug_info    0x0006979d      0x8dc C:\Users\error414\AppData\Local\Temp\ccaEe9sv.debug.temp.o
                0x0006979d                lv_draw_triangle.c.20f44169
 .debug_info    0x0006a079      0xe00 C:\Users\error414\AppData\Local\Temp\ccXe02ys.debug.temp.o
                0x0006a079                lv_img_buf.c.c22d850a
 .debug_info    0x0006ae79      0x486 C:\Users\error414\AppData\Local\Temp\ccCPpgxt.debug.temp.o
                0x0006ae79                lv_img_cache.c.dffae8dc
 .debug_info    0x0006b2ff      0xc49 C:\Users\error414\AppData\Local\Temp\ccL3zvHu.debug.temp.o
                0x0006b2ff                lv_img_decoder.c.9da6a5f9
 .debug_info    0x0006bf48      0x2fe C:\Users\error414\AppData\Local\Temp\ccWmc6Pu.debug.temp.o
                0x0006bf48                lv_font.c.261fbd70
 .debug_info    0x0006c246       0x79 C:\Users\error414\AppData\Local\Temp\cc3Lk7cv.debug.temp.o
                0x0006c246                lv_font_dejavu_16_persian_hebrew.c.b12a12c9
 .debug_info    0x0006c2bf      0xb61 C:\Users\error414\AppData\Local\Temp\ccguJG7u.debug.temp.o
                0x0006c2bf                lv_font_fmt_txt.c.58f669be
 .debug_info    0x0006ce20       0x79 C:\Users\error414\AppData\Local\Temp\cc78Jbhu.debug.temp.o
                0x0006ce20                lv_font_loader.c.44a2a6e1
 .debug_info    0x0006ce99       0x79 C:\Users\error414\AppData\Local\Temp\ccG6q1Nt.debug.temp.o
                0x0006ce99                lv_font_montserrat_10.c.a3b52637
 .debug_info    0x0006cf12      0x731 C:\Users\error414\AppData\Local\Temp\ccnom83w.debug.temp.o
                0x0006cf12                lv_font_montserrat_12.c.c065e2ce
 .debug_info    0x0006d643       0x79 C:\Users\error414\AppData\Local\Temp\cckskQrA.debug.temp.o
                0x0006d643                lv_font_montserrat_12_subpx.c.7f8743ff
 .debug_info    0x0006d6bc      0x731 C:\Users\error414\AppData\Local\Temp\ccd0802D.debug.temp.o
                0x0006d6bc                lv_font_montserrat_14.c.98f6f290
 .debug_info    0x0006dded       0x79 C:\Users\error414\AppData\Local\Temp\cc8a1ZTG.debug.temp.o
                0x0006dded                lv_font_montserrat_16.c.e70c3a81
 .debug_info    0x0006de66       0x79 C:\Users\error414\AppData\Local\Temp\ccjMwCNI.debug.temp.o
                0x0006de66                lv_font_montserrat_18.c.c1d0f62e
 .debug_info    0x0006dedf       0x79 C:\Users\error414\AppData\Local\Temp\cc2KNfQK.debug.temp.o
                0x0006dedf                lv_font_montserrat_20.c.3381b234
 .debug_info    0x0006df58       0x79 C:\Users\error414\AppData\Local\Temp\cclggJ2M.debug.temp.o
                0x0006df58                lv_font_montserrat_22.c.b80becbd
 .debug_info    0x0006dfd1       0x79 C:\Users\error414\AppData\Local\Temp\cca6cdoP.debug.temp.o
                0x0006dfd1                lv_font_montserrat_24.c.eb1c79a4
 .debug_info    0x0006e04a       0x79 C:\Users\error414\AppData\Local\Temp\ccJpTCGQ.debug.temp.o
                0x0006e04a                lv_font_montserrat_26.c.c0551f2e
 .debug_info    0x0006e0c3       0x79 C:\Users\error414\AppData\Local\Temp\cc2oZ47R.debug.temp.o
                0x0006e0c3                lv_font_montserrat_28.c.a8e27ac6
 .debug_info    0x0006e13c       0x79 C:\Users\error414\AppData\Local\Temp\cchY4ONT.debug.temp.o
                0x0006e13c                lv_font_montserrat_28_compressed.c.6d0396f1
 .debug_info    0x0006e1b5       0x79 C:\Users\error414\AppData\Local\Temp\cckrgSlZ.debug.temp.o
                0x0006e1b5                lv_font_montserrat_30.c.f3b4ca83
 .debug_info    0x0006e22e       0x79 C:\Users\error414\AppData\Local\Temp\ccxxFv14.debug.temp.o
                0x0006e22e                lv_font_montserrat_32.c.68df200c
 .debug_info    0x0006e2a7       0x79 C:\Users\error414\AppData\Local\Temp\ccIacCUa.debug.temp.o
                0x0006e2a7                lv_font_montserrat_34.c.6a793635
 .debug_info    0x0006e320       0x79 C:\Users\error414\AppData\Local\Temp\cc3aqUMf.debug.temp.o
                0x0006e320                lv_font_montserrat_36.c.ea5a7700
 .debug_info    0x0006e399       0x79 C:\Users\error414\AppData\Local\Temp\ccQpAcOk.debug.temp.o
                0x0006e399                lv_font_montserrat_38.c.62c7c648
 .debug_info    0x0006e412       0x79 C:\Users\error414\AppData\Local\Temp\ccRnw5Wp.debug.temp.o
                0x0006e412                lv_font_montserrat_40.c.63522b2c
 .debug_info    0x0006e48b       0x79 C:\Users\error414\AppData\Local\Temp\ccKdeijv.debug.temp.o
                0x0006e48b                lv_font_montserrat_42.c.83732018
 .debug_info    0x0006e504       0x79 C:\Users\error414\AppData\Local\Temp\ccxAgkJz.debug.temp.o
                0x0006e504                lv_font_montserrat_44.c.a3771744
 .debug_info    0x0006e57d       0x79 C:\Users\error414\AppData\Local\Temp\cc2t4luE.debug.temp.o
                0x0006e57d                lv_font_montserrat_46.c.5b6ba07b
 .debug_info    0x0006e5f6       0x79 C:\Users\error414\AppData\Local\Temp\ccHmhAwI.debug.temp.o
                0x0006e5f6                lv_font_montserrat_48.c.84ac990d
 .debug_info    0x0006e66f       0x79 C:\Users\error414\AppData\Local\Temp\ccEizYhQ.debug.temp.o
                0x0006e66f                lv_font_montserrat_8.c.68ee474a
 .debug_info    0x0006e6e8       0x79 C:\Users\error414\AppData\Local\Temp\cc7qpxfY.debug.temp.o
                0x0006e6e8                lv_font_simsun_16_cjk.c.aab23a14
 .debug_info    0x0006e761       0x79 C:\Users\error414\AppData\Local\Temp\cc8W06l6.debug.temp.o
                0x0006e761                lv_font_unscii_16.c.e5110ada
 .debug_info    0x0006e7da       0x79 C:\Users\error414\AppData\Local\Temp\ccTebyCe.debug.temp.o
                0x0006e7da                lv_font_unscii_8.c.5ebaa159
 .debug_info    0x0006e853      0x707 C:\Users\error414\AppData\Local\Temp\cc8f9Ggm.debug.temp.o
                0x0006e853                montserrat_10medium_1bp.c.ab40af40
 .debug_info    0x0006ef5a      0x707 C:\Users\error414\AppData\Local\Temp\ccb1D9Ss.debug.temp.o
                0x0006ef5a                montserrat_12medium_1bp.c.eebd5244
 .debug_info    0x0006f661      0x707 C:\Users\error414\AppData\Local\Temp\cc0AYtFz.debug.temp.o
                0x0006f661                montserrat_12medium_4bp.c.506d10d2
 .debug_info    0x0006fd68      0x707 C:\Users\error414\AppData\Local\Temp\ccDs3fFG.debug.temp.o
                0x0006fd68                montserrat_14medium_1bp.c.acc5c4ec
 .debug_info    0x0007046f      0x707 C:\Users\error414\AppData\Local\Temp\ccsw1yGM.debug.temp.o
                0x0007046f                montserrat_14medium_4bp.c.15caf52a
 .debug_info    0x00070b76       0x64 C:\Users\error414\AppData\Local\Temp\ccjH8cVS.debug.temp.o
                0x00070b76                lv_gpu_nxp_pxp.c.32f3fd03
 .debug_info    0x00070bda       0x64 C:\Users\error414\AppData\Local\Temp\ccGOF5nZ.debug.temp.o
                0x00070bda                lv_gpu_nxp_pxp_osa.c.29354faa
 .debug_info    0x00070c3e       0x64 C:\Users\error414\AppData\Local\Temp\cchNAiz9.debug.temp.o
                0x00070c3e                lv_gpu_nxp_vglite.c.f7f7ee8b
 .debug_info    0x00070ca2       0x79 C:\Users\error414\AppData\Local\Temp\ccgSQdTj.debug.temp.o
                0x00070ca2                lv_gpu_stm32_dma2d.c.4f56bc9f
 .debug_info    0x00070d1b     0x1256 C:\Users\error414\AppData\Local\Temp\ccLhB9lu.debug.temp.o
                0x00070d1b                lv_hal_disp.c.8c0b06ef
 .debug_info    0x00071f71     0x1096 C:\Users\error414\AppData\Local\Temp\cc0YiTSD.debug.temp.o
                0x00071f71                lv_hal_indev.c.b56522d4
 .debug_info    0x00073007      0x113 C:\Users\error414\AppData\Local\Temp\ccxDwkyN.debug.temp.o
                0x00073007                lv_hal_tick.c.da41f2d2
 .debug_info    0x0007311a       0x72 C:\Users\error414\AppData\Local\Temp\ccxmJrmP.debug.temp.o
                0x0007311a                lv_anim.c.b1e35aca
 .debug_info    0x0007318c      0x539 C:\Users\error414\AppData\Local\Temp\cch9barR.debug.temp.o
                0x0007318c                lv_area.c.4e6c5695
 .debug_info    0x000736c5      0x261 C:\Users\error414\AppData\Local\Temp\ccj56OMS.debug.temp.o
                0x000736c5                lv_async.c.a1cffa43
 .debug_info    0x00073926       0x79 C:\Users\error414\AppData\Local\Temp\ccVr4uhU.debug.temp.o
                0x00073926                lv_bidi.c.42cf8084
 .debug_info    0x0007399f      0x4a2 C:\Users\error414\AppData\Local\Temp\ccVOtkYV.debug.temp.o
                0x0007399f                lv_color.c.21f03554
 .debug_info    0x00073e41       0x64 C:\Users\error414\AppData\Local\Temp\ccP2bdDW.debug.temp.o
                0x00073e41                lv_debug.c.37e7baa5
 .debug_info    0x00073ea5       0x64 C:\Users\error414\AppData\Local\Temp\cc7y3YAX.debug.temp.o
                0x00073ea5                lv_fs.c.2c41dcbc
 .debug_info    0x00073f09      0x6dd C:\Users\error414\AppData\Local\Temp\ccRjRKHY.debug.temp.o
                0x00073f09                lv_gc.c.8da04ebd
 .debug_info    0x000745e6      0x4a6 C:\Users\error414\AppData\Local\Temp\ccnTULhZ.debug.temp.o
                0x000745e6                lv_ll.c.68fd41e1
 .debug_info    0x00074a8c       0x64 C:\Users\error414\AppData\Local\Temp\ccB3ZHI3.debug.temp.o
                0x00074a8c                lv_log.c.55d26653
 .debug_info    0x00074af0      0x374 C:\Users\error414\AppData\Local\Temp\ccdmtDi8.debug.temp.o
                0x00074af0                lv_math.c.aa94057e
 .debug_info    0x00074e64      0x7b9 C:\Users\error414\AppData\Local\Temp\cc37bLRb.debug.temp.o
                0x00074e64                lv_mem.c.9993b354
 .debug_info    0x0007561d      0x69a C:\Users\error414\AppData\Local\Temp\ccrhGTzf.debug.temp.o
                0x0007561d                lv_printf.c.7107cb67
 .debug_info    0x00075cb7      0x4d1 C:\Users\error414\AppData\Local\Temp\ccTuX4Cj.debug.temp.o
                0x00075cb7                lv_task.c.935429d9
 .debug_info    0x00076188       0x25 C:\Users\error414\AppData\Local\Temp\cczbusFm.debug.temp.o
                0x00076188                lv_templ.c.5b159259
 .debug_info    0x000761ad      0xb09 C:\Users\error414\AppData\Local\Temp\ccbQkaVp.debug.temp.o
                0x000761ad                lv_txt.c.ef31955f
 .debug_info    0x00076cb6       0x79 C:\Users\error414\AppData\Local\Temp\ccT31Mgs.debug.temp.o
                0x00076cb6                lv_txt_ap.c.34cc5ee8
 .debug_info    0x00076d2f      0x1b1 C:\Users\error414\AppData\Local\Temp\cc7LYjVu.debug.temp.o
                0x00076d2f                lv_utils.c.e6408484
 .debug_info    0x00076ee0     0x1094 C:\Users\error414\AppData\Local\Temp\ccduzasB.debug.temp.o
                0x00076ee0                lv_theme.c.f3ffd691
 .debug_info    0x00077f74       0x79 C:\Users\error414\AppData\Local\Temp\cch772jI.debug.temp.o
                0x00077f74                lv_theme_empty.c.b61b6174
 .debug_info    0x00077fed     0x21ef C:\Users\error414\AppData\Local\Temp\ccTdBLlP.debug.temp.o
                0x00077fed                lv_theme_material.c.49d7fb20
 .debug_info    0x0007a1dc     0x1c91 C:\Users\error414\AppData\Local\Temp\ccHETQlV.debug.temp.o
                0x0007a1dc                lv_theme_mono.c.a95c7d25
 .debug_info    0x0007be6d       0x79 C:\Users\error414\AppData\Local\Temp\ccBCRvt1.debug.temp.o
                0x0007be6d                lv_theme_template.c.179c1293
 .debug_info    0x0007bee6     0x26e2 C:\Users\error414\AppData\Local\Temp\cct7WDO7.debug.temp.o
                0x0007bee6                lv_arc.c.d0bc312c
 .debug_info    0x0007e5c8     0x1a23 C:\Users\error414\AppData\Local\Temp\ccVO35Kc.debug.temp.o
                0x0007e5c8                lv_bar.c.89ded046
 .debug_info    0x0007ffeb      0xd76 C:\Users\error414\AppData\Local\Temp\ccXsZXUh.debug.temp.o
                0x0007ffeb                lv_btn.c.d9c55b57
 .debug_info    0x00080d61     0x29b8 C:\Users\error414\AppData\Local\Temp\ccLJCqIq.debug.temp.o
                0x00080d61                lv_btnmatrix.c.f641c5fb
 .debug_info    0x00083719     0x2816 C:\Users\error414\AppData\Local\Temp\cclJccJz.debug.temp.o
                0x00083719                lv_calendar.c.721008ec
 .debug_info    0x00085f2f     0x2a5b C:\Users\error414\AppData\Local\Temp\cczTluYI.debug.temp.o
                0x00085f2f                lv_canvas.c.935afe76
 .debug_info    0x0008898a     0x2d4e C:\Users\error414\AppData\Local\Temp\ccnWzVbR.debug.temp.o
                0x0008898a                lv_chart.c.dc34c742
 .debug_info    0x0008b6d8     0x133a C:\Users\error414\AppData\Local\Temp\ccTlIjLY.debug.temp.o
                0x0008b6d8                lv_checkbox.c.03a2efad
 .debug_info    0x0008ca12     0x161e C:\Users\error414\AppData\Local\Temp\ccXCRuO8.debug.temp.o
                0x0008ca12                lv_cont.c.f2402a89
 .debug_info    0x0008e030     0x2907 C:\Users\error414\AppData\Local\Temp\ccJwpY4i.debug.temp.o
                0x0008e030                lv_cpicker.c.2ea3f1f5
 .debug_info    0x00090937     0x2e0d C:\Users\error414\AppData\Local\Temp\ccH6r2st.debug.temp.o
                0x00090937                lv_dropdown.c.e76cb723
 .debug_info    0x00093744     0x1d61 C:\Users\error414\AppData\Local\Temp\ccf7w7ZD.debug.temp.o
                0x00093744                lv_gauge.c.c99f6db3
 .debug_info    0x000954a5     0x2049 C:\Users\error414\AppData\Local\Temp\ccfszPAN.debug.temp.o
                0x000954a5                lv_img.c.d7c5165b
 .debug_info    0x000974ee     0x1b48 C:\Users\error414\AppData\Local\Temp\ccVmtzkX.debug.temp.o
                0x000974ee                lv_imgbtn.c.977a2beb
 .debug_info    0x00099036       0x64 C:\Users\error414\AppData\Local\Temp\ccP08Tb7.debug.temp.o
                0x00099036                lv_keyboard.c.a50691c2
 .debug_info    0x0009909a     0x227d C:\Users\error414\AppData\Local\Temp\cctg63in.debug.temp.o
                0x0009909a                lv_label.c.a75f7370
 .debug_info    0x0009b317       0x64 C:\Users\error414\AppData\Local\Temp\cczIWWyD.debug.temp.o
                0x0009b317                lv_led.c.121b34fd
 .debug_info    0x0009b37b      0xf83 C:\Users\error414\AppData\Local\Temp\cc7oJPXT.debug.temp.o
                0x0009b37b                lv_line.c.2241450c
 .debug_info    0x0009c2fe     0x1a37 C:\Users\error414\AppData\Local\Temp\cczQVco9.debug.temp.o
                0x0009c2fe                lv_linemeter.c.e33a2aa1
 .debug_info    0x0009dd35     0x2507 C:\Users\error414\AppData\Local\Temp\ccxAzjXo.debug.temp.o
                0x0009dd35                lv_list.c.9218049d
 .debug_info    0x000a023c     0x20d6 C:\Users\error414\AppData\Local\Temp\cchb6yGE.debug.temp.o
                0x000a023c                lv_msgbox.c.b1164584
 .debug_info    0x000a2312     0x10dc C:\Users\error414\AppData\Local\Temp\ccxOrgRW.debug.temp.o
                0x000a2312                lv_objmask.c.299e46ed
 .debug_info    0x000a33ee       0x64 C:\Users\error414\AppData\Local\Temp\ccdPMEtf.debug.temp.o
                0x000a33ee                lv_objx_templ.c.1e368ade
 .debug_info    0x000a3452     0x2995 C:\Users\error414\AppData\Local\Temp\ccVsBeFw.debug.temp.o
                0x000a3452                lv_page.c.5da2e511
 .debug_info    0x000a5de7     0x2adf C:\Users\error414\AppData\Local\Temp\cc7lAxZN.debug.temp.o
                0x000a5de7                lv_roller.c.a7702267
 .debug_info    0x000a88c6     0x1a90 C:\Users\error414\AppData\Local\Temp\ccHz9kF4.debug.temp.o
                0x000a88c6                lv_slider.c.463dea83
 .debug_info    0x000aa356     0x1af6 C:\Users\error414\AppData\Local\Temp\ccDy3jmp.debug.temp.o
                0x000aa356                lv_spinbox.c.65d1f335
 .debug_info    0x000abe4c       0x64 C:\Users\error414\AppData\Local\Temp\ccXzYfoK.debug.temp.o
                0x000abe4c                lv_spinner.c.a2b8c033
 .debug_info    0x000abeb0     0x1625 C:\Users\error414\AppData\Local\Temp\ccFr0OL4.debug.temp.o
                0x000abeb0                lv_switch.c.24a7fad1
 .debug_info    0x000ad4d5     0x21ac C:\Users\error414\AppData\Local\Temp\ccfBPBso.debug.temp.o
                0x000ad4d5                lv_table.c.86684484
 .debug_info    0x000af681     0x24f9 C:\Users\error414\AppData\Local\Temp\ccVz1HnI.debug.temp.o
                0x000af681                lv_tabview.c.b0291887
 .debug_info    0x000b1b7a     0x30fe C:\Users\error414\AppData\Local\Temp\ccvrz8g1.debug.temp.o
                0x000b1b7a                lv_textarea.c.aa1b7ca7
 .debug_info    0x000b4c78     0x1b58 C:\Users\error414\AppData\Local\Temp\ccNNjLmk.debug.temp.o
                0x000b4c78                lv_tileview.c.302ed3fe
 .debug_info    0x000b67d0     0x1c70 C:\Users\error414\AppData\Local\Temp\ccdEtWEG.debug.temp.o
                0x000b67d0                lv_win.c.d9cd336d
 .debug_info    0x000b8440     0x1a9a C:\Users\error414\AppData\Local\Temp\ccbyWqk3.debug.temp.o
                0x000b8440                main.c.f70dfa95
 .debug_info    0x000b9eda      0xdc5 C:\Users\error414\AppData\Local\Temp\ccFKQE8p.debug.temp.o
                0x000b9eda                shell.c.1f2dc333
 .debug_info    0x000bac9f      0xcab C:\Users\error414\AppData\Local\Temp\cchN7zfL.debug.temp.o
                0x000bac9f                shellCmd.c.4628da84
 .debug_info    0x000bb94a      0x4b9 C:\Users\error414\AppData\Local\Temp\ccn5yev6.debug.temp.o
                0x000bb94a                board.c.9e0a497e
 .debug_info    0x000bbe03     0x13d2 C:\Users\error414\AppData\Local\Temp\ccVtKMSr.debug.temp.o
                0x000bbe03                hw.c.5fce3a5e
 .debug_info    0x000bd1d5      0x3c5 C:\Users\error414\AppData\Local\Temp\ccNSI2oN.debug.temp.o
                0x000bd1d5                fc_clear.c.613d1536
 .debug_info    0x000bd59a      0x3c5 C:\Users\error414\AppData\Local\Temp\ccVX4N9c.debug.temp.o
                0x000bd59a                fc_cloud.c.d021ea9b
 .debug_info    0x000bd95f      0x3c5 C:\Users\error414\AppData\Local\Temp\ccnfawbC.debug.temp.o
                0x000bd95f                fc_drizzle.c.4a366d65
 .debug_info    0x000bdd24      0x3c5 C:\Users\error414\AppData\Local\Temp\ccFHDQe0.debug.temp.o
                0x000bdd24                fc_heavy_cloud.c.5be546ea
 .debug_info    0x000be0e9      0x3c5 C:\Users\error414\AppData\Local\Temp\ccDHVVqo.debug.temp.o
                0x000be0e9                fc_part_clound.c.b2cfe53b
 .debug_info    0x000be4ae      0x3c5 C:\Users\error414\AppData\Local\Temp\cc94Y1LM.debug.temp.o
                0x000be4ae                fc_rain.c.676a7012
 .debug_info    0x000be873      0x3c5 C:\Users\error414\AppData\Local\Temp\ccJKEzlb.debug.temp.o
                0x000be873                fc_snow.c.c54a2c39
 .debug_info    0x000bec38      0x3c5 C:\Users\error414\AppData\Local\Temp\ccP8MK9y.debug.temp.o
                0x000bec38                fc_thunderstorm.c.709e6dd9
 .debug_info    0x000beffd      0x3c4 C:\Users\error414\AppData\Local\Temp\ccvXXW6W.debug.temp.o
                0x000beffd                humidity36.c.d628e6ac
 .debug_info    0x000bf3c1      0x3c4 C:\Users\error414\AppData\Local\Temp\cc1Oo1So.debug.temp.o
                0x000bf3c1                no_rain36.c.bb3ef5e8
 .debug_info    0x000bf785      0x3c4 C:\Users\error414\AppData\Local\Temp\ccpWbIVQ.debug.temp.o
                0x000bf785                pressure36.c.7703d26f
 .debug_info    0x000bfb49      0x3c4 C:\Users\error414\AppData\Local\Temp\cc9e701h.debug.temp.o
                0x000bfb49                rain36.c.ba492c19
 .debug_info    0x000bff0d      0x3c4 C:\Users\error414\AppData\Local\Temp\ccFgZClJ.debug.temp.o
                0x000bff0d                sun36.c.6406a790
 .debug_info    0x000c02d1      0x3c4 C:\Users\error414\AppData\Local\Temp\ccVXghOa.debug.temp.o
                0x000c02d1                temp.c.d4c6d94b
 .debug_info    0x000c0695      0x3c4 C:\Users\error414\AppData\Local\Temp\ccx8nhrB.debug.temp.o
                0x000c0695                uv36.c.9c97b822
 .debug_info    0x000c0a59      0x3c4 C:\Users\error414\AppData\Local\Temp\cc9uzIi2.debug.temp.o
                0x000c0a59                wind36.c.579e987b
 .debug_info    0x000c0e1d      0x641 C:\Users\error414\AppData\Local\Temp\ccJOBd8r.debug.temp.o
                0x000c0e1d                digital_16.c.3e6a4861
 .debug_info    0x000c145e      0x641 C:\Users\error414\AppData\Local\Temp\cc18m39R.debug.temp.o
                0x000c145e                digital_20.c.7c7b55b1
 .debug_info    0x000c1a9f      0x641 C:\Users\error414\AppData\Local\Temp\ccpUQ34l.debug.temp.o
                0x000c1a9f                digital_48.c.87a37848
 .debug_info    0x000c20e0      0x663 C:\Users\error414\AppData\Local\Temp\ccpxuEgQ.debug.temp.o
                0x000c20e0                dogica12.c.9450a0c3
 .debug_info    0x000c2743      0x685 C:\Users\error414\AppData\Local\Temp\ccnHfIFk.debug.temp.o
                0x000c2743                omega12.c.945ad534
 .debug_info    0x000c2dc8      0x663 C:\Users\error414\AppData\Local\Temp\ccNHux8N.debug.temp.o
                0x000c2dc8                omega16.c.3f95c532
 .debug_info    0x000c342b      0x663 C:\Users\error414\AppData\Local\Temp\ccN6I6Jh.debug.temp.o
                0x000c342b                omega20.c.e56fffff
 .debug_info    0x000c3a8e      0x642 C:\Users\error414\AppData\Local\Temp\cc77zsKK.debug.temp.o
                0x000c3a8e                press12.c.d27e574b
 .debug_info    0x000c40d0      0x642 C:\Users\error414\AppData\Local\Temp\cchusgYd.debug.temp.o
                0x000c40d0                press14.c.73bed5fd
 .debug_info    0x000c4712      0x642 C:\Users\error414\AppData\Local\Temp\cc9gNZ8F.debug.temp.o
                0x000c4712                press16.c.8d6b71a5
 .debug_info    0x000c4d54      0x663 C:\Users\error414\AppData\Local\Temp\cc7MBtB8.debug.temp.o
                0x000c4d54                retro12.c.d7c2182d
 .debug_info    0x000c53b7      0x663 C:\Users\error414\AppData\Local\Temp\ccN3K5dB.debug.temp.o
                0x000c53b7                retro20.c.1ba0bf5c
 .debug_info    0x000c5a1a      0x641 C:\Users\error414\AppData\Local\Temp\ccDF6rv7.debug.temp.o
                0x000c5a1a                upheaval16.c.bbc958eb
 .debug_info    0x000c605b      0x685 C:\Users\error414\AppData\Local\Temp\cc7N2PVD.debug.temp.o
                0x000c605b                upheaval20.c.22f05410
 .debug_info    0x000c66e0      0x685 C:\Users\error414\AppData\Local\Temp\ccDn6Mta.debug.temp.o
                0x000c66e0                upheaval30.c.7824c6da
 .debug_info    0x000c6d65      0x685 C:\Users\error414\AppData\Local\Temp\cc1WZX9F.debug.temp.o
                0x000c6d65                upheaval48.c.32ed4171
 .debug_info    0x000c73ea      0x980 C:\Users\error414\AppData\Local\Temp\cc9FM2Yb.debug.temp.o
                0x000c73ea                guHeader.c.0f1aa965
 .debug_info    0x000c7d6a      0xb99 C:\Users\error414\AppData\Local\Temp\ccJ9hw1H.debug.temp.o
                0x000c7d6a                guiForecast.c.df37c1e5
 .debug_info    0x000c8903     0x1327 C:\Users\error414\AppData\Local\Temp\ccB8GOyc.debug.temp.o
                0x000c8903                guiInside.c.99cbabaf
 .debug_info    0x000c9c2a     0x108c C:\Users\error414\AppData\Local\Temp\ccLMcotH.debug.temp.o
                0x000c9c2a                guiMain.c.0809ba16
 .debug_info    0x000cacb6     0x13b5 C:\Users\error414\AppData\Local\Temp\ccjx3Fwc.debug.temp.o
                0x000cacb6                guiOutside.c.78c29733
 .debug_info    0x000cc06b      0xd27 C:\Users\error414\AppData\Local\Temp\ccVFLvMK.debug.temp.o
                0x000cc06b                EPD_7in5_HD.c.0ba99a83
 .debug_info    0x000ccd92     0x1263 C:\Users\error414\AppData\Local\Temp\ccdgpxej.debug.temp.o
                0x000ccd92                bmp280.c.b8fa7725
 .debug_info    0x000cdff5      0x272 C:\Users\error414\AppData\Local\Temp\ccLMclJQ.debug.temp.o
                0x000cdff5                msp.c.6665bbe0
 .debug_info    0x000ce267     0x1566 C:\Users\error414\AppData\Local\Temp\ccxQZBso.debug.temp.o
                0x000ce267                bmp280Thread.c.fe982754
 .debug_info    0x000cf7cd     0x1cfb C:\Users\error414\AppData\Local\Temp\ccdLDvzV.debug.temp.o
                0x000cf7cd                guiThread.c.3e1adbad
 .debug_info    0x000d14c8     0x1749 C:\Users\error414\AppData\Local\Temp\ccvP4SLw.debug.temp.o
                0x000d14c8                hc12Thread.c.827ec851
 .debug_info    0x000d2c11      0xc07 C:\Users\error414\AppData\Local\Temp\ccfidah8.debug.temp.o
                0x000d2c11                hwListThread.c.655d6449
 .debug_info    0x000d3818      0xea3 C:\Users\error414\AppData\Local\Temp\ccrrS89I.debug.temp.o
                0x000d3818                mspRxThread.c.1b47220f
 .debug_info    0x000d46bb      0x207 C:\Users\error414\AppData\Local\Temp\ccZLFJ6i.debug.temp.o
                0x000d46bb                pools.c.b31364ea
 .debug_info    0x000d48c2       0x26 CMakeFiles/stm32-chibios.dir/C_/Users/error414/Documents/STM32/meteo-F4/ChibiOS/os/common/startup/ARMCMx/compilers/GCC/crt0_v7m.S.obj
 .debug_info    0x000d48e8       0x26 CMakeFiles/stm32-chibios.dir/C_/Users/error414/Documents/STM32/meteo-F4/ChibiOS/os/common/startup/ARMCMx/compilers/GCC/vectors.S.obj
 .debug_info    0x000d490e       0x26 CMakeFiles/stm32-chibios.dir/C_/Users/error414/Documents/STM32/meteo-F4/ChibiOS/os/common/ports/ARMv7-M/compilers/GCC/chcoreasm.S.obj

.debug_abbrev   0x00000000    0x1539c
 .debug_abbrev  0x00000000      0x2a9 C:\Users\error414\AppData\Local\Temp\stm32-chibios.0UTc6U.ltrans0.ltrans.o
 .debug_abbrev  0x000002a9      0x231 C:\Users\error414\AppData\Local\Temp\stm32-chibios.0UTc6U.ltrans1.ltrans.o
 .debug_abbrev  0x000004da      0x1fd C:\Users\error414\AppData\Local\Temp\stm32-chibios.0UTc6U.ltrans2.ltrans.o
 .debug_abbrev  0x000006d7      0x24e C:\Users\error414\AppData\Local\Temp\stm32-chibios.0UTc6U.ltrans3.ltrans.o
 .debug_abbrev  0x00000925       0xe5 C:\Users\error414\AppData\Local\Temp\ccLignFf.debug.temp.o
 .debug_abbrev  0x00000a0a       0x46 C:\Users\error414\AppData\Local\Temp\ccOfRvXS.debug.temp.o
 .debug_abbrev  0x00000a50      0x13b C:\Users\error414\AppData\Local\Temp\ccfbBgnw.debug.temp.o
 .debug_abbrev  0x00000b8b      0x235 C:\Users\error414\AppData\Local\Temp\cc2bs0V9.debug.temp.o
 .debug_abbrev  0x00000dc0      0x248 C:\Users\error414\AppData\Local\Temp\ccLgwDEN.debug.temp.o
 .debug_abbrev  0x00001008      0x13e C:\Users\error414\AppData\Local\Temp\ccORLUpq.debug.temp.o
 .debug_abbrev  0x00001146       0x26 C:\Users\error414\AppData\Local\Temp\ccbvRak3.debug.temp.o
 .debug_abbrev  0x0000116c      0x229 C:\Users\error414\AppData\Local\Temp\cc2LHsqG.debug.temp.o
 .debug_abbrev  0x00001395      0x13c C:\Users\error414\AppData\Local\Temp\ccrqjLFj.debug.temp.o
 .debug_abbrev  0x000014d1       0x26 C:\Users\error414\AppData\Local\Temp\cceNxhUV.debug.temp.o
 .debug_abbrev  0x000014f7      0x284 C:\Users\error414\AppData\Local\Temp\ccVcrBGx.debug.temp.o
 .debug_abbrev  0x0000177b      0x238 C:\Users\error414\AppData\Local\Temp\ccc1jFB9.debug.temp.o
 .debug_abbrev  0x000019b3      0x130 C:\Users\error414\AppData\Local\Temp\cc1cUTnP.debug.temp.o
 .debug_abbrev  0x00001ae3      0x1fc C:\Users\error414\AppData\Local\Temp\ccYg8rov.debug.temp.o
 .debug_abbrev  0x00001cdf      0x12d C:\Users\error414\AppData\Local\Temp\cc7io5fa.debug.temp.o
 .debug_abbrev  0x00001e0c       0x26 C:\Users\error414\AppData\Local\Temp\ccuoyEoO.debug.temp.o
 .debug_abbrev  0x00001e32      0x23c C:\Users\error414\AppData\Local\Temp\ccHOJFKs.debug.temp.o
 .debug_abbrev  0x0000206e       0x26 C:\Users\error414\AppData\Local\Temp\ccSbAQOa.debug.temp.o
 .debug_abbrev  0x00002094      0x194 C:\Users\error414\AppData\Local\Temp\cc5L8yqS.debug.temp.o
 .debug_abbrev  0x00002228      0x2c4 C:\Users\error414\AppData\Local\Temp\ccqgwWez.debug.temp.o
 .debug_abbrev  0x000024ec      0x245 C:\Users\error414\AppData\Local\Temp\ccj8Ekcg.debug.temp.o
 .debug_abbrev  0x00002731      0x137 C:\Users\error414\AppData\Local\Temp\ccwUHRlX.debug.temp.o
 .debug_abbrev  0x00002868       0x26 C:\Users\error414\AppData\Local\Temp\cc7Y1lMD.debug.temp.o
 .debug_abbrev  0x0000288e      0x284 C:\Users\error414\AppData\Local\Temp\ccygrstk.debug.temp.o
 .debug_abbrev  0x00002b12       0x26 C:\Users\error414\AppData\Local\Temp\ccTwTxP4.debug.temp.o
 .debug_abbrev  0x00002b38      0x2ff C:\Users\error414\AppData\Local\Temp\ccShTnkP.debug.temp.o
 .debug_abbrev  0x00002e37      0x179 C:\Users\error414\AppData\Local\Temp\cc78V57z.debug.temp.o
 .debug_abbrev  0x00002fb0       0x26 C:\Users\error414\AppData\Local\Temp\ccgTk8Tj.debug.temp.o
 .debug_abbrev  0x00002fd6      0x286 C:\Users\error414\AppData\Local\Temp\ccNBSMN3.debug.temp.o
 .debug_abbrev  0x0000325c      0x235 C:\Users\error414\AppData\Local\Temp\cc8BaTUN.debug.temp.o
 .debug_abbrev  0x00003491      0x23a C:\Users\error414\AppData\Local\Temp\cc38DPby.debug.temp.o
 .debug_abbrev  0x000036cb      0x29b C:\Users\error414\AppData\Local\Temp\ccoJIJyh.debug.temp.o
 .debug_abbrev  0x00003966      0x1a7 C:\Users\error414\AppData\Local\Temp\ccfcnAd1.debug.temp.o
 .debug_abbrev  0x00003b0d      0x232 C:\Users\error414\AppData\Local\Temp\cckKqk0N.debug.temp.o
 .debug_abbrev  0x00003d3f      0x269 C:\Users\error414\AppData\Local\Temp\ccNM7LDA.debug.temp.o
 .debug_abbrev  0x00003fa8      0x256 C:\Users\error414\AppData\Local\Temp\cceWQyIl.debug.temp.o
 .debug_abbrev  0x000041fe      0x258 C:\Users\error414\AppData\Local\Temp\ccvOb636.debug.temp.o
 .debug_abbrev  0x00004456      0x250 C:\Users\error414\AppData\Local\Temp\ccMiSu4V.debug.temp.o
 .debug_abbrev  0x000046a6      0x22d C:\Users\error414\AppData\Local\Temp\cc383RQK.debug.temp.o
 .debug_abbrev  0x000048d3      0x1e0 C:\Users\error414\AppData\Local\Temp\ccWszgMz.debug.temp.o
 .debug_abbrev  0x00004ab3      0x20d C:\Users\error414\AppData\Local\Temp\ccDEBUao.debug.temp.o
 .debug_abbrev  0x00004cc0      0x1ff C:\Users\error414\AppData\Local\Temp\ccq1TaCb.debug.temp.o
 .debug_abbrev  0x00004ebf      0x229 C:\Users\error414\AppData\Local\Temp\ccBml3aZ.debug.temp.o
 .debug_abbrev  0x000050e8      0x23f C:\Users\error414\AppData\Local\Temp\ccqK9lXM.debug.temp.o
 .debug_abbrev  0x00005327      0x1fd C:\Users\error414\AppData\Local\Temp\ccxNswpE.debug.temp.o
 .debug_abbrev  0x00005524      0x242 C:\Users\error414\AppData\Local\Temp\ccqzIZ4v.debug.temp.o
 .debug_abbrev  0x00005766      0x225 C:\Users\error414\AppData\Local\Temp\ccpQszLm.debug.temp.o
 .debug_abbrev  0x0000598b      0x23e C:\Users\error414\AppData\Local\Temp\ccaMpbqc.debug.temp.o
 .debug_abbrev  0x00005bc9      0x23e C:\Users\error414\AppData\Local\Temp\ccB9hZg2.debug.temp.o
 .debug_abbrev  0x00005e07      0x1a6 C:\Users\error414\AppData\Local\Temp\ccWfDpeW.debug.temp.o
 .debug_abbrev  0x00005fad      0x19a C:\Users\error414\AppData\Local\Temp\cc1persQ.debug.temp.o
 .debug_abbrev  0x00006147      0x104 C:\Users\error414\AppData\Local\Temp\ccsRSGXJ.debug.temp.o
 .debug_abbrev  0x0000624b      0x108 C:\Users\error414\AppData\Local\Temp\ccXO6QyC.debug.temp.o
 .debug_abbrev  0x00006353      0x125 C:\Users\error414\AppData\Local\Temp\ccW1uKiv.debug.temp.o
 .debug_abbrev  0x00006478      0x265 C:\Users\error414\AppData\Local\Temp\ccblGfho.debug.temp.o
 .debug_abbrev  0x000066dd      0x210 C:\Users\error414\AppData\Local\Temp\ccoBIOdg.debug.temp.o
 .debug_abbrev  0x000068ed      0x2df C:\Users\error414\AppData\Local\Temp\ccXWRmj8.debug.temp.o
 .debug_abbrev  0x00006bcc      0x328 C:\Users\error414\AppData\Local\Temp\cc2McZp4.debug.temp.o
 .debug_abbrev  0x00006ef4      0x2cd C:\Users\error414\AppData\Local\Temp\ccrDkjF0.debug.temp.o
 .debug_abbrev  0x000071c1      0x224 C:\Users\error414\AppData\Local\Temp\ccQDDUnW.debug.temp.o
 .debug_abbrev  0x000073e5      0x20e C:\Users\error414\AppData\Local\Temp\ccDgeKyR.debug.temp.o
 .debug_abbrev  0x000075f3      0x2a0 C:\Users\error414\AppData\Local\Temp\ccgOcsTM.debug.temp.o
 .debug_abbrev  0x00007893      0x2b3 C:\Users\error414\AppData\Local\Temp\ccHxa7sH.debug.temp.o
 .debug_abbrev  0x00007b46      0x2b6 C:\Users\error414\AppData\Local\Temp\cc2pWERF.debug.temp.o
 .debug_abbrev  0x00007dfc      0x273 C:\Users\error414\AppData\Local\Temp\ccFJRSDD.debug.temp.o
 .debug_abbrev  0x0000806f      0x23b C:\Users\error414\AppData\Local\Temp\ccUGxF6A.debug.temp.o
 .debug_abbrev  0x000082aa      0x2b3 C:\Users\error414\AppData\Local\Temp\cc7guKNy.debug.temp.o
 .debug_abbrev  0x0000855d      0x1a6 C:\Users\error414\AppData\Local\Temp\ccaEe9sv.debug.temp.o
 .debug_abbrev  0x00008703      0x24f C:\Users\error414\AppData\Local\Temp\ccXe02ys.debug.temp.o
 .debug_abbrev  0x00008952      0x1b1 C:\Users\error414\AppData\Local\Temp\ccCPpgxt.debug.temp.o
 .debug_abbrev  0x00008b03      0x27b C:\Users\error414\AppData\Local\Temp\ccL3zvHu.debug.temp.o
 .debug_abbrev  0x00008d7e       0xfd C:\Users\error414\AppData\Local\Temp\ccWmc6Pu.debug.temp.o
 .debug_abbrev  0x00008e7b       0x26 C:\Users\error414\AppData\Local\Temp\cc3Lk7cv.debug.temp.o
 .debug_abbrev  0x00008ea1      0x1e7 C:\Users\error414\AppData\Local\Temp\ccguJG7u.debug.temp.o
 .debug_abbrev  0x00009088       0x26 C:\Users\error414\AppData\Local\Temp\cc78Jbhu.debug.temp.o
 .debug_abbrev  0x000090ae       0x26 C:\Users\error414\AppData\Local\Temp\ccG6q1Nt.debug.temp.o
 .debug_abbrev  0x000090d4      0x148 C:\Users\error414\AppData\Local\Temp\ccnom83w.debug.temp.o
 .debug_abbrev  0x0000921c       0x26 C:\Users\error414\AppData\Local\Temp\cckskQrA.debug.temp.o
 .debug_abbrev  0x00009242      0x148 C:\Users\error414\AppData\Local\Temp\ccd0802D.debug.temp.o
 .debug_abbrev  0x0000938a       0x26 C:\Users\error414\AppData\Local\Temp\cc8a1ZTG.debug.temp.o
 .debug_abbrev  0x000093b0       0x26 C:\Users\error414\AppData\Local\Temp\ccjMwCNI.debug.temp.o
 .debug_abbrev  0x000093d6       0x26 C:\Users\error414\AppData\Local\Temp\cc2KNfQK.debug.temp.o
 .debug_abbrev  0x000093fc       0x26 C:\Users\error414\AppData\Local\Temp\cclggJ2M.debug.temp.o
 .debug_abbrev  0x00009422       0x26 C:\Users\error414\AppData\Local\Temp\cca6cdoP.debug.temp.o
 .debug_abbrev  0x00009448       0x26 C:\Users\error414\AppData\Local\Temp\ccJpTCGQ.debug.temp.o
 .debug_abbrev  0x0000946e       0x26 C:\Users\error414\AppData\Local\Temp\cc2oZ47R.debug.temp.o
 .debug_abbrev  0x00009494       0x26 C:\Users\error414\AppData\Local\Temp\cchY4ONT.debug.temp.o
 .debug_abbrev  0x000094ba       0x26 C:\Users\error414\AppData\Local\Temp\cckrgSlZ.debug.temp.o
 .debug_abbrev  0x000094e0       0x26 C:\Users\error414\AppData\Local\Temp\ccxxFv14.debug.temp.o
 .debug_abbrev  0x00009506       0x26 C:\Users\error414\AppData\Local\Temp\ccIacCUa.debug.temp.o
 .debug_abbrev  0x0000952c       0x26 C:\Users\error414\AppData\Local\Temp\cc3aqUMf.debug.temp.o
 .debug_abbrev  0x00009552       0x26 C:\Users\error414\AppData\Local\Temp\ccQpAcOk.debug.temp.o
 .debug_abbrev  0x00009578       0x26 C:\Users\error414\AppData\Local\Temp\ccRnw5Wp.debug.temp.o
 .debug_abbrev  0x0000959e       0x26 C:\Users\error414\AppData\Local\Temp\ccKdeijv.debug.temp.o
 .debug_abbrev  0x000095c4       0x26 C:\Users\error414\AppData\Local\Temp\ccxAgkJz.debug.temp.o
 .debug_abbrev  0x000095ea       0x26 C:\Users\error414\AppData\Local\Temp\cc2t4luE.debug.temp.o
 .debug_abbrev  0x00009610       0x26 C:\Users\error414\AppData\Local\Temp\ccHmhAwI.debug.temp.o
 .debug_abbrev  0x00009636       0x26 C:\Users\error414\AppData\Local\Temp\ccEizYhQ.debug.temp.o
 .debug_abbrev  0x0000965c       0x26 C:\Users\error414\AppData\Local\Temp\cc7qpxfY.debug.temp.o
 .debug_abbrev  0x00009682       0x26 C:\Users\error414\AppData\Local\Temp\cc8W06l6.debug.temp.o
 .debug_abbrev  0x000096a8       0x26 C:\Users\error414\AppData\Local\Temp\ccTebyCe.debug.temp.o
 .debug_abbrev  0x000096ce      0x139 C:\Users\error414\AppData\Local\Temp\cc8f9Ggm.debug.temp.o
 .debug_abbrev  0x00009807      0x139 C:\Users\error414\AppData\Local\Temp\ccb1D9Ss.debug.temp.o
 .debug_abbrev  0x00009940      0x139 C:\Users\error414\AppData\Local\Temp\cc0AYtFz.debug.temp.o
 .debug_abbrev  0x00009a79      0x139 C:\Users\error414\AppData\Local\Temp\ccDs3fFG.debug.temp.o
 .debug_abbrev  0x00009bb2      0x139 C:\Users\error414\AppData\Local\Temp\ccsw1yGM.debug.temp.o
 .debug_abbrev  0x00009ceb       0x26 C:\Users\error414\AppData\Local\Temp\ccjH8cVS.debug.temp.o
 .debug_abbrev  0x00009d11       0x26 C:\Users\error414\AppData\Local\Temp\ccGOF5nZ.debug.temp.o
 .debug_abbrev  0x00009d37       0x26 C:\Users\error414\AppData\Local\Temp\cchNAiz9.debug.temp.o
 .debug_abbrev  0x00009d5d       0x26 C:\Users\error414\AppData\Local\Temp\ccgSQdTj.debug.temp.o
 .debug_abbrev  0x00009d83      0x2a9 C:\Users\error414\AppData\Local\Temp\ccLhB9lu.debug.temp.o
 .debug_abbrev  0x0000a02c      0x21a C:\Users\error414\AppData\Local\Temp\cc0YiTSD.debug.temp.o
 .debug_abbrev  0x0000a246       0x80 C:\Users\error414\AppData\Local\Temp\ccxDwkyN.debug.temp.o
 .debug_abbrev  0x0000a2c6       0x26 C:\Users\error414\AppData\Local\Temp\ccxmJrmP.debug.temp.o
 .debug_abbrev  0x0000a2ec      0x16b C:\Users\error414\AppData\Local\Temp\cch9barR.debug.temp.o
 .debug_abbrev  0x0000a457       0xfd C:\Users\error414\AppData\Local\Temp\ccj56OMS.debug.temp.o
 .debug_abbrev  0x0000a554       0x26 C:\Users\error414\AppData\Local\Temp\ccVr4uhU.debug.temp.o
 .debug_abbrev  0x0000a57a      0x1ea C:\Users\error414\AppData\Local\Temp\ccVOtkYV.debug.temp.o
 .debug_abbrev  0x0000a764       0x26 C:\Users\error414\AppData\Local\Temp\ccP2bdDW.debug.temp.o
 .debug_abbrev  0x0000a78a       0x26 C:\Users\error414\AppData\Local\Temp\cc7y3YAX.debug.temp.o
 .debug_abbrev  0x0000a7b0      0x185 C:\Users\error414\AppData\Local\Temp\ccRjRKHY.debug.temp.o
 .debug_abbrev  0x0000a935      0x151 C:\Users\error414\AppData\Local\Temp\ccnTULhZ.debug.temp.o
 .debug_abbrev  0x0000aa86       0x26 C:\Users\error414\AppData\Local\Temp\ccB3ZHI3.debug.temp.o
 .debug_abbrev  0x0000aaac       0xee C:\Users\error414\AppData\Local\Temp\ccdmtDi8.debug.temp.o
 .debug_abbrev  0x0000ab9a      0x200 C:\Users\error414\AppData\Local\Temp\cc37bLRb.debug.temp.o
 .debug_abbrev  0x0000ad9a      0x16e C:\Users\error414\AppData\Local\Temp\ccrhGTzf.debug.temp.o
 .debug_abbrev  0x0000af08      0x1c1 C:\Users\error414\AppData\Local\Temp\ccTuX4Cj.debug.temp.o
 .debug_abbrev  0x0000b0c9       0x1b C:\Users\error414\AppData\Local\Temp\cczbusFm.debug.temp.o
 .debug_abbrev  0x0000b0e4      0x21c C:\Users\error414\AppData\Local\Temp\ccbQkaVp.debug.temp.o
 .debug_abbrev  0x0000b300       0x26 C:\Users\error414\AppData\Local\Temp\ccT31Mgs.debug.temp.o
 .debug_abbrev  0x0000b326       0xd3 C:\Users\error414\AppData\Local\Temp\cc7LYjVu.debug.temp.o
 .debug_abbrev  0x0000b3f9      0x1d7 C:\Users\error414\AppData\Local\Temp\ccduzasB.debug.temp.o
 .debug_abbrev  0x0000b5d0       0x26 C:\Users\error414\AppData\Local\Temp\cch772jI.debug.temp.o
 .debug_abbrev  0x0000b5f6      0x243 C:\Users\error414\AppData\Local\Temp\ccTdBLlP.debug.temp.o
 .debug_abbrev  0x0000b839      0x23a C:\Users\error414\AppData\Local\Temp\ccHETQlV.debug.temp.o
 .debug_abbrev  0x0000ba73       0x26 C:\Users\error414\AppData\Local\Temp\ccBCRvt1.debug.temp.o
 .debug_abbrev  0x0000ba99      0x2f5 C:\Users\error414\AppData\Local\Temp\cct7WDO7.debug.temp.o
 .debug_abbrev  0x0000bd8e      0x2a1 C:\Users\error414\AppData\Local\Temp\ccVO35Kc.debug.temp.o
 .debug_abbrev  0x0000c02f      0x1ec C:\Users\error414\AppData\Local\Temp\ccXsZXUh.debug.temp.o
 .debug_abbrev  0x0000c21b      0x306 C:\Users\error414\AppData\Local\Temp\ccLJCqIq.debug.temp.o
 .debug_abbrev  0x0000c521      0x306 C:\Users\error414\AppData\Local\Temp\cclJccJz.debug.temp.o
 .debug_abbrev  0x0000c827      0x2d1 C:\Users\error414\AppData\Local\Temp\cczTluYI.debug.temp.o
 .debug_abbrev  0x0000caf8      0x2cf C:\Users\error414\AppData\Local\Temp\ccnWzVbR.debug.temp.o
 .debug_abbrev  0x0000cdc7      0x21f C:\Users\error414\AppData\Local\Temp\ccTlIjLY.debug.temp.o
 .debug_abbrev  0x0000cfe6      0x226 C:\Users\error414\AppData\Local\Temp\ccXCRuO8.debug.temp.o
 .debug_abbrev  0x0000d20c      0x317 C:\Users\error414\AppData\Local\Temp\ccJwpY4i.debug.temp.o
 .debug_abbrev  0x0000d523      0x319 C:\Users\error414\AppData\Local\Temp\ccH6r2st.debug.temp.o
 .debug_abbrev  0x0000d83c      0x2bf C:\Users\error414\AppData\Local\Temp\ccf7w7ZD.debug.temp.o
 .debug_abbrev  0x0000dafb      0x292 C:\Users\error414\AppData\Local\Temp\ccfszPAN.debug.temp.o
 .debug_abbrev  0x0000dd8d      0x26f C:\Users\error414\AppData\Local\Temp\ccVmtzkX.debug.temp.o
 .debug_abbrev  0x0000dffc       0x26 C:\Users\error414\AppData\Local\Temp\ccP08Tb7.debug.temp.o
 .debug_abbrev  0x0000e022      0x2fa C:\Users\error414\AppData\Local\Temp\cctg63in.debug.temp.o
 .debug_abbrev  0x0000e31c       0x26 C:\Users\error414\AppData\Local\Temp\cczIWWyD.debug.temp.o
 .debug_abbrev  0x0000e342      0x22f C:\Users\error414\AppData\Local\Temp\cc7oJPXT.debug.temp.o
 .debug_abbrev  0x0000e571      0x272 C:\Users\error414\AppData\Local\Temp\cczQVco9.debug.temp.o
 .debug_abbrev  0x0000e7e3      0x2f5 C:\Users\error414\AppData\Local\Temp\ccxAzjXo.debug.temp.o
 .debug_abbrev  0x0000ead8      0x327 C:\Users\error414\AppData\Local\Temp\cchb6yGE.debug.temp.o
 .debug_abbrev  0x0000edff      0x1ce C:\Users\error414\AppData\Local\Temp\ccxOrgRW.debug.temp.o
 .debug_abbrev  0x0000efcd       0x26 C:\Users\error414\AppData\Local\Temp\ccdPMEtf.debug.temp.o
 .debug_abbrev  0x0000eff3      0x306 C:\Users\error414\AppData\Local\Temp\ccVsBeFw.debug.temp.o
 .debug_abbrev  0x0000f2f9      0x319 C:\Users\error414\AppData\Local\Temp\cc7lAxZN.debug.temp.o
 .debug_abbrev  0x0000f612      0x279 C:\Users\error414\AppData\Local\Temp\ccHz9kF4.debug.temp.o
 .debug_abbrev  0x0000f88b      0x2d1 C:\Users\error414\AppData\Local\Temp\ccDy3jmp.debug.temp.o
 .debug_abbrev  0x0000fb5c       0x26 C:\Users\error414\AppData\Local\Temp\ccXzYfoK.debug.temp.o
 .debug_abbrev  0x0000fb82      0x26a C:\Users\error414\AppData\Local\Temp\ccFr0OL4.debug.temp.o
 .debug_abbrev  0x0000fdec      0x2e7 C:\Users\error414\AppData\Local\Temp\ccfBPBso.debug.temp.o
 .debug_abbrev  0x000100d3      0x2f3 C:\Users\error414\AppData\Local\Temp\ccVz1HnI.debug.temp.o
 .debug_abbrev  0x000103c6      0x319 C:\Users\error414\AppData\Local\Temp\ccvrz8g1.debug.temp.o
 .debug_abbrev  0x000106df      0x2d1 C:\Users\error414\AppData\Local\Temp\ccNNjLmk.debug.temp.o
 .debug_abbrev  0x000109b0      0x2b4 C:\Users\error414\AppData\Local\Temp\ccdEtWEG.debug.temp.o
 .debug_abbrev  0x00010c64      0x2ab C:\Users\error414\AppData\Local\Temp\ccbyWqk3.debug.temp.o
 .debug_abbrev  0x00010f0f      0x274 C:\Users\error414\AppData\Local\Temp\ccFKQE8p.debug.temp.o
 .debug_abbrev  0x00011183      0x1cc C:\Users\error414\AppData\Local\Temp\cchN7zfL.debug.temp.o
 .debug_abbrev  0x0001134f      0x14d C:\Users\error414\AppData\Local\Temp\ccn5yev6.debug.temp.o
 .debug_abbrev  0x0001149c      0x1f7 C:\Users\error414\AppData\Local\Temp\ccVtKMSr.debug.temp.o
 .debug_abbrev  0x00011693       0xd2 C:\Users\error414\AppData\Local\Temp\ccNSI2oN.debug.temp.o
 .debug_abbrev  0x00011765       0xd2 C:\Users\error414\AppData\Local\Temp\ccVX4N9c.debug.temp.o
 .debug_abbrev  0x00011837       0xd2 C:\Users\error414\AppData\Local\Temp\ccnfawbC.debug.temp.o
 .debug_abbrev  0x00011909       0xd2 C:\Users\error414\AppData\Local\Temp\ccFHDQe0.debug.temp.o
 .debug_abbrev  0x000119db       0xd2 C:\Users\error414\AppData\Local\Temp\ccDHVVqo.debug.temp.o
 .debug_abbrev  0x00011aad       0xd2 C:\Users\error414\AppData\Local\Temp\cc94Y1LM.debug.temp.o
 .debug_abbrev  0x00011b7f       0xd2 C:\Users\error414\AppData\Local\Temp\ccJKEzlb.debug.temp.o
 .debug_abbrev  0x00011c51       0xd2 C:\Users\error414\AppData\Local\Temp\ccP8MK9y.debug.temp.o
 .debug_abbrev  0x00011d23       0xd2 C:\Users\error414\AppData\Local\Temp\ccvXXW6W.debug.temp.o
 .debug_abbrev  0x00011df5       0xd2 C:\Users\error414\AppData\Local\Temp\cc1Oo1So.debug.temp.o
 .debug_abbrev  0x00011ec7       0xd2 C:\Users\error414\AppData\Local\Temp\ccpWbIVQ.debug.temp.o
 .debug_abbrev  0x00011f99       0xd2 C:\Users\error414\AppData\Local\Temp\cc9e701h.debug.temp.o
 .debug_abbrev  0x0001206b       0xd2 C:\Users\error414\AppData\Local\Temp\ccFgZClJ.debug.temp.o
 .debug_abbrev  0x0001213d       0xd2 C:\Users\error414\AppData\Local\Temp\ccVXghOa.debug.temp.o
 .debug_abbrev  0x0001220f       0xd2 C:\Users\error414\AppData\Local\Temp\ccx8nhrB.debug.temp.o
 .debug_abbrev  0x000122e1       0xd2 C:\Users\error414\AppData\Local\Temp\cc9uzIi2.debug.temp.o
 .debug_abbrev  0x000123b3      0x139 C:\Users\error414\AppData\Local\Temp\ccJOBd8r.debug.temp.o
 .debug_abbrev  0x000124ec      0x139 C:\Users\error414\AppData\Local\Temp\cc18m39R.debug.temp.o
 .debug_abbrev  0x00012625      0x139 C:\Users\error414\AppData\Local\Temp\ccpUQ34l.debug.temp.o
 .debug_abbrev  0x0001275e      0x139 C:\Users\error414\AppData\Local\Temp\ccpxuEgQ.debug.temp.o
 .debug_abbrev  0x00012897      0x139 C:\Users\error414\AppData\Local\Temp\ccnHfIFk.debug.temp.o
 .debug_abbrev  0x000129d0      0x139 C:\Users\error414\AppData\Local\Temp\ccNHux8N.debug.temp.o
 .debug_abbrev  0x00012b09      0x139 C:\Users\error414\AppData\Local\Temp\ccN6I6Jh.debug.temp.o
 .debug_abbrev  0x00012c42      0x139 C:\Users\error414\AppData\Local\Temp\cc77zsKK.debug.temp.o
 .debug_abbrev  0x00012d7b      0x139 C:\Users\error414\AppData\Local\Temp\cchusgYd.debug.temp.o
 .debug_abbrev  0x00012eb4      0x139 C:\Users\error414\AppData\Local\Temp\cc9gNZ8F.debug.temp.o
 .debug_abbrev  0x00012fed      0x139 C:\Users\error414\AppData\Local\Temp\cc7MBtB8.debug.temp.o
 .debug_abbrev  0x00013126      0x139 C:\Users\error414\AppData\Local\Temp\ccN3K5dB.debug.temp.o
 .debug_abbrev  0x0001325f      0x139 C:\Users\error414\AppData\Local\Temp\ccDF6rv7.debug.temp.o
 .debug_abbrev  0x00013398      0x139 C:\Users\error414\AppData\Local\Temp\cc7N2PVD.debug.temp.o
 .debug_abbrev  0x000134d1      0x139 C:\Users\error414\AppData\Local\Temp\ccDn6Mta.debug.temp.o
 .debug_abbrev  0x0001360a      0x139 C:\Users\error414\AppData\Local\Temp\cc1WZX9F.debug.temp.o
 .debug_abbrev  0x00013743      0x157 C:\Users\error414\AppData\Local\Temp\cc9FM2Yb.debug.temp.o
 .debug_abbrev  0x0001389a      0x17d C:\Users\error414\AppData\Local\Temp\ccJ9hw1H.debug.temp.o
 .debug_abbrev  0x00013a17      0x209 C:\Users\error414\AppData\Local\Temp\ccB8GOyc.debug.temp.o
 .debug_abbrev  0x00013c20      0x207 C:\Users\error414\AppData\Local\Temp\ccLMcotH.debug.temp.o
 .debug_abbrev  0x00013e27      0x1f8 C:\Users\error414\AppData\Local\Temp\ccjx3Fwc.debug.temp.o
 .debug_abbrev  0x0001401f      0x1f5 C:\Users\error414\AppData\Local\Temp\ccVFLvMK.debug.temp.o
 .debug_abbrev  0x00014214      0x239 C:\Users\error414\AppData\Local\Temp\ccdgpxej.debug.temp.o
 .debug_abbrev  0x0001444d      0x113 C:\Users\error414\AppData\Local\Temp\ccLMclJQ.debug.temp.o
 .debug_abbrev  0x00014560      0x260 C:\Users\error414\AppData\Local\Temp\ccxQZBso.debug.temp.o
 .debug_abbrev  0x000147c0      0x2e2 C:\Users\error414\AppData\Local\Temp\ccdLDvzV.debug.temp.o
 .debug_abbrev  0x00014aa2      0x32d C:\Users\error414\AppData\Local\Temp\ccvP4SLw.debug.temp.o
 .debug_abbrev  0x00014dcf      0x20b C:\Users\error414\AppData\Local\Temp\ccfidah8.debug.temp.o
 .debug_abbrev  0x00014fda      0x258 C:\Users\error414\AppData\Local\Temp\ccrrS89I.debug.temp.o
 .debug_abbrev  0x00015232      0x12e C:\Users\error414\AppData\Local\Temp\ccZLFJ6i.debug.temp.o
 .debug_abbrev  0x00015360       0x14 CMakeFiles/stm32-chibios.dir/C_/Users/error414/Documents/STM32/meteo-F4/ChibiOS/os/common/startup/ARMCMx/compilers/GCC/crt0_v7m.S.obj
 .debug_abbrev  0x00015374       0x14 CMakeFiles/stm32-chibios.dir/C_/Users/error414/Documents/STM32/meteo-F4/ChibiOS/os/common/startup/ARMCMx/compilers/GCC/vectors.S.obj
 .debug_abbrev  0x00015388       0x14 CMakeFiles/stm32-chibios.dir/C_/Users/error414/Documents/STM32/meteo-F4/ChibiOS/os/common/ports/ARMv7-M/compilers/GCC/chcoreasm.S.obj

.debug_loc      0x00000000    0x358bb
 .debug_loc     0x00000000     0xeeec C:\Users\error414\AppData\Local\Temp\stm32-chibios.0UTc6U.ltrans0.ltrans.o
 .debug_loc     0x0000eeec    0x1458c C:\Users\error414\AppData\Local\Temp\stm32-chibios.0UTc6U.ltrans1.ltrans.o
 .debug_loc     0x00023478     0xc423 C:\Users\error414\AppData\Local\Temp\stm32-chibios.0UTc6U.ltrans2.ltrans.o
 .debug_loc     0x0002f89b     0x6020 C:\Users\error414\AppData\Local\Temp\stm32-chibios.0UTc6U.ltrans3.ltrans.o

.debug_aranges  0x00000000     0x1690
 .debug_aranges
                0x00000000      0xa38 C:\Users\error414\AppData\Local\Temp\stm32-chibios.0UTc6U.ltrans0.ltrans.o
 .debug_aranges
                0x00000a38      0x3c0 C:\Users\error414\AppData\Local\Temp\stm32-chibios.0UTc6U.ltrans1.ltrans.o
 .debug_aranges
                0x00000df8      0x470 C:\Users\error414\AppData\Local\Temp\stm32-chibios.0UTc6U.ltrans2.ltrans.o
 .debug_aranges
                0x00001268      0x3c8 C:\Users\error414\AppData\Local\Temp\stm32-chibios.0UTc6U.ltrans3.ltrans.o
 .debug_aranges
                0x00001630       0x20 CMakeFiles/stm32-chibios.dir/C_/Users/error414/Documents/STM32/meteo-F4/ChibiOS/os/common/startup/ARMCMx/compilers/GCC/crt0_v7m.S.obj
 .debug_aranges
                0x00001650       0x20 CMakeFiles/stm32-chibios.dir/C_/Users/error414/Documents/STM32/meteo-F4/ChibiOS/os/common/startup/ARMCMx/compilers/GCC/vectors.S.obj
 .debug_aranges
                0x00001670       0x20 CMakeFiles/stm32-chibios.dir/C_/Users/error414/Documents/STM32/meteo-F4/ChibiOS/os/common/ports/ARMv7-M/compilers/GCC/chcoreasm.S.obj

.debug_ranges   0x00000000     0x5158
 .debug_ranges  0x00000000     0x26a0 C:\Users\error414\AppData\Local\Temp\stm32-chibios.0UTc6U.ltrans0.ltrans.o
 .debug_ranges  0x000026a0     0x1580 C:\Users\error414\AppData\Local\Temp\stm32-chibios.0UTc6U.ltrans1.ltrans.o
 .debug_ranges  0x00003c20      0x7a8 C:\Users\error414\AppData\Local\Temp\stm32-chibios.0UTc6U.ltrans2.ltrans.o
 .debug_ranges  0x000043c8      0xd90 C:\Users\error414\AppData\Local\Temp\stm32-chibios.0UTc6U.ltrans3.ltrans.o

.debug_line     0x00000000    0x4f1bb
 .debug_line    0x00000000     0xe556 C:\Users\error414\AppData\Local\Temp\stm32-chibios.0UTc6U.ltrans0.ltrans.o
 .debug_line    0x0000e556     0xbeae C:\Users\error414\AppData\Local\Temp\stm32-chibios.0UTc6U.ltrans1.ltrans.o
 .debug_line    0x0001a404     0x8e1e C:\Users\error414\AppData\Local\Temp\stm32-chibios.0UTc6U.ltrans2.ltrans.o
 .debug_line    0x00023222     0x586b C:\Users\error414\AppData\Local\Temp\stm32-chibios.0UTc6U.ltrans3.ltrans.o
 .debug_line    0x00028a8d      0x171 C:\Users\error414\AppData\Local\Temp\ccLignFf.debug.temp.o
 .debug_line    0x00028bfe       0xb5 C:\Users\error414\AppData\Local\Temp\ccOfRvXS.debug.temp.o
 .debug_line    0x00028cb3      0x213 C:\Users\error414\AppData\Local\Temp\ccfbBgnw.debug.temp.o
 .debug_line    0x00028ec6      0x452 C:\Users\error414\AppData\Local\Temp\cc2bs0V9.debug.temp.o
 .debug_line    0x00029318      0x450 C:\Users\error414\AppData\Local\Temp\ccLgwDEN.debug.temp.o
 .debug_line    0x00029768      0x2c4 C:\Users\error414\AppData\Local\Temp\ccORLUpq.debug.temp.o
 .debug_line    0x00029a2c       0x1e C:\Users\error414\AppData\Local\Temp\ccbvRak3.debug.temp.o
 .debug_line    0x00029a4a      0x55a C:\Users\error414\AppData\Local\Temp\cc2LHsqG.debug.temp.o
 .debug_line    0x00029fa4      0x286 C:\Users\error414\AppData\Local\Temp\ccrqjLFj.debug.temp.o
 .debug_line    0x0002a22a       0x1e C:\Users\error414\AppData\Local\Temp\cceNxhUV.debug.temp.o
 .debug_line    0x0002a248      0x524 C:\Users\error414\AppData\Local\Temp\ccVcrBGx.debug.temp.o
 .debug_line    0x0002a76c      0x5d8 C:\Users\error414\AppData\Local\Temp\ccc1jFB9.debug.temp.o
 .debug_line    0x0002ad44      0x1cb C:\Users\error414\AppData\Local\Temp\cc1cUTnP.debug.temp.o
 .debug_line    0x0002af0f      0x84e C:\Users\error414\AppData\Local\Temp\ccYg8rov.debug.temp.o
 .debug_line    0x0002b75d      0x245 C:\Users\error414\AppData\Local\Temp\cc7io5fa.debug.temp.o
 .debug_line    0x0002b9a2       0x1e C:\Users\error414\AppData\Local\Temp\ccuoyEoO.debug.temp.o
 .debug_line    0x0002b9c0      0x442 C:\Users\error414\AppData\Local\Temp\ccHOJFKs.debug.temp.o
 .debug_line    0x0002be02       0x1e C:\Users\error414\AppData\Local\Temp\ccSbAQOa.debug.temp.o
 .debug_line    0x0002be20      0x28f C:\Users\error414\AppData\Local\Temp\cc5L8yqS.debug.temp.o
 .debug_line    0x0002c0af      0x58c C:\Users\error414\AppData\Local\Temp\ccqgwWez.debug.temp.o
 .debug_line    0x0002c63b      0x64f C:\Users\error414\AppData\Local\Temp\ccj8Ekcg.debug.temp.o
 .debug_line    0x0002cc8a      0x385 C:\Users\error414\AppData\Local\Temp\ccwUHRlX.debug.temp.o
 .debug_line    0x0002d00f       0x1e C:\Users\error414\AppData\Local\Temp\cc7Y1lMD.debug.temp.o
 .debug_line    0x0002d02d      0x53c C:\Users\error414\AppData\Local\Temp\ccygrstk.debug.temp.o
 .debug_line    0x0002d569       0x1e C:\Users\error414\AppData\Local\Temp\ccTwTxP4.debug.temp.o
 .debug_line    0x0002d587      0x400 C:\Users\error414\AppData\Local\Temp\ccShTnkP.debug.temp.o
 .debug_line    0x0002d987      0x31f C:\Users\error414\AppData\Local\Temp\cc78V57z.debug.temp.o
 .debug_line    0x0002dca6       0x1e C:\Users\error414\AppData\Local\Temp\ccgTk8Tj.debug.temp.o
 .debug_line    0x0002dcc4      0x338 C:\Users\error414\AppData\Local\Temp\ccNBSMN3.debug.temp.o
 .debug_line    0x0002dffc      0x328 C:\Users\error414\AppData\Local\Temp\cc8BaTUN.debug.temp.o
 .debug_line    0x0002e324      0x301 C:\Users\error414\AppData\Local\Temp\cc38DPby.debug.temp.o
 .debug_line    0x0002e625      0x3c8 C:\Users\error414\AppData\Local\Temp\ccoJIJyh.debug.temp.o
 .debug_line    0x0002e9ed      0x325 C:\Users\error414\AppData\Local\Temp\ccfcnAd1.debug.temp.o
 .debug_line    0x0002ed12      0x3bd C:\Users\error414\AppData\Local\Temp\cckKqk0N.debug.temp.o
 .debug_line    0x0002f0cf      0x32c C:\Users\error414\AppData\Local\Temp\ccNM7LDA.debug.temp.o
 .debug_line    0x0002f3fb      0x338 C:\Users\error414\AppData\Local\Temp\cceWQyIl.debug.temp.o
 .debug_line    0x0002f733      0x345 C:\Users\error414\AppData\Local\Temp\ccvOb636.debug.temp.o
 .debug_line    0x0002fa78      0x33d C:\Users\error414\AppData\Local\Temp\ccMiSu4V.debug.temp.o
 .debug_line    0x0002fdb5      0x337 C:\Users\error414\AppData\Local\Temp\cc383RQK.debug.temp.o
 .debug_line    0x000300ec      0x41f C:\Users\error414\AppData\Local\Temp\ccWszgMz.debug.temp.o
 .debug_line    0x0003050b      0x400 C:\Users\error414\AppData\Local\Temp\ccDEBUao.debug.temp.o
 .debug_line    0x0003090b      0x3f3 C:\Users\error414\AppData\Local\Temp\ccq1TaCb.debug.temp.o
 .debug_line    0x00030cfe      0x392 C:\Users\error414\AppData\Local\Temp\ccBml3aZ.debug.temp.o
 .debug_line    0x00031090      0x404 C:\Users\error414\AppData\Local\Temp\ccqK9lXM.debug.temp.o
 .debug_line    0x00031494      0x3ef C:\Users\error414\AppData\Local\Temp\ccxNswpE.debug.temp.o
 .debug_line    0x00031883      0x3f7 C:\Users\error414\AppData\Local\Temp\ccqzIZ4v.debug.temp.o
 .debug_line    0x00031c7a      0x410 C:\Users\error414\AppData\Local\Temp\ccpQszLm.debug.temp.o
 .debug_line    0x0003208a      0x3cb C:\Users\error414\AppData\Local\Temp\ccaMpbqc.debug.temp.o
 .debug_line    0x00032455      0x38e C:\Users\error414\AppData\Local\Temp\ccB9hZg2.debug.temp.o
 .debug_line    0x000327e3      0x2c0 C:\Users\error414\AppData\Local\Temp\ccWfDpeW.debug.temp.o
 .debug_line    0x00032aa3      0x32b C:\Users\error414\AppData\Local\Temp\cc1persQ.debug.temp.o
 .debug_line    0x00032dce      0x255 C:\Users\error414\AppData\Local\Temp\ccsRSGXJ.debug.temp.o
 .debug_line    0x00033023      0x257 C:\Users\error414\AppData\Local\Temp\ccXO6QyC.debug.temp.o
 .debug_line    0x0003327a      0x2a8 C:\Users\error414\AppData\Local\Temp\ccW1uKiv.debug.temp.o
 .debug_line    0x00033522      0x295 C:\Users\error414\AppData\Local\Temp\ccblGfho.debug.temp.o
 .debug_line    0x000337b7      0x283 C:\Users\error414\AppData\Local\Temp\ccoBIOdg.debug.temp.o
 .debug_line    0x00033a3a      0x2e0 C:\Users\error414\AppData\Local\Temp\ccXWRmj8.debug.temp.o
 .debug_line    0x00033d1a      0x509 C:\Users\error414\AppData\Local\Temp\cc2McZp4.debug.temp.o
 .debug_line    0x00034223      0x3fe C:\Users\error414\AppData\Local\Temp\ccrDkjF0.debug.temp.o
 .debug_line    0x00034621      0x245 C:\Users\error414\AppData\Local\Temp\ccQDDUnW.debug.temp.o
 .debug_line    0x00034866      0x306 C:\Users\error414\AppData\Local\Temp\ccDgeKyR.debug.temp.o
 .debug_line    0x00034b6c      0x2fc C:\Users\error414\AppData\Local\Temp\ccgOcsTM.debug.temp.o
 .debug_line    0x00034e68      0x47f C:\Users\error414\AppData\Local\Temp\ccHxa7sH.debug.temp.o
 .debug_line    0x000352e7      0x44c C:\Users\error414\AppData\Local\Temp\cc2pWERF.debug.temp.o
 .debug_line    0x00035733      0x420 C:\Users\error414\AppData\Local\Temp\ccFJRSDD.debug.temp.o
 .debug_line    0x00035b53      0x2a1 C:\Users\error414\AppData\Local\Temp\ccUGxF6A.debug.temp.o
 .debug_line    0x00035df4      0x47b C:\Users\error414\AppData\Local\Temp\cc7guKNy.debug.temp.o
 .debug_line    0x0003626f      0x2f9 C:\Users\error414\AppData\Local\Temp\ccaEe9sv.debug.temp.o
 .debug_line    0x00036568      0x285 C:\Users\error414\AppData\Local\Temp\ccXe02ys.debug.temp.o
 .debug_line    0x000367ed      0x226 C:\Users\error414\AppData\Local\Temp\ccCPpgxt.debug.temp.o
 .debug_line    0x00036a13      0x2a8 C:\Users\error414\AppData\Local\Temp\ccL3zvHu.debug.temp.o
 .debug_line    0x00036cbb      0x1a0 C:\Users\error414\AppData\Local\Temp\ccWmc6Pu.debug.temp.o
 .debug_line    0x00036e5b       0x1e C:\Users\error414\AppData\Local\Temp\cc3Lk7cv.debug.temp.o
 .debug_line    0x00036e79      0x212 C:\Users\error414\AppData\Local\Temp\ccguJG7u.debug.temp.o
 .debug_line    0x0003708b       0x1e C:\Users\error414\AppData\Local\Temp\cc78Jbhu.debug.temp.o
 .debug_line    0x000370a9       0x1e C:\Users\error414\AppData\Local\Temp\ccG6q1Nt.debug.temp.o
 .debug_line    0x000370c7      0x325 C:\Users\error414\AppData\Local\Temp\ccnom83w.debug.temp.o
 .debug_line    0x000373ec       0x1e C:\Users\error414\AppData\Local\Temp\cckskQrA.debug.temp.o
 .debug_line    0x0003740a      0x325 C:\Users\error414\AppData\Local\Temp\ccd0802D.debug.temp.o
 .debug_line    0x0003772f       0x1e C:\Users\error414\AppData\Local\Temp\cc8a1ZTG.debug.temp.o
 .debug_line    0x0003774d       0x1e C:\Users\error414\AppData\Local\Temp\ccjMwCNI.debug.temp.o
 .debug_line    0x0003776b       0x1e C:\Users\error414\AppData\Local\Temp\cc2KNfQK.debug.temp.o
 .debug_line    0x00037789       0x1e C:\Users\error414\AppData\Local\Temp\cclggJ2M.debug.temp.o
 .debug_line    0x000377a7       0x1e C:\Users\error414\AppData\Local\Temp\cca6cdoP.debug.temp.o
 .debug_line    0x000377c5       0x1e C:\Users\error414\AppData\Local\Temp\ccJpTCGQ.debug.temp.o
 .debug_line    0x000377e3       0x1e C:\Users\error414\AppData\Local\Temp\cc2oZ47R.debug.temp.o
 .debug_line    0x00037801       0x1e C:\Users\error414\AppData\Local\Temp\cchY4ONT.debug.temp.o
 .debug_line    0x0003781f       0x1e C:\Users\error414\AppData\Local\Temp\cckrgSlZ.debug.temp.o
 .debug_line    0x0003783d       0x1e C:\Users\error414\AppData\Local\Temp\ccxxFv14.debug.temp.o
 .debug_line    0x0003785b       0x1e C:\Users\error414\AppData\Local\Temp\ccIacCUa.debug.temp.o
 .debug_line    0x00037879       0x1e C:\Users\error414\AppData\Local\Temp\cc3aqUMf.debug.temp.o
 .debug_line    0x00037897       0x1e C:\Users\error414\AppData\Local\Temp\ccQpAcOk.debug.temp.o
 .debug_line    0x000378b5       0x1e C:\Users\error414\AppData\Local\Temp\ccRnw5Wp.debug.temp.o
 .debug_line    0x000378d3       0x1e C:\Users\error414\AppData\Local\Temp\ccKdeijv.debug.temp.o
 .debug_line    0x000378f1       0x1e C:\Users\error414\AppData\Local\Temp\ccxAgkJz.debug.temp.o
 .debug_line    0x0003790f       0x1e C:\Users\error414\AppData\Local\Temp\cc2t4luE.debug.temp.o
 .debug_line    0x0003792d       0x1e C:\Users\error414\AppData\Local\Temp\ccHmhAwI.debug.temp.o
 .debug_line    0x0003794b       0x1e C:\Users\error414\AppData\Local\Temp\ccEizYhQ.debug.temp.o
 .debug_line    0x00037969       0x1e C:\Users\error414\AppData\Local\Temp\cc7qpxfY.debug.temp.o
 .debug_line    0x00037987       0x1e C:\Users\error414\AppData\Local\Temp\cc8W06l6.debug.temp.o
 .debug_line    0x000379a5       0x1e C:\Users\error414\AppData\Local\Temp\ccTebyCe.debug.temp.o
 .debug_line    0x000379c3      0x327 C:\Users\error414\AppData\Local\Temp\cc8f9Ggm.debug.temp.o
 .debug_line    0x00037cea      0x327 C:\Users\error414\AppData\Local\Temp\ccb1D9Ss.debug.temp.o
 .debug_line    0x00038011      0x327 C:\Users\error414\AppData\Local\Temp\cc0AYtFz.debug.temp.o
 .debug_line    0x00038338      0x327 C:\Users\error414\AppData\Local\Temp\ccDs3fFG.debug.temp.o
 .debug_line    0x0003865f      0x327 C:\Users\error414\AppData\Local\Temp\ccsw1yGM.debug.temp.o
 .debug_line    0x00038986       0x1e C:\Users\error414\AppData\Local\Temp\ccjH8cVS.debug.temp.o
 .debug_line    0x000389a4       0x1e C:\Users\error414\AppData\Local\Temp\ccGOF5nZ.debug.temp.o
 .debug_line    0x000389c2       0x1e C:\Users\error414\AppData\Local\Temp\cchNAiz9.debug.temp.o
 .debug_line    0x000389e0       0x1e C:\Users\error414\AppData\Local\Temp\ccgSQdTj.debug.temp.o
 .debug_line    0x000389fe      0x2a4 C:\Users\error414\AppData\Local\Temp\ccLhB9lu.debug.temp.o
 .debug_line    0x00038ca2      0x2ee C:\Users\error414\AppData\Local\Temp\cc0YiTSD.debug.temp.o
 .debug_line    0x00038f90      0x159 C:\Users\error414\AppData\Local\Temp\ccxDwkyN.debug.temp.o
 .debug_line    0x000390e9       0x1e C:\Users\error414\AppData\Local\Temp\ccxmJrmP.debug.temp.o
 .debug_line    0x00039107      0x1a0 C:\Users\error414\AppData\Local\Temp\cch9barR.debug.temp.o
 .debug_line    0x000392a7      0x180 C:\Users\error414\AppData\Local\Temp\ccj56OMS.debug.temp.o
 .debug_line    0x00039427       0x1e C:\Users\error414\AppData\Local\Temp\ccVr4uhU.debug.temp.o
 .debug_line    0x00039445      0x165 C:\Users\error414\AppData\Local\Temp\ccVOtkYV.debug.temp.o
 .debug_line    0x000395aa       0x1e C:\Users\error414\AppData\Local\Temp\ccP2bdDW.debug.temp.o
 .debug_line    0x000395c8       0x1e C:\Users\error414\AppData\Local\Temp\cc7y3YAX.debug.temp.o
 .debug_line    0x000395e6      0x29c C:\Users\error414\AppData\Local\Temp\ccRjRKHY.debug.temp.o
 .debug_line    0x00039882      0x15f C:\Users\error414\AppData\Local\Temp\ccnTULhZ.debug.temp.o
 .debug_line    0x000399e1       0x1e C:\Users\error414\AppData\Local\Temp\ccB3ZHI3.debug.temp.o
 .debug_line    0x000399ff      0x163 C:\Users\error414\AppData\Local\Temp\ccdmtDi8.debug.temp.o
 .debug_line    0x00039b62      0x1eb C:\Users\error414\AppData\Local\Temp\cc37bLRb.debug.temp.o
 .debug_line    0x00039d4d      0x1ee C:\Users\error414\AppData\Local\Temp\ccrhGTzf.debug.temp.o
 .debug_line    0x00039f3b      0x179 C:\Users\error414\AppData\Local\Temp\ccTuX4Cj.debug.temp.o
 .debug_line    0x0003a0b4       0x1e C:\Users\error414\AppData\Local\Temp\cczbusFm.debug.temp.o
 .debug_line    0x0003a0d2      0x296 C:\Users\error414\AppData\Local\Temp\ccbQkaVp.debug.temp.o
 .debug_line    0x0003a368       0x1e C:\Users\error414\AppData\Local\Temp\ccT31Mgs.debug.temp.o
 .debug_line    0x0003a386      0x157 C:\Users\error414\AppData\Local\Temp\cc7LYjVu.debug.temp.o
 .debug_line    0x0003a4dd      0x565 C:\Users\error414\AppData\Local\Temp\ccduzasB.debug.temp.o
 .debug_line    0x0003aa42       0x1e C:\Users\error414\AppData\Local\Temp\cch772jI.debug.temp.o
 .debug_line    0x0003aa60      0x58e C:\Users\error414\AppData\Local\Temp\ccTdBLlP.debug.temp.o
 .debug_line    0x0003afee      0x58b C:\Users\error414\AppData\Local\Temp\ccHETQlV.debug.temp.o
 .debug_line    0x0003b579       0x1e C:\Users\error414\AppData\Local\Temp\ccBCRvt1.debug.temp.o
 .debug_line    0x0003b597      0x40b C:\Users\error414\AppData\Local\Temp\cct7WDO7.debug.temp.o
 .debug_line    0x0003b9a2      0x481 C:\Users\error414\AppData\Local\Temp\ccVO35Kc.debug.temp.o
 .debug_line    0x0003be23      0x31a C:\Users\error414\AppData\Local\Temp\ccXsZXUh.debug.temp.o
 .debug_line    0x0003c13d      0x4ba C:\Users\error414\AppData\Local\Temp\ccLJCqIq.debug.temp.o
 .debug_line    0x0003c5f7      0x4aa C:\Users\error414\AppData\Local\Temp\cclJccJz.debug.temp.o
 .debug_line    0x0003caa1      0x524 C:\Users\error414\AppData\Local\Temp\cczTluYI.debug.temp.o
 .debug_line    0x0003cfc5      0x49c C:\Users\error414\AppData\Local\Temp\ccnWzVbR.debug.temp.o
 .debug_line    0x0003d461      0x39d C:\Users\error414\AppData\Local\Temp\ccTlIjLY.debug.temp.o
 .debug_line    0x0003d7fe      0x39f C:\Users\error414\AppData\Local\Temp\ccXCRuO8.debug.temp.o
 .debug_line    0x0003db9d      0x4ba C:\Users\error414\AppData\Local\Temp\ccJwpY4i.debug.temp.o
 .debug_line    0x0003e057      0x505 C:\Users\error414\AppData\Local\Temp\ccH6r2st.debug.temp.o
 .debug_line    0x0003e55c      0x435 C:\Users\error414\AppData\Local\Temp\ccf7w7ZD.debug.temp.o
 .debug_line    0x0003e991      0x440 C:\Users\error414\AppData\Local\Temp\ccfszPAN.debug.temp.o
 .debug_line    0x0003edd1      0x4e7 C:\Users\error414\AppData\Local\Temp\ccVmtzkX.debug.temp.o
 .debug_line    0x0003f2b8       0x1e C:\Users\error414\AppData\Local\Temp\ccP08Tb7.debug.temp.o
 .debug_line    0x0003f2d6      0x492 C:\Users\error414\AppData\Local\Temp\cctg63in.debug.temp.o
 .debug_line    0x0003f768       0x1e C:\Users\error414\AppData\Local\Temp\cczIWWyD.debug.temp.o
 .debug_line    0x0003f786      0x386 C:\Users\error414\AppData\Local\Temp\cc7oJPXT.debug.temp.o
 .debug_line    0x0003fb0c      0x40a C:\Users\error414\AppData\Local\Temp\cczQVco9.debug.temp.o
 .debug_line    0x0003ff16      0x3db C:\Users\error414\AppData\Local\Temp\ccxAzjXo.debug.temp.o
 .debug_line    0x000402f1      0x455 C:\Users\error414\AppData\Local\Temp\cchb6yGE.debug.temp.o
 .debug_line    0x00040746      0x3bc C:\Users\error414\AppData\Local\Temp\ccxOrgRW.debug.temp.o
 .debug_line    0x00040b02       0x1e C:\Users\error414\AppData\Local\Temp\ccdPMEtf.debug.temp.o
 .debug_line    0x00040b20      0x4dc C:\Users\error414\AppData\Local\Temp\ccVsBeFw.debug.temp.o
 .debug_line    0x00040ffc      0x4db C:\Users\error414\AppData\Local\Temp\cc7lAxZN.debug.temp.o
 .debug_line    0x000414d7      0x482 C:\Users\error414\AppData\Local\Temp\ccHz9kF4.debug.temp.o
 .debug_line    0x00041959      0x427 C:\Users\error414\AppData\Local\Temp\ccDy3jmp.debug.temp.o
 .debug_line    0x00041d80       0x1e C:\Users\error414\AppData\Local\Temp\ccXzYfoK.debug.temp.o
 .debug_line    0x00041d9e      0x3fa C:\Users\error414\AppData\Local\Temp\ccFr0OL4.debug.temp.o
 .debug_line    0x00042198      0x4b2 C:\Users\error414\AppData\Local\Temp\ccfBPBso.debug.temp.o
 .debug_line    0x0004264a      0x418 C:\Users\error414\AppData\Local\Temp\ccVz1HnI.debug.temp.o
 .debug_line    0x00042a62      0x4d2 C:\Users\error414\AppData\Local\Temp\ccvrz8g1.debug.temp.o
 .debug_line    0x00042f34      0x3bf C:\Users\error414\AppData\Local\Temp\ccNNjLmk.debug.temp.o
 .debug_line    0x000432f3      0x489 C:\Users\error414\AppData\Local\Temp\ccdEtWEG.debug.temp.o
 .debug_line    0x0004377c      0x8ee C:\Users\error414\AppData\Local\Temp\ccbyWqk3.debug.temp.o
 .debug_line    0x0004406a      0x47a C:\Users\error414\AppData\Local\Temp\ccFKQE8p.debug.temp.o
 .debug_line    0x000444e4      0x3c9 C:\Users\error414\AppData\Local\Temp\cchN7zfL.debug.temp.o
 .debug_line    0x000448ad      0x20b C:\Users\error414\AppData\Local\Temp\ccn5yev6.debug.temp.o
 .debug_line    0x00044ab8      0x669 C:\Users\error414\AppData\Local\Temp\ccVtKMSr.debug.temp.o
 .debug_line    0x00045121      0x287 C:\Users\error414\AppData\Local\Temp\ccNSI2oN.debug.temp.o
 .debug_line    0x000453a8      0x287 C:\Users\error414\AppData\Local\Temp\ccVX4N9c.debug.temp.o
 .debug_line    0x0004562f      0x289 C:\Users\error414\AppData\Local\Temp\ccnfawbC.debug.temp.o
 .debug_line    0x000458b8      0x28d C:\Users\error414\AppData\Local\Temp\ccFHDQe0.debug.temp.o
 .debug_line    0x00045b45      0x28d C:\Users\error414\AppData\Local\Temp\ccDHVVqo.debug.temp.o
 .debug_line    0x00045dd2      0x286 C:\Users\error414\AppData\Local\Temp\cc94Y1LM.debug.temp.o
 .debug_line    0x00046058      0x286 C:\Users\error414\AppData\Local\Temp\ccJKEzlb.debug.temp.o
 .debug_line    0x000462de      0x28e C:\Users\error414\AppData\Local\Temp\ccP8MK9y.debug.temp.o
 .debug_line    0x0004656c      0x289 C:\Users\error414\AppData\Local\Temp\ccvXXW6W.debug.temp.o
 .debug_line    0x000467f5      0x288 C:\Users\error414\AppData\Local\Temp\cc1Oo1So.debug.temp.o
 .debug_line    0x00046a7d      0x289 C:\Users\error414\AppData\Local\Temp\ccpWbIVQ.debug.temp.o
 .debug_line    0x00046d06      0x285 C:\Users\error414\AppData\Local\Temp\cc9e701h.debug.temp.o
 .debug_line    0x00046f8b      0x284 C:\Users\error414\AppData\Local\Temp\ccFgZClJ.debug.temp.o
 .debug_line    0x0004720f      0x283 C:\Users\error414\AppData\Local\Temp\ccVXghOa.debug.temp.o
 .debug_line    0x00047492      0x283 C:\Users\error414\AppData\Local\Temp\ccx8nhrB.debug.temp.o
 .debug_line    0x00047715      0x285 C:\Users\error414\AppData\Local\Temp\cc9uzIi2.debug.temp.o
 .debug_line    0x0004799a      0x312 C:\Users\error414\AppData\Local\Temp\ccJOBd8r.debug.temp.o
 .debug_line    0x00047cac      0x312 C:\Users\error414\AppData\Local\Temp\cc18m39R.debug.temp.o
 .debug_line    0x00047fbe      0x312 C:\Users\error414\AppData\Local\Temp\ccpUQ34l.debug.temp.o
 .debug_line    0x000482d0      0x310 C:\Users\error414\AppData\Local\Temp\ccpxuEgQ.debug.temp.o
 .debug_line    0x000485e0      0x30f C:\Users\error414\AppData\Local\Temp\ccnHfIFk.debug.temp.o
 .debug_line    0x000488ef      0x30f C:\Users\error414\AppData\Local\Temp\ccNHux8N.debug.temp.o
 .debug_line    0x00048bfe      0x30f C:\Users\error414\AppData\Local\Temp\ccN6I6Jh.debug.temp.o
 .debug_line    0x00048f0d      0x30f C:\Users\error414\AppData\Local\Temp\cc77zsKK.debug.temp.o
 .debug_line    0x0004921c      0x30f C:\Users\error414\AppData\Local\Temp\cchusgYd.debug.temp.o
 .debug_line    0x0004952b      0x30f C:\Users\error414\AppData\Local\Temp\cc9gNZ8F.debug.temp.o
 .debug_line    0x0004983a      0x30f C:\Users\error414\AppData\Local\Temp\cc7MBtB8.debug.temp.o
 .debug_line    0x00049b49      0x30f C:\Users\error414\AppData\Local\Temp\ccN3K5dB.debug.temp.o
 .debug_line    0x00049e58      0x312 C:\Users\error414\AppData\Local\Temp\ccDF6rv7.debug.temp.o
 .debug_line    0x0004a16a      0x312 C:\Users\error414\AppData\Local\Temp\cc7N2PVD.debug.temp.o
 .debug_line    0x0004a47c      0x312 C:\Users\error414\AppData\Local\Temp\ccDn6Mta.debug.temp.o
 .debug_line    0x0004a78e      0x312 C:\Users\error414\AppData\Local\Temp\cc1WZX9F.debug.temp.o
 .debug_line    0x0004aaa0      0x3a4 C:\Users\error414\AppData\Local\Temp\cc9FM2Yb.debug.temp.o
 .debug_line    0x0004ae44      0x3f5 C:\Users\error414\AppData\Local\Temp\ccJ9hw1H.debug.temp.o
 .debug_line    0x0004b239      0x4af C:\Users\error414\AppData\Local\Temp\ccB8GOyc.debug.temp.o
 .debug_line    0x0004b6e8      0x40e C:\Users\error414\AppData\Local\Temp\ccLMcotH.debug.temp.o
 .debug_line    0x0004baf6      0x4a4 C:\Users\error414\AppData\Local\Temp\ccjx3Fwc.debug.temp.o
 .debug_line    0x0004bf9a      0x4a8 C:\Users\error414\AppData\Local\Temp\ccVFLvMK.debug.temp.o
 .debug_line    0x0004c442      0x49c C:\Users\error414\AppData\Local\Temp\ccdgpxej.debug.temp.o
 .debug_line    0x0004c8de      0x24c C:\Users\error414\AppData\Local\Temp\ccLMclJQ.debug.temp.o
 .debug_line    0x0004cb2a      0x72e C:\Users\error414\AppData\Local\Temp\ccxQZBso.debug.temp.o
 .debug_line    0x0004d258      0x97a C:\Users\error414\AppData\Local\Temp\ccdLDvzV.debug.temp.o
 .debug_line    0x0004dbd2      0x704 C:\Users\error414\AppData\Local\Temp\ccvP4SLw.debug.temp.o
 .debug_line    0x0004e2d6      0x491 C:\Users\error414\AppData\Local\Temp\ccfidah8.debug.temp.o
 .debug_line    0x0004e767      0x5d0 C:\Users\error414\AppData\Local\Temp\ccrrS89I.debug.temp.o
 .debug_line    0x0004ed37      0x239 C:\Users\error414\AppData\Local\Temp\ccZLFJ6i.debug.temp.o
 .debug_line    0x0004ef70      0x100 CMakeFiles/stm32-chibios.dir/C_/Users/error414/Documents/STM32/meteo-F4/ChibiOS/os/common/startup/ARMCMx/compilers/GCC/crt0_v7m.S.obj
 .debug_line    0x0004f070       0x99 CMakeFiles/stm32-chibios.dir/C_/Users/error414/Documents/STM32/meteo-F4/ChibiOS/os/common/startup/ARMCMx/compilers/GCC/vectors.S.obj
 .debug_line    0x0004f109       0xb2 CMakeFiles/stm32-chibios.dir/C_/Users/error414/Documents/STM32/meteo-F4/ChibiOS/os/common/ports/ARMv7-M/compilers/GCC/chcoreasm.S.obj

.debug_str      0x00000000    0x195f9
 .debug_str     0x00000000      0x1ce C:\Users\error414\AppData\Local\Temp\stm32-chibios.0UTc6U.ltrans0.ltrans.o
                                0x22a (size before relaxing)
 .debug_str     0x000001ce        0xe C:\Users\error414\AppData\Local\Temp\stm32-chibios.0UTc6U.ltrans1.ltrans.o
                                0x179 (size before relaxing)
 .debug_str     0x000001dc        0x8 C:\Users\error414\AppData\Local\Temp\stm32-chibios.0UTc6U.ltrans2.ltrans.o
                                0x18e (size before relaxing)
 .debug_str     0x000001e4       0x92 C:\Users\error414\AppData\Local\Temp\stm32-chibios.0UTc6U.ltrans3.ltrans.o
                                0x236 (size before relaxing)
 .debug_str     0x00000276      0x3e8 C:\Users\error414\AppData\Local\Temp\ccLignFf.debug.temp.o
                                0x491 (size before relaxing)
 .debug_str     0x0000065e       0x67 C:\Users\error414\AppData\Local\Temp\ccOfRvXS.debug.temp.o
                                0x1f9 (size before relaxing)
 .debug_str     0x000006c5      0x162 C:\Users\error414\AppData\Local\Temp\ccfbBgnw.debug.temp.o
                                0x31a (size before relaxing)
 .debug_str     0x00000827      0x686 C:\Users\error414\AppData\Local\Temp\cc2bs0V9.debug.temp.o
                                0x8eb (size before relaxing)
 .debug_str     0x00000ead      0x165 C:\Users\error414\AppData\Local\Temp\ccLgwDEN.debug.temp.o
                                0x7e1 (size before relaxing)
 .debug_str     0x00001012      0x2aa C:\Users\error414\AppData\Local\Temp\ccORLUpq.debug.temp.o
                                0x4d5 (size before relaxing)
 .debug_str     0x000012bc       0x4a C:\Users\error414\AppData\Local\Temp\ccbvRak3.debug.temp.o
                                0x1ee (size before relaxing)
 .debug_str     0x00001306      0x2ec C:\Users\error414\AppData\Local\Temp\cc2LHsqG.debug.temp.o
                                0x8bb (size before relaxing)
 .debug_str     0x000015f2      0x144 C:\Users\error414\AppData\Local\Temp\ccrqjLFj.debug.temp.o
                                0x33f (size before relaxing)
 .debug_str     0x00001736       0x48 C:\Users\error414\AppData\Local\Temp\cceNxhUV.debug.temp.o
                                0x1ec (size before relaxing)
 .debug_str     0x0000177e      0x208 C:\Users\error414\AppData\Local\Temp\ccVcrBGx.debug.temp.o
                                0x8e4 (size before relaxing)
 .debug_str     0x00001986      0x208 C:\Users\error414\AppData\Local\Temp\ccc1jFB9.debug.temp.o
                                0x918 (size before relaxing)
 .debug_str     0x00001b8e      0x183 C:\Users\error414\AppData\Local\Temp\cc1cUTnP.debug.temp.o
                                0x36c (size before relaxing)
 .debug_str     0x00001d11      0x540 C:\Users\error414\AppData\Local\Temp\ccYg8rov.debug.temp.o
                                0xc5e (size before relaxing)
 .debug_str     0x00002251      0x1d5 C:\Users\error414\AppData\Local\Temp\cc7io5fa.debug.temp.o
                                0x42f (size before relaxing)
 .debug_str     0x00002426       0x5e C:\Users\error414\AppData\Local\Temp\ccuoyEoO.debug.temp.o
                                0x202 (size before relaxing)
 .debug_str     0x00002484      0x1a9 C:\Users\error414\AppData\Local\Temp\ccHOJFKs.debug.temp.o
                                0x8d7 (size before relaxing)
 .debug_str     0x0000262d       0x5e C:\Users\error414\AppData\Local\Temp\ccSbAQOa.debug.temp.o
                                0x202 (size before relaxing)
 .debug_str     0x0000268b      0x14d C:\Users\error414\AppData\Local\Temp\cc5L8yqS.debug.temp.o
                                0x3e1 (size before relaxing)
 .debug_str     0x000027d8      0x662 C:\Users\error414\AppData\Local\Temp\ccqgwWez.debug.temp.o
                                0xf75 (size before relaxing)
 .debug_str     0x00002e3a      0x135 C:\Users\error414\AppData\Local\Temp\ccj8Ekcg.debug.temp.o
                                0xa49 (size before relaxing)
 .debug_str     0x00002f6f       0x99 C:\Users\error414\AppData\Local\Temp\ccwUHRlX.debug.temp.o
                                0x45f (size before relaxing)
 .debug_str     0x00003008       0x5e C:\Users\error414\AppData\Local\Temp\cc7Y1lMD.debug.temp.o
                                0x202 (size before relaxing)
 .debug_str     0x00003066       0xd1 C:\Users\error414\AppData\Local\Temp\ccygrstk.debug.temp.o
                                0x9d0 (size before relaxing)
 .debug_str     0x00003137       0x4d C:\Users\error414\AppData\Local\Temp\ccTwTxP4.debug.temp.o
                                0x1f1 (size before relaxing)
 .debug_str     0x00003184      0x369 C:\Users\error414\AppData\Local\Temp\ccShTnkP.debug.temp.o
                                0x983 (size before relaxing)
 .debug_str     0x000034ed      0x12a C:\Users\error414\AppData\Local\Temp\cc78V57z.debug.temp.o
                                0x6c3 (size before relaxing)
 .debug_str     0x00003617       0x47 C:\Users\error414\AppData\Local\Temp\ccgTk8Tj.debug.temp.o
                                0x1eb (size before relaxing)
 .debug_str     0x0000365e      0x180 C:\Users\error414\AppData\Local\Temp\ccNBSMN3.debug.temp.o
                                0x7aa (size before relaxing)
 .debug_str     0x000037de      0x1ee C:\Users\error414\AppData\Local\Temp\cc8BaTUN.debug.temp.o
                                0x7fe (size before relaxing)
 .debug_str     0x000039cc      0x1b3 C:\Users\error414\AppData\Local\Temp\cc38DPby.debug.temp.o
                                0x7fe (size before relaxing)
 .debug_str     0x00003b7f      0x2b5 C:\Users\error414\AppData\Local\Temp\ccoJIJyh.debug.temp.o
                                0x924 (size before relaxing)
 .debug_str     0x00003e34       0xa8 C:\Users\error414\AppData\Local\Temp\ccfcnAd1.debug.temp.o
                                0x789 (size before relaxing)
 .debug_str     0x00003edc       0xcb C:\Users\error414\AppData\Local\Temp\cckKqk0N.debug.temp.o
                                0x744 (size before relaxing)
 .debug_str     0x00003fa7      0x11a C:\Users\error414\AppData\Local\Temp\ccNM7LDA.debug.temp.o
                                0x718 (size before relaxing)
 .debug_str     0x000040c1       0xe4 C:\Users\error414\AppData\Local\Temp\cceWQyIl.debug.temp.o
                                0x6d7 (size before relaxing)
 .debug_str     0x000041a5      0x10a C:\Users\error414\AppData\Local\Temp\ccvOb636.debug.temp.o
                                0x6ff (size before relaxing)
 .debug_str     0x000042af      0x1c7 C:\Users\error414\AppData\Local\Temp\ccMiSu4V.debug.temp.o
                                0x7d4 (size before relaxing)
 .debug_str     0x00004476       0xa2 C:\Users\error414\AppData\Local\Temp\cc383RQK.debug.temp.o
                                0x674 (size before relaxing)
 .debug_str     0x00004518       0xed C:\Users\error414\AppData\Local\Temp\ccWszgMz.debug.temp.o
                                0x6e6 (size before relaxing)
 .debug_str     0x00004605      0x138 C:\Users\error414\AppData\Local\Temp\ccDEBUao.debug.temp.o
                                0x73e (size before relaxing)
 .debug_str     0x0000473d       0xf8 C:\Users\error414\AppData\Local\Temp\ccq1TaCb.debug.temp.o
                                0x6a1 (size before relaxing)
 .debug_str     0x00004835       0xc7 C:\Users\error414\AppData\Local\Temp\ccBml3aZ.debug.temp.o
                                0x694 (size before relaxing)
 .debug_str     0x000048fc      0x166 C:\Users\error414\AppData\Local\Temp\ccqK9lXM.debug.temp.o
                                0x762 (size before relaxing)
 .debug_str     0x00004a62       0xe4 C:\Users\error414\AppData\Local\Temp\ccxNswpE.debug.temp.o
                                0x6a8 (size before relaxing)
 .debug_str     0x00004b46      0x20c C:\Users\error414\AppData\Local\Temp\ccqzIZ4v.debug.temp.o
                                0x7dd (size before relaxing)
 .debug_str     0x00004d52      0x1aa C:\Users\error414\AppData\Local\Temp\ccpQszLm.debug.temp.o
                                0x74a (size before relaxing)
 .debug_str     0x00004efc      0x4ab C:\Users\error414\AppData\Local\Temp\ccaMpbqc.debug.temp.o
                                0xaff (size before relaxing)
 .debug_str     0x000053a7      0x1a0 C:\Users\error414\AppData\Local\Temp\ccB9hZg2.debug.temp.o
                                0xc3d (size before relaxing)
 .debug_str     0x00005547      0x15d C:\Users\error414\AppData\Local\Temp\ccWfDpeW.debug.temp.o
                                0x3a7 (size before relaxing)
 .debug_str     0x000056a4       0xcd C:\Users\error414\AppData\Local\Temp\cc1persQ.debug.temp.o
                                0x342 (size before relaxing)
 .debug_str     0x00005771       0x76 C:\Users\error414\AppData\Local\Temp\ccsRSGXJ.debug.temp.o
                                0x2a3 (size before relaxing)
 .debug_str     0x000057e7       0x7c C:\Users\error414\AppData\Local\Temp\ccXO6QyC.debug.temp.o
                                0x27f (size before relaxing)
 .debug_str     0x00005863       0xac C:\Users\error414\AppData\Local\Temp\ccW1uKiv.debug.temp.o
                                0x2fd (size before relaxing)
 .debug_str     0x0000590f      0x5b6 C:\Users\error414\AppData\Local\Temp\ccblGfho.debug.temp.o
                                0x962 (size before relaxing)
 .debug_str     0x00005ec5      0x7ad C:\Users\error414\AppData\Local\Temp\ccoBIOdg.debug.temp.o
                                0xdcd (size before relaxing)
 .debug_str     0x00006672      0x818 C:\Users\error414\AppData\Local\Temp\ccXWRmj8.debug.temp.o
                               0x15ca (size before relaxing)
 .debug_str     0x00006e8a     0x2e41 C:\Users\error414\AppData\Local\Temp\cc2McZp4.debug.temp.o
                               0x443d (size before relaxing)
 .debug_str     0x00009ccb      0x2ed C:\Users\error414\AppData\Local\Temp\ccrDkjF0.debug.temp.o
                               0x1904 (size before relaxing)
 .debug_str     0x00009fb8      0x465 C:\Users\error414\AppData\Local\Temp\ccQDDUnW.debug.temp.o
                                0x9d5 (size before relaxing)
 .debug_str     0x0000a41d      0x1f3 C:\Users\error414\AppData\Local\Temp\ccDgeKyR.debug.temp.o
                                0x925 (size before relaxing)
 .debug_str     0x0000a610      0x2a5 C:\Users\error414\AppData\Local\Temp\ccgOcsTM.debug.temp.o
                                0xc06 (size before relaxing)
 .debug_str     0x0000a8b5      0x673 C:\Users\error414\AppData\Local\Temp\ccHxa7sH.debug.temp.o
                               0x15e0 (size before relaxing)
 .debug_str     0x0000af28      0x345 C:\Users\error414\AppData\Local\Temp\cc2pWERF.debug.temp.o
                               0x12dd (size before relaxing)
 .debug_str     0x0000b26d      0x1fc C:\Users\error414\AppData\Local\Temp\ccFJRSDD.debug.temp.o
                               0x1007 (size before relaxing)
 .debug_str     0x0000b469      0x3c1 C:\Users\error414\AppData\Local\Temp\ccUGxF6A.debug.temp.o
                                0x8e4 (size before relaxing)
 .debug_str     0x0000b82a      0x228 C:\Users\error414\AppData\Local\Temp\cc7guKNy.debug.temp.o
                               0x130f (size before relaxing)
 .debug_str     0x0000ba52       0xd8 C:\Users\error414\AppData\Local\Temp\ccaEe9sv.debug.temp.o
                                0x7d6 (size before relaxing)
 .debug_str     0x0000bb2a      0x1b1 C:\Users\error414\AppData\Local\Temp\ccXe02ys.debug.temp.o
                                0x8c5 (size before relaxing)
 .debug_str     0x0000bcdb       0xbd C:\Users\error414\AppData\Local\Temp\ccCPpgxt.debug.temp.o
                                0x489 (size before relaxing)
 .debug_str     0x0000bd98      0x2d7 C:\Users\error414\AppData\Local\Temp\ccL3zvHu.debug.temp.o
                                0xa4e (size before relaxing)
 .debug_str     0x0000c06f       0x95 C:\Users\error414\AppData\Local\Temp\ccWmc6Pu.debug.temp.o
                                0x36d (size before relaxing)
 .debug_str     0x0000c104       0x5f C:\Users\error414\AppData\Local\Temp\cc3Lk7cv.debug.temp.o
                                0x203 (size before relaxing)
 .debug_str     0x0000c163      0x55a C:\Users\error414\AppData\Local\Temp\ccguJG7u.debug.temp.o
                                0x8cf (size before relaxing)
 .debug_str     0x0000c6bd       0x4d C:\Users\error414\AppData\Local\Temp\cc78Jbhu.debug.temp.o
                                0x1f1 (size before relaxing)
 .debug_str     0x0000c70a       0x54 C:\Users\error414\AppData\Local\Temp\ccG6q1Nt.debug.temp.o
                                0x1f8 (size before relaxing)
 .debug_str     0x0000c75e      0x46a C:\Users\error414\AppData\Local\Temp\ccnom83w.debug.temp.o
                                0x9ab (size before relaxing)
 .debug_str     0x0000cbc8       0x5a C:\Users\error414\AppData\Local\Temp\cckskQrA.debug.temp.o
                                0x1fe (size before relaxing)
 .debug_str     0x0000cc22       0x54 C:\Users\error414\AppData\Local\Temp\ccd0802D.debug.temp.o
                                0x9ab (size before relaxing)
 .debug_str     0x0000cc76       0x54 C:\Users\error414\AppData\Local\Temp\cc8a1ZTG.debug.temp.o
                                0x1f8 (size before relaxing)
 .debug_str     0x0000ccca       0x54 C:\Users\error414\AppData\Local\Temp\ccjMwCNI.debug.temp.o
                                0x1f8 (size before relaxing)
 .debug_str     0x0000cd1e       0x54 C:\Users\error414\AppData\Local\Temp\cc2KNfQK.debug.temp.o
                                0x1f8 (size before relaxing)
 .debug_str     0x0000cd72       0x54 C:\Users\error414\AppData\Local\Temp\cclggJ2M.debug.temp.o
                                0x1f8 (size before relaxing)
 .debug_str     0x0000cdc6       0x54 C:\Users\error414\AppData\Local\Temp\cca6cdoP.debug.temp.o
                                0x1f8 (size before relaxing)
 .debug_str     0x0000ce1a       0x54 C:\Users\error414\AppData\Local\Temp\ccJpTCGQ.debug.temp.o
                                0x1f8 (size before relaxing)
 .debug_str     0x0000ce6e       0x54 C:\Users\error414\AppData\Local\Temp\cc2oZ47R.debug.temp.o
                                0x1f8 (size before relaxing)
 .debug_str     0x0000cec2       0x5f C:\Users\error414\AppData\Local\Temp\cchY4ONT.debug.temp.o
                                0x203 (size before relaxing)
 .debug_str     0x0000cf21       0x54 C:\Users\error414\AppData\Local\Temp\cckrgSlZ.debug.temp.o
                                0x1f8 (size before relaxing)
 .debug_str     0x0000cf75       0x54 C:\Users\error414\AppData\Local\Temp\ccxxFv14.debug.temp.o
                                0x1f8 (size before relaxing)
 .debug_str     0x0000cfc9       0x54 C:\Users\error414\AppData\Local\Temp\ccIacCUa.debug.temp.o
                                0x1f8 (size before relaxing)
 .debug_str     0x0000d01d       0x54 C:\Users\error414\AppData\Local\Temp\cc3aqUMf.debug.temp.o
                                0x1f8 (size before relaxing)
 .debug_str     0x0000d071       0x54 C:\Users\error414\AppData\Local\Temp\ccQpAcOk.debug.temp.o
                                0x1f8 (size before relaxing)
 .debug_str     0x0000d0c5       0x54 C:\Users\error414\AppData\Local\Temp\ccRnw5Wp.debug.temp.o
                                0x1f8 (size before relaxing)
 .debug_str     0x0000d119       0x54 C:\Users\error414\AppData\Local\Temp\ccKdeijv.debug.temp.o
                                0x1f8 (size before relaxing)
 .debug_str     0x0000d16d       0x54 C:\Users\error414\AppData\Local\Temp\ccxAgkJz.debug.temp.o
                                0x1f8 (size before relaxing)
 .debug_str     0x0000d1c1       0x54 C:\Users\error414\AppData\Local\Temp\cc2t4luE.debug.temp.o
                                0x1f8 (size before relaxing)
 .debug_str     0x0000d215       0x54 C:\Users\error414\AppData\Local\Temp\ccHmhAwI.debug.temp.o
                                0x1f8 (size before relaxing)
 .debug_str     0x0000d269       0x53 C:\Users\error414\AppData\Local\Temp\ccEizYhQ.debug.temp.o
                                0x1f7 (size before relaxing)
 .debug_str     0x0000d2bc       0x54 C:\Users\error414\AppData\Local\Temp\cc7qpxfY.debug.temp.o
                                0x1f8 (size before relaxing)
 .debug_str     0x0000d310       0x50 C:\Users\error414\AppData\Local\Temp\cc8W06l6.debug.temp.o
                                0x1f4 (size before relaxing)
 .debug_str     0x0000d360       0x4f C:\Users\error414\AppData\Local\Temp\ccTebyCe.debug.temp.o
                                0x1f3 (size before relaxing)
 .debug_str     0x0000d3af       0x6e C:\Users\error414\AppData\Local\Temp\cc8f9Ggm.debug.temp.o
                                0x9a0 (size before relaxing)
 .debug_str     0x0000d41d       0x6e C:\Users\error414\AppData\Local\Temp\ccb1D9Ss.debug.temp.o
                                0x9a0 (size before relaxing)
 .debug_str     0x0000d48b       0x6e C:\Users\error414\AppData\Local\Temp\cc0AYtFz.debug.temp.o
                                0x9a0 (size before relaxing)
 .debug_str     0x0000d4f9       0x6e C:\Users\error414\AppData\Local\Temp\ccDs3fFG.debug.temp.o
                                0x9a0 (size before relaxing)
 .debug_str     0x0000d567       0x6e C:\Users\error414\AppData\Local\Temp\ccsw1yGM.debug.temp.o
                                0x9a0 (size before relaxing)
 .debug_str     0x0000d5d5       0x4c C:\Users\error414\AppData\Local\Temp\ccjH8cVS.debug.temp.o
                                0x1d9 (size before relaxing)
 .debug_str     0x0000d621       0x50 C:\Users\error414\AppData\Local\Temp\ccGOF5nZ.debug.temp.o
                                0x1dd (size before relaxing)
 .debug_str     0x0000d671       0x4f C:\Users\error414\AppData\Local\Temp\cchNAiz9.debug.temp.o
                                0x1dc (size before relaxing)
 .debug_str     0x0000d6c0       0x50 C:\Users\error414\AppData\Local\Temp\ccgSQdTj.debug.temp.o
                                0x1f4 (size before relaxing)
 .debug_str     0x0000d710      0x291 C:\Users\error414\AppData\Local\Temp\ccLhB9lu.debug.temp.o
                                0xe6f (size before relaxing)
 .debug_str     0x0000d9a1       0xac C:\Users\error414\AppData\Local\Temp\cc0YiTSD.debug.temp.o
                                0xd02 (size before relaxing)
 .debug_str     0x0000da4d       0xa5 C:\Users\error414\AppData\Local\Temp\ccxDwkyN.debug.temp.o
                                0x26b (size before relaxing)
 .debug_str     0x0000daf2       0x46 C:\Users\error414\AppData\Local\Temp\ccxmJrmP.debug.temp.o
                                0x1e4 (size before relaxing)
 .debug_str     0x0000db38      0x167 C:\Users\error414\AppData\Local\Temp\cch9barR.debug.temp.o
                                0x5ac (size before relaxing)
 .debug_str     0x0000dc9f       0x8f C:\Users\error414\AppData\Local\Temp\ccj56OMS.debug.temp.o
                                0x36e (size before relaxing)
 .debug_str     0x0000dd2e       0x46 C:\Users\error414\AppData\Local\Temp\ccVr4uhU.debug.temp.o
                                0x1ea (size before relaxing)
 .debug_str     0x0000dd74       0xe4 C:\Users\error414\AppData\Local\Temp\ccVOtkYV.debug.temp.o
                                0x3cc (size before relaxing)
 .debug_str     0x0000de58       0x47 C:\Users\error414\AppData\Local\Temp\ccP2bdDW.debug.temp.o
                                0x1d4 (size before relaxing)
 .debug_str     0x0000de9f       0x44 C:\Users\error414\AppData\Local\Temp\cc7y3YAX.debug.temp.o
                                0x1d1 (size before relaxing)
 .debug_str     0x0000dee3      0x132 C:\Users\error414\AppData\Local\Temp\ccRjRKHY.debug.temp.o
                                0x615 (size before relaxing)
 .debug_str     0x0000e015      0x1b3 C:\Users\error414\AppData\Local\Temp\ccnTULhZ.debug.temp.o
                                0x3c2 (size before relaxing)
 .debug_str     0x0000e1c8       0x45 C:\Users\error414\AppData\Local\Temp\ccB3ZHI3.debug.temp.o
                                0x1d2 (size before relaxing)
 .debug_str     0x0000e20d      0x103 C:\Users\error414\AppData\Local\Temp\ccdmtDi8.debug.temp.o
                                0x331 (size before relaxing)
 .debug_str     0x0000e310      0x294 C:\Users\error414\AppData\Local\Temp\cc37bLRb.debug.temp.o
                                0x531 (size before relaxing)
 .debug_str     0x0000e5a4      0x107 C:\Users\error414\AppData\Local\Temp\ccrhGTzf.debug.temp.o
                                0x334 (size before relaxing)
 .debug_str     0x0000e6ab      0x22d C:\Users\error414\AppData\Local\Temp\ccTuX4Cj.debug.temp.o
                                0x533 (size before relaxing)
 .debug_str     0x0000e8d8       0x47 C:\Users\error414\AppData\Local\Temp\cczbusFm.debug.temp.o
                                0x150 (size before relaxing)
 .debug_str     0x0000e91f      0x368 C:\Users\error414\AppData\Local\Temp\ccbQkaVp.debug.temp.o
                                0x7d2 (size before relaxing)
 .debug_str     0x0000ec87       0x48 C:\Users\error414\AppData\Local\Temp\ccT31Mgs.debug.temp.o
                                0x1ec (size before relaxing)
 .debug_str     0x0000eccf       0x80 C:\Users\error414\AppData\Local\Temp\cc7LYjVu.debug.temp.o
                                0x26f (size before relaxing)
 .debug_str     0x0000ed4f      0x8d3 C:\Users\error414\AppData\Local\Temp\ccduzasB.debug.temp.o
                               0x16a6 (size before relaxing)
 .debug_str     0x0000f622       0x4f C:\Users\error414\AppData\Local\Temp\cch772jI.debug.temp.o
                                0x1f3 (size before relaxing)
 .debug_str     0x0000f671      0x958 C:\Users\error414\AppData\Local\Temp\ccTdBLlP.debug.temp.o
                               0x29a1 (size before relaxing)
 .debug_str     0x0000ffc9      0x13d C:\Users\error414\AppData\Local\Temp\ccHETQlV.debug.temp.o
                               0x27a3 (size before relaxing)
 .debug_str     0x00010106       0x52 C:\Users\error414\AppData\Local\Temp\ccBCRvt1.debug.temp.o
                                0x1f6 (size before relaxing)
 .debug_str     0x00010158      0x518 C:\Users\error414\AppData\Local\Temp\cct7WDO7.debug.temp.o
                               0x26ec (size before relaxing)
 .debug_str     0x00010670      0x2f2 C:\Users\error414\AppData\Local\Temp\ccVO35Kc.debug.temp.o
                               0x1e0d (size before relaxing)
 .debug_str     0x00010962      0x222 C:\Users\error414\AppData\Local\Temp\ccXsZXUh.debug.temp.o
                               0x11c6 (size before relaxing)
 .debug_str     0x00010b84      0x73e C:\Users\error414\AppData\Local\Temp\ccLJCqIq.debug.temp.o
                               0x2a9b (size before relaxing)
 .debug_str     0x000112c2      0x4b5 C:\Users\error414\AppData\Local\Temp\cclJccJz.debug.temp.o
                               0x272b (size before relaxing)
 .debug_str     0x00011777      0x3d8 C:\Users\error414\AppData\Local\Temp\cczTluYI.debug.temp.o
                               0x2406 (size before relaxing)
 .debug_str     0x00011b4f      0x922 C:\Users\error414\AppData\Local\Temp\ccnWzVbR.debug.temp.o
                               0x2718 (size before relaxing)
 .debug_str     0x00012471      0x1a7 C:\Users\error414\AppData\Local\Temp\ccTlIjLY.debug.temp.o
                               0x1b59 (size before relaxing)
 .debug_str     0x00012618      0x23f C:\Users\error414\AppData\Local\Temp\ccXCRuO8.debug.temp.o
                               0x1c5e (size before relaxing)
 .debug_str     0x00012857      0x449 C:\Users\error414\AppData\Local\Temp\ccJwpY4i.debug.temp.o
                               0x2742 (size before relaxing)
 .debug_str     0x00012ca0      0x597 C:\Users\error414\AppData\Local\Temp\ccH6r2st.debug.temp.o
                               0x2d44 (size before relaxing)
 .debug_str     0x00013237      0x358 C:\Users\error414\AppData\Local\Temp\ccf7w7ZD.debug.temp.o
                               0x1f7d (size before relaxing)
 .debug_str     0x0001358f      0x24a C:\Users\error414\AppData\Local\Temp\ccfszPAN.debug.temp.o
                               0x22ed (size before relaxing)
 .debug_str     0x000137d9      0x14a C:\Users\error414\AppData\Local\Temp\ccVmtzkX.debug.temp.o
                               0x21a4 (size before relaxing)
 .debug_str     0x00013923       0x4d C:\Users\error414\AppData\Local\Temp\ccP08Tb7.debug.temp.o
                                0x1da (size before relaxing)
 .debug_str     0x00013970      0x432 C:\Users\error414\AppData\Local\Temp\cctg63in.debug.temp.o
                               0x217e (size before relaxing)
 .debug_str     0x00013da2       0x48 C:\Users\error414\AppData\Local\Temp\cczIWWyD.debug.temp.o
                                0x1d5 (size before relaxing)
 .debug_str     0x00013dea      0x128 C:\Users\error414\AppData\Local\Temp\cc7oJPXT.debug.temp.o
                               0x1647 (size before relaxing)
 .debug_str     0x00013f12      0x2bc C:\Users\error414\AppData\Local\Temp\cczQVco9.debug.temp.o
                               0x1eb0 (size before relaxing)
 .debug_str     0x000141ce      0x3ae C:\Users\error414\AppData\Local\Temp\ccxAzjXo.debug.temp.o
                               0x26f1 (size before relaxing)
 .debug_str     0x0001457c      0x258 C:\Users\error414\AppData\Local\Temp\cchb6yGE.debug.temp.o
                               0x2668 (size before relaxing)
 .debug_str     0x000147d4      0x10c C:\Users\error414\AppData\Local\Temp\ccxOrgRW.debug.temp.o
                                0xfa1 (size before relaxing)
 .debug_str     0x000148e0       0x4f C:\Users\error414\AppData\Local\Temp\ccdPMEtf.debug.temp.o
                                0x1dc (size before relaxing)
 .debug_str     0x0001492f      0x4ce C:\Users\error414\AppData\Local\Temp\ccVsBeFw.debug.temp.o
                               0x2962 (size before relaxing)
 .debug_str     0x00014dfd      0x3d2 C:\Users\error414\AppData\Local\Temp\cc7lAxZN.debug.temp.o
                               0x2b25 (size before relaxing)
 .debug_str     0x000151cf      0x22f C:\Users\error414\AppData\Local\Temp\ccHz9kF4.debug.temp.o
                               0x20cf (size before relaxing)
 .debug_str     0x000153fe      0x2ba C:\Users\error414\AppData\Local\Temp\ccDy3jmp.debug.temp.o
                               0x176f (size before relaxing)
 .debug_str     0x000156b8       0x4c C:\Users\error414\AppData\Local\Temp\ccXzYfoK.debug.temp.o
                                0x1d9 (size before relaxing)
 .debug_str     0x00015704       0xfa C:\Users\error414\AppData\Local\Temp\ccFr0OL4.debug.temp.o
                               0x1e77 (size before relaxing)
 .debug_str     0x000157fe      0x378 C:\Users\error414\AppData\Local\Temp\ccfBPBso.debug.temp.o
                               0x20d1 (size before relaxing)
 .debug_str     0x00015b76      0x42a C:\Users\error414\AppData\Local\Temp\ccVz1HnI.debug.temp.o
                               0x29a4 (size before relaxing)
 .debug_str     0x00015fa0      0x6ae C:\Users\error414\AppData\Local\Temp\ccvrz8g1.debug.temp.o
                               0x2e7c (size before relaxing)
 .debug_str     0x0001664e      0x1cf C:\Users\error414\AppData\Local\Temp\ccNNjLmk.debug.temp.o
                               0x1fa4 (size before relaxing)
 .debug_str     0x0001681d      0x400 C:\Users\error414\AppData\Local\Temp\ccdEtWEG.debug.temp.o
                               0x224e (size before relaxing)
 .debug_str     0x00016c1d      0x2b6 C:\Users\error414\AppData\Local\Temp\ccbyWqk3.debug.temp.o
                               0x1132 (size before relaxing)
 .debug_str     0x00016ed3      0x12c C:\Users\error414\AppData\Local\Temp\ccFKQE8p.debug.temp.o
                                0x817 (size before relaxing)
 .debug_str     0x00016fff      0x166 C:\Users\error414\AppData\Local\Temp\cchN7zfL.debug.temp.o
                                0x775 (size before relaxing)
 .debug_str     0x00017165       0xbe C:\Users\error414\AppData\Local\Temp\ccn5yev6.debug.temp.o
                                0x414 (size before relaxing)
 .debug_str     0x00017223       0x82 C:\Users\error414\AppData\Local\Temp\ccVtKMSr.debug.temp.o
                                0xabd (size before relaxing)
 .debug_str     0x000172a5       0x57 C:\Users\error414\AppData\Local\Temp\ccNSI2oN.debug.temp.o
                                0x8e8 (size before relaxing)
 .debug_str     0x000172fc       0x57 C:\Users\error414\AppData\Local\Temp\ccVX4N9c.debug.temp.o
                                0x8e8 (size before relaxing)
 .debug_str     0x00017353       0x5d C:\Users\error414\AppData\Local\Temp\ccnfawbC.debug.temp.o
                                0x8ee (size before relaxing)
 .debug_str     0x000173b0       0x69 C:\Users\error414\AppData\Local\Temp\ccFHDQe0.debug.temp.o
                                0x8fa (size before relaxing)
 .debug_str     0x00017419       0x69 C:\Users\error414\AppData\Local\Temp\ccDHVVqo.debug.temp.o
                                0x8fa (size before relaxing)
 .debug_str     0x00017482       0x54 C:\Users\error414\AppData\Local\Temp\cc94Y1LM.debug.temp.o
                                0x8e5 (size before relaxing)
 .debug_str     0x000174d6       0x54 C:\Users\error414\AppData\Local\Temp\ccJKEzlb.debug.temp.o
                                0x8e5 (size before relaxing)
 .debug_str     0x0001752a       0x6c C:\Users\error414\AppData\Local\Temp\ccP8MK9y.debug.temp.o
                                0x8fd (size before relaxing)
 .debug_str     0x00017596       0x5d C:\Users\error414\AppData\Local\Temp\ccvXXW6W.debug.temp.o
                                0x8ee (size before relaxing)
 .debug_str     0x000175f3       0x5a C:\Users\error414\AppData\Local\Temp\cc1Oo1So.debug.temp.o
                                0x8eb (size before relaxing)
 .debug_str     0x0001764d       0x5d C:\Users\error414\AppData\Local\Temp\ccpWbIVQ.debug.temp.o
                                0x8ee (size before relaxing)
 .debug_str     0x000176aa       0x3f C:\Users\error414\AppData\Local\Temp\cc9e701h.debug.temp.o
                                0x8e2 (size before relaxing)
 .debug_str     0x000176e9       0x4e C:\Users\error414\AppData\Local\Temp\ccFgZClJ.debug.temp.o
                                0x8df (size before relaxing)
 .debug_str     0x00017737       0x46 C:\Users\error414\AppData\Local\Temp\ccVXghOa.debug.temp.o
                                0x8dc (size before relaxing)
 .debug_str     0x0001777d       0x4b C:\Users\error414\AppData\Local\Temp\ccx8nhrB.debug.temp.o
                                0x8dc (size before relaxing)
 .debug_str     0x000177c8       0x51 C:\Users\error414\AppData\Local\Temp\cc9uzIi2.debug.temp.o
                                0x8e2 (size before relaxing)
 .debug_str     0x00017819       0x4c C:\Users\error414\AppData\Local\Temp\ccJOBd8r.debug.temp.o
                                0x8b7 (size before relaxing)
 .debug_str     0x00017865       0x4c C:\Users\error414\AppData\Local\Temp\cc18m39R.debug.temp.o
                                0x8b7 (size before relaxing)
 .debug_str     0x000178b1       0x4c C:\Users\error414\AppData\Local\Temp\ccpUQ34l.debug.temp.o
                                0x8b7 (size before relaxing)
 .debug_str     0x000178fd       0x57 C:\Users\error414\AppData\Local\Temp\ccpxuEgQ.debug.temp.o
                                0x8c2 (size before relaxing)
 .debug_str     0x00017954       0x69 C:\Users\error414\AppData\Local\Temp\ccnHfIFk.debug.temp.o
                                0x8d4 (size before relaxing)
 .debug_str     0x000179bd       0x5a C:\Users\error414\AppData\Local\Temp\ccNHux8N.debug.temp.o
                                0x8c5 (size before relaxing)
 .debug_str     0x00017a17       0x46 C:\Users\error414\AppData\Local\Temp\ccN6I6Jh.debug.temp.o
                                0x8c5 (size before relaxing)
 .debug_str     0x00017a5d       0x46 C:\Users\error414\AppData\Local\Temp\cc77zsKK.debug.temp.o
                                0x8b1 (size before relaxing)
 .debug_str     0x00017aa3       0x46 C:\Users\error414\AppData\Local\Temp\cchusgYd.debug.temp.o
                                0x8b1 (size before relaxing)
 .debug_str     0x00017ae9       0x46 C:\Users\error414\AppData\Local\Temp\cc9gNZ8F.debug.temp.o
                                0x8b1 (size before relaxing)
 .debug_str     0x00017b2f       0x46 C:\Users\error414\AppData\Local\Temp\cc7MBtB8.debug.temp.o
                                0x8c0 (size before relaxing)
 .debug_str     0x00017b75       0x46 C:\Users\error414\AppData\Local\Temp\ccN3K5dB.debug.temp.o
                                0x8c0 (size before relaxing)
 .debug_str     0x00017bbb       0x4c C:\Users\error414\AppData\Local\Temp\ccDF6rv7.debug.temp.o
                                0x8b7 (size before relaxing)
 .debug_str     0x00017c07       0x5b C:\Users\error414\AppData\Local\Temp\cc7N2PVD.debug.temp.o
                                0x8d5 (size before relaxing)
 .debug_str     0x00017c62       0x4c C:\Users\error414\AppData\Local\Temp\ccDn6Mta.debug.temp.o
                                0x8d5 (size before relaxing)
 .debug_str     0x00017cae       0x4c C:\Users\error414\AppData\Local\Temp\cc1WZX9F.debug.temp.o
                                0x8d5 (size before relaxing)
 .debug_str     0x00017cfa      0x118 C:\Users\error414\AppData\Local\Temp\cc9FM2Yb.debug.temp.o
                                0xc85 (size before relaxing)
 .debug_str     0x00017e12       0xf0 C:\Users\error414\AppData\Local\Temp\ccJ9hw1H.debug.temp.o
                                0xe32 (size before relaxing)
 .debug_str     0x00017f02      0x38d C:\Users\error414\AppData\Local\Temp\ccB8GOyc.debug.temp.o
                               0x1bfa (size before relaxing)
 .debug_str     0x0001828f       0xf2 C:\Users\error414\AppData\Local\Temp\ccLMcotH.debug.temp.o
                               0x15fe (size before relaxing)
 .debug_str     0x00018381      0x1c8 C:\Users\error414\AppData\Local\Temp\ccjx3Fwc.debug.temp.o
                               0x1bc0 (size before relaxing)
 .debug_str     0x00018549      0x137 C:\Users\error414\AppData\Local\Temp\ccVFLvMK.debug.temp.o
                                0x8ad (size before relaxing)
 .debug_str     0x00018680      0x4f0 C:\Users\error414\AppData\Local\Temp\ccdgpxej.debug.temp.o
                                0xca9 (size before relaxing)
 .debug_str     0x00018b70      0x109 C:\Users\error414\AppData\Local\Temp\ccLMclJQ.debug.temp.o
                                0x319 (size before relaxing)
 .debug_str     0x00018c79       0xf0 C:\Users\error414\AppData\Local\Temp\ccxQZBso.debug.temp.o
                               0x11ff (size before relaxing)
 .debug_str     0x00018d69      0x12f C:\Users\error414\AppData\Local\Temp\ccdLDvzV.debug.temp.o
                               0x13f6 (size before relaxing)
 .debug_str     0x00018e98      0x2a6 C:\Users\error414\AppData\Local\Temp\ccvP4SLw.debug.temp.o
                               0x10a1 (size before relaxing)
 .debug_str     0x0001913e       0xb6 C:\Users\error414\AppData\Local\Temp\ccfidah8.debug.temp.o
                                0xb00 (size before relaxing)
 .debug_str     0x000191f4      0x226 C:\Users\error414\AppData\Local\Temp\ccrrS89I.debug.temp.o
                                0xd7f (size before relaxing)
 .debug_str     0x0001941a       0x62 C:\Users\error414\AppData\Local\Temp\ccZLFJ6i.debug.temp.o
                                0x2ae (size before relaxing)
 .debug_str     0x0001947c       0xb4 CMakeFiles/stm32-chibios.dir/C_/Users/error414/Documents/STM32/meteo-F4/ChibiOS/os/common/startup/ARMCMx/compilers/GCC/crt0_v7m.S.obj
 .debug_str     0x00019530       0x64 CMakeFiles/stm32-chibios.dir/C_/Users/error414/Documents/STM32/meteo-F4/ChibiOS/os/common/startup/ARMCMx/compilers/GCC/vectors.S.obj
                                 0xb3 (size before relaxing)
 .debug_str     0x00019594       0x65 CMakeFiles/stm32-chibios.dir/C_/Users/error414/Documents/STM32/meteo-F4/ChibiOS/os/common/ports/ARMv7-M/compilers/GCC/chcoreasm.S.obj
                                 0xb4 (size before relaxing)

.comment        0x00000000       0x4d
 .comment       0x00000000       0x4d C:\Users\error414\AppData\Local\Temp\stm32-chibios.0UTc6U.ltrans0.ltrans.o
                                 0x4e (size before relaxing)
 .comment       0x0000004d       0x4e C:\Users\error414\AppData\Local\Temp\stm32-chibios.0UTc6U.ltrans1.ltrans.o
 .comment       0x0000004d       0x4e C:\Users\error414\AppData\Local\Temp\stm32-chibios.0UTc6U.ltrans2.ltrans.o
 .comment       0x0000004d       0x4e C:\Users\error414\AppData\Local\Temp\stm32-chibios.0UTc6U.ltrans3.ltrans.o
 .comment       0x0000004d       0x4e C:\Users\error414\AppData\Local\Temp\ccLignFf.debug.temp.o
 .comment       0x0000004d       0x4e C:\Users\error414\AppData\Local\Temp\ccOfRvXS.debug.temp.o
 .comment       0x0000004d       0x4e C:\Users\error414\AppData\Local\Temp\ccfbBgnw.debug.temp.o
 .comment       0x0000004d       0x4e C:\Users\error414\AppData\Local\Temp\cc2bs0V9.debug.temp.o
 .comment       0x0000004d       0x4e C:\Users\error414\AppData\Local\Temp\ccLgwDEN.debug.temp.o
 .comment       0x0000004d       0x4e C:\Users\error414\AppData\Local\Temp\ccORLUpq.debug.temp.o
 .comment       0x0000004d       0x4e C:\Users\error414\AppData\Local\Temp\ccbvRak3.debug.temp.o
 .comment       0x0000004d       0x4e C:\Users\error414\AppData\Local\Temp\cc2LHsqG.debug.temp.o
 .comment       0x0000004d       0x4e C:\Users\error414\AppData\Local\Temp\ccrqjLFj.debug.temp.o
 .comment       0x0000004d       0x4e C:\Users\error414\AppData\Local\Temp\cceNxhUV.debug.temp.o
 .comment       0x0000004d       0x4e C:\Users\error414\AppData\Local\Temp\ccVcrBGx.debug.temp.o
 .comment       0x0000004d       0x4e C:\Users\error414\AppData\Local\Temp\ccc1jFB9.debug.temp.o
 .comment       0x0000004d       0x4e C:\Users\error414\AppData\Local\Temp\cc1cUTnP.debug.temp.o
 .comment       0x0000004d       0x4e C:\Users\error414\AppData\Local\Temp\ccYg8rov.debug.temp.o
 .comment       0x0000004d       0x4e C:\Users\error414\AppData\Local\Temp\cc7io5fa.debug.temp.o
 .comment       0x0000004d       0x4e C:\Users\error414\AppData\Local\Temp\ccuoyEoO.debug.temp.o
 .comment       0x0000004d       0x4e C:\Users\error414\AppData\Local\Temp\ccHOJFKs.debug.temp.o
 .comment       0x0000004d       0x4e C:\Users\error414\AppData\Local\Temp\ccSbAQOa.debug.temp.o
 .comment       0x0000004d       0x4e C:\Users\error414\AppData\Local\Temp\cc5L8yqS.debug.temp.o
 .comment       0x0000004d       0x4e C:\Users\error414\AppData\Local\Temp\ccqgwWez.debug.temp.o
 .comment       0x0000004d       0x4e C:\Users\error414\AppData\Local\Temp\ccj8Ekcg.debug.temp.o
 .comment       0x0000004d       0x4e C:\Users\error414\AppData\Local\Temp\ccwUHRlX.debug.temp.o
 .comment       0x0000004d       0x4e C:\Users\error414\AppData\Local\Temp\cc7Y1lMD.debug.temp.o
 .comment       0x0000004d       0x4e C:\Users\error414\AppData\Local\Temp\ccygrstk.debug.temp.o
 .comment       0x0000004d       0x4e C:\Users\error414\AppData\Local\Temp\ccTwTxP4.debug.temp.o
 .comment       0x0000004d       0x4e C:\Users\error414\AppData\Local\Temp\ccShTnkP.debug.temp.o
 .comment       0x0000004d       0x4e C:\Users\error414\AppData\Local\Temp\cc78V57z.debug.temp.o
 .comment       0x0000004d       0x4e C:\Users\error414\AppData\Local\Temp\ccgTk8Tj.debug.temp.o
 .comment       0x0000004d       0x4e C:\Users\error414\AppData\Local\Temp\ccNBSMN3.debug.temp.o
 .comment       0x0000004d       0x4e C:\Users\error414\AppData\Local\Temp\cc8BaTUN.debug.temp.o
 .comment       0x0000004d       0x4e C:\Users\error414\AppData\Local\Temp\cc38DPby.debug.temp.o
 .comment       0x0000004d       0x4e C:\Users\error414\AppData\Local\Temp\ccoJIJyh.debug.temp.o
 .comment       0x0000004d       0x4e C:\Users\error414\AppData\Local\Temp\ccfcnAd1.debug.temp.o
 .comment       0x0000004d       0x4e C:\Users\error414\AppData\Local\Temp\cckKqk0N.debug.temp.o
 .comment       0x0000004d       0x4e C:\Users\error414\AppData\Local\Temp\ccNM7LDA.debug.temp.o
 .comment       0x0000004d       0x4e C:\Users\error414\AppData\Local\Temp\cceWQyIl.debug.temp.o
 .comment       0x0000004d       0x4e C:\Users\error414\AppData\Local\Temp\ccvOb636.debug.temp.o
 .comment       0x0000004d       0x4e C:\Users\error414\AppData\Local\Temp\ccMiSu4V.debug.temp.o
 .comment       0x0000004d       0x4e C:\Users\error414\AppData\Local\Temp\cc383RQK.debug.temp.o
 .comment       0x0000004d       0x4e C:\Users\error414\AppData\Local\Temp\ccWszgMz.debug.temp.o
 .comment       0x0000004d       0x4e C:\Users\error414\AppData\Local\Temp\ccDEBUao.debug.temp.o
 .comment       0x0000004d       0x4e C:\Users\error414\AppData\Local\Temp\ccq1TaCb.debug.temp.o
 .comment       0x0000004d       0x4e C:\Users\error414\AppData\Local\Temp\ccBml3aZ.debug.temp.o
 .comment       0x0000004d       0x4e C:\Users\error414\AppData\Local\Temp\ccqK9lXM.debug.temp.o
 .comment       0x0000004d       0x4e C:\Users\error414\AppData\Local\Temp\ccxNswpE.debug.temp.o
 .comment       0x0000004d       0x4e C:\Users\error414\AppData\Local\Temp\ccqzIZ4v.debug.temp.o
 .comment       0x0000004d       0x4e C:\Users\error414\AppData\Local\Temp\ccpQszLm.debug.temp.o
 .comment       0x0000004d       0x4e C:\Users\error414\AppData\Local\Temp\ccaMpbqc.debug.temp.o
 .comment       0x0000004d       0x4e C:\Users\error414\AppData\Local\Temp\ccB9hZg2.debug.temp.o
 .comment       0x0000004d       0x4e C:\Users\error414\AppData\Local\Temp\ccWfDpeW.debug.temp.o
 .comment       0x0000004d       0x4e C:\Users\error414\AppData\Local\Temp\cc1persQ.debug.temp.o
 .comment       0x0000004d       0x4e C:\Users\error414\AppData\Local\Temp\ccsRSGXJ.debug.temp.o
 .comment       0x0000004d       0x4e C:\Users\error414\AppData\Local\Temp\ccXO6QyC.debug.temp.o
 .comment       0x0000004d       0x4e C:\Users\error414\AppData\Local\Temp\ccW1uKiv.debug.temp.o
 .comment       0x0000004d       0x4e C:\Users\error414\AppData\Local\Temp\ccblGfho.debug.temp.o
 .comment       0x0000004d       0x4e C:\Users\error414\AppData\Local\Temp\ccoBIOdg.debug.temp.o
 .comment       0x0000004d       0x4e C:\Users\error414\AppData\Local\Temp\ccXWRmj8.debug.temp.o
 .comment       0x0000004d       0x4e C:\Users\error414\AppData\Local\Temp\cc2McZp4.debug.temp.o
 .comment       0x0000004d       0x4e C:\Users\error414\AppData\Local\Temp\ccrDkjF0.debug.temp.o
 .comment       0x0000004d       0x4e C:\Users\error414\AppData\Local\Temp\ccQDDUnW.debug.temp.o
 .comment       0x0000004d       0x4e C:\Users\error414\AppData\Local\Temp\ccDgeKyR.debug.temp.o
 .comment       0x0000004d       0x4e C:\Users\error414\AppData\Local\Temp\ccgOcsTM.debug.temp.o
 .comment       0x0000004d       0x4e C:\Users\error414\AppData\Local\Temp\ccHxa7sH.debug.temp.o
 .comment       0x0000004d       0x4e C:\Users\error414\AppData\Local\Temp\cc2pWERF.debug.temp.o
 .comment       0x0000004d       0x4e C:\Users\error414\AppData\Local\Temp\ccFJRSDD.debug.temp.o
 .comment       0x0000004d       0x4e C:\Users\error414\AppData\Local\Temp\ccUGxF6A.debug.temp.o
 .comment       0x0000004d       0x4e C:\Users\error414\AppData\Local\Temp\cc7guKNy.debug.temp.o
 .comment       0x0000004d       0x4e C:\Users\error414\AppData\Local\Temp\ccaEe9sv.debug.temp.o
 .comment       0x0000004d       0x4e C:\Users\error414\AppData\Local\Temp\ccXe02ys.debug.temp.o
 .comment       0x0000004d       0x4e C:\Users\error414\AppData\Local\Temp\ccCPpgxt.debug.temp.o
 .comment       0x0000004d       0x4e C:\Users\error414\AppData\Local\Temp\ccL3zvHu.debug.temp.o
 .comment       0x0000004d       0x4e C:\Users\error414\AppData\Local\Temp\ccWmc6Pu.debug.temp.o
 .comment       0x0000004d       0x4e C:\Users\error414\AppData\Local\Temp\cc3Lk7cv.debug.temp.o
 .comment       0x0000004d       0x4e C:\Users\error414\AppData\Local\Temp\ccguJG7u.debug.temp.o
 .comment       0x0000004d       0x4e C:\Users\error414\AppData\Local\Temp\cc78Jbhu.debug.temp.o
 .comment       0x0000004d       0x4e C:\Users\error414\AppData\Local\Temp\ccG6q1Nt.debug.temp.o
 .comment       0x0000004d       0x4e C:\Users\error414\AppData\Local\Temp\ccnom83w.debug.temp.o
 .comment       0x0000004d       0x4e C:\Users\error414\AppData\Local\Temp\cckskQrA.debug.temp.o
 .comment       0x0000004d       0x4e C:\Users\error414\AppData\Local\Temp\ccd0802D.debug.temp.o
 .comment       0x0000004d       0x4e C:\Users\error414\AppData\Local\Temp\cc8a1ZTG.debug.temp.o
 .comment       0x0000004d       0x4e C:\Users\error414\AppData\Local\Temp\ccjMwCNI.debug.temp.o
 .comment       0x0000004d       0x4e C:\Users\error414\AppData\Local\Temp\cc2KNfQK.debug.temp.o
 .comment       0x0000004d       0x4e C:\Users\error414\AppData\Local\Temp\cclggJ2M.debug.temp.o
 .comment       0x0000004d       0x4e C:\Users\error414\AppData\Local\Temp\cca6cdoP.debug.temp.o
 .comment       0x0000004d       0x4e C:\Users\error414\AppData\Local\Temp\ccJpTCGQ.debug.temp.o
 .comment       0x0000004d       0x4e C:\Users\error414\AppData\Local\Temp\cc2oZ47R.debug.temp.o
 .comment       0x0000004d       0x4e C:\Users\error414\AppData\Local\Temp\cchY4ONT.debug.temp.o
 .comment       0x0000004d       0x4e C:\Users\error414\AppData\Local\Temp\cckrgSlZ.debug.temp.o
 .comment       0x0000004d       0x4e C:\Users\error414\AppData\Local\Temp\ccxxFv14.debug.temp.o
 .comment       0x0000004d       0x4e C:\Users\error414\AppData\Local\Temp\ccIacCUa.debug.temp.o
 .comment       0x0000004d       0x4e C:\Users\error414\AppData\Local\Temp\cc3aqUMf.debug.temp.o
 .comment       0x0000004d       0x4e C:\Users\error414\AppData\Local\Temp\ccQpAcOk.debug.temp.o
 .comment       0x0000004d       0x4e C:\Users\error414\AppData\Local\Temp\ccRnw5Wp.debug.temp.o
 .comment       0x0000004d       0x4e C:\Users\error414\AppData\Local\Temp\ccKdeijv.debug.temp.o
 .comment       0x0000004d       0x4e C:\Users\error414\AppData\Local\Temp\ccxAgkJz.debug.temp.o
 .comment       0x0000004d       0x4e C:\Users\error414\AppData\Local\Temp\cc2t4luE.debug.temp.o
 .comment       0x0000004d       0x4e C:\Users\error414\AppData\Local\Temp\ccHmhAwI.debug.temp.o
 .comment       0x0000004d       0x4e C:\Users\error414\AppData\Local\Temp\ccEizYhQ.debug.temp.o
 .comment       0x0000004d       0x4e C:\Users\error414\AppData\Local\Temp\cc7qpxfY.debug.temp.o
 .comment       0x0000004d       0x4e C:\Users\error414\AppData\Local\Temp\cc8W06l6.debug.temp.o
 .comment       0x0000004d       0x4e C:\Users\error414\AppData\Local\Temp\ccTebyCe.debug.temp.o
 .comment       0x0000004d       0x4e C:\Users\error414\AppData\Local\Temp\cc8f9Ggm.debug.temp.o
 .comment       0x0000004d       0x4e C:\Users\error414\AppData\Local\Temp\ccb1D9Ss.debug.temp.o
 .comment       0x0000004d       0x4e C:\Users\error414\AppData\Local\Temp\cc0AYtFz.debug.temp.o
 .comment       0x0000004d       0x4e C:\Users\error414\AppData\Local\Temp\ccDs3fFG.debug.temp.o
 .comment       0x0000004d       0x4e C:\Users\error414\AppData\Local\Temp\ccsw1yGM.debug.temp.o
 .comment       0x0000004d       0x4e C:\Users\error414\AppData\Local\Temp\ccjH8cVS.debug.temp.o
 .comment       0x0000004d       0x4e C:\Users\error414\AppData\Local\Temp\ccGOF5nZ.debug.temp.o
 .comment       0x0000004d       0x4e C:\Users\error414\AppData\Local\Temp\cchNAiz9.debug.temp.o
 .comment       0x0000004d       0x4e C:\Users\error414\AppData\Local\Temp\ccgSQdTj.debug.temp.o
 .comment       0x0000004d       0x4e C:\Users\error414\AppData\Local\Temp\ccLhB9lu.debug.temp.o
 .comment       0x0000004d       0x4e C:\Users\error414\AppData\Local\Temp\cc0YiTSD.debug.temp.o
 .comment       0x0000004d       0x4e C:\Users\error414\AppData\Local\Temp\ccxDwkyN.debug.temp.o
 .comment       0x0000004d       0x4e C:\Users\error414\AppData\Local\Temp\ccxmJrmP.debug.temp.o
 .comment       0x0000004d       0x4e C:\Users\error414\AppData\Local\Temp\cch9barR.debug.temp.o
 .comment       0x0000004d       0x4e C:\Users\error414\AppData\Local\Temp\ccj56OMS.debug.temp.o
 .comment       0x0000004d       0x4e C:\Users\error414\AppData\Local\Temp\ccVr4uhU.debug.temp.o
 .comment       0x0000004d       0x4e C:\Users\error414\AppData\Local\Temp\ccVOtkYV.debug.temp.o
 .comment       0x0000004d       0x4e C:\Users\error414\AppData\Local\Temp\ccP2bdDW.debug.temp.o
 .comment       0x0000004d       0x4e C:\Users\error414\AppData\Local\Temp\cc7y3YAX.debug.temp.o
 .comment       0x0000004d       0x4e C:\Users\error414\AppData\Local\Temp\ccRjRKHY.debug.temp.o
 .comment       0x0000004d       0x4e C:\Users\error414\AppData\Local\Temp\ccnTULhZ.debug.temp.o
 .comment       0x0000004d       0x4e C:\Users\error414\AppData\Local\Temp\ccB3ZHI3.debug.temp.o
 .comment       0x0000004d       0x4e C:\Users\error414\AppData\Local\Temp\ccdmtDi8.debug.temp.o
 .comment       0x0000004d       0x4e C:\Users\error414\AppData\Local\Temp\cc37bLRb.debug.temp.o
 .comment       0x0000004d       0x4e C:\Users\error414\AppData\Local\Temp\ccrhGTzf.debug.temp.o
 .comment       0x0000004d       0x4e C:\Users\error414\AppData\Local\Temp\ccTuX4Cj.debug.temp.o
 .comment       0x0000004d       0x4e C:\Users\error414\AppData\Local\Temp\cczbusFm.debug.temp.o
 .comment       0x0000004d       0x4e C:\Users\error414\AppData\Local\Temp\ccbQkaVp.debug.temp.o
 .comment       0x0000004d       0x4e C:\Users\error414\AppData\Local\Temp\ccT31Mgs.debug.temp.o
 .comment       0x0000004d       0x4e C:\Users\error414\AppData\Local\Temp\cc7LYjVu.debug.temp.o
 .comment       0x0000004d       0x4e C:\Users\error414\AppData\Local\Temp\ccduzasB.debug.temp.o
 .comment       0x0000004d       0x4e C:\Users\error414\AppData\Local\Temp\cch772jI.debug.temp.o
 .comment       0x0000004d       0x4e C:\Users\error414\AppData\Local\Temp\ccTdBLlP.debug.temp.o
 .comment       0x0000004d       0x4e C:\Users\error414\AppData\Local\Temp\ccHETQlV.debug.temp.o
 .comment       0x0000004d       0x4e C:\Users\error414\AppData\Local\Temp\ccBCRvt1.debug.temp.o
 .comment       0x0000004d       0x4e C:\Users\error414\AppData\Local\Temp\cct7WDO7.debug.temp.o
 .comment       0x0000004d       0x4e C:\Users\error414\AppData\Local\Temp\ccVO35Kc.debug.temp.o
 .comment       0x0000004d       0x4e C:\Users\error414\AppData\Local\Temp\ccXsZXUh.debug.temp.o
 .comment       0x0000004d       0x4e C:\Users\error414\AppData\Local\Temp\ccLJCqIq.debug.temp.o
 .comment       0x0000004d       0x4e C:\Users\error414\AppData\Local\Temp\cclJccJz.debug.temp.o
 .comment       0x0000004d       0x4e C:\Users\error414\AppData\Local\Temp\cczTluYI.debug.temp.o
 .comment       0x0000004d       0x4e C:\Users\error414\AppData\Local\Temp\ccnWzVbR.debug.temp.o
 .comment       0x0000004d       0x4e C:\Users\error414\AppData\Local\Temp\ccTlIjLY.debug.temp.o
 .comment       0x0000004d       0x4e C:\Users\error414\AppData\Local\Temp\ccXCRuO8.debug.temp.o
 .comment       0x0000004d       0x4e C:\Users\error414\AppData\Local\Temp\ccJwpY4i.debug.temp.o
 .comment       0x0000004d       0x4e C:\Users\error414\AppData\Local\Temp\ccH6r2st.debug.temp.o
 .comment       0x0000004d       0x4e C:\Users\error414\AppData\Local\Temp\ccf7w7ZD.debug.temp.o
 .comment       0x0000004d       0x4e C:\Users\error414\AppData\Local\Temp\ccfszPAN.debug.temp.o
 .comment       0x0000004d       0x4e C:\Users\error414\AppData\Local\Temp\ccVmtzkX.debug.temp.o
 .comment       0x0000004d       0x4e C:\Users\error414\AppData\Local\Temp\ccP08Tb7.debug.temp.o
 .comment       0x0000004d       0x4e C:\Users\error414\AppData\Local\Temp\cctg63in.debug.temp.o
 .comment       0x0000004d       0x4e C:\Users\error414\AppData\Local\Temp\cczIWWyD.debug.temp.o
 .comment       0x0000004d       0x4e C:\Users\error414\AppData\Local\Temp\cc7oJPXT.debug.temp.o
 .comment       0x0000004d       0x4e C:\Users\error414\AppData\Local\Temp\cczQVco9.debug.temp.o
 .comment       0x0000004d       0x4e C:\Users\error414\AppData\Local\Temp\ccxAzjXo.debug.temp.o
 .comment       0x0000004d       0x4e C:\Users\error414\AppData\Local\Temp\cchb6yGE.debug.temp.o
 .comment       0x0000004d       0x4e C:\Users\error414\AppData\Local\Temp\ccxOrgRW.debug.temp.o
 .comment       0x0000004d       0x4e C:\Users\error414\AppData\Local\Temp\ccdPMEtf.debug.temp.o
 .comment       0x0000004d       0x4e C:\Users\error414\AppData\Local\Temp\ccVsBeFw.debug.temp.o
 .comment       0x0000004d       0x4e C:\Users\error414\AppData\Local\Temp\cc7lAxZN.debug.temp.o
 .comment       0x0000004d       0x4e C:\Users\error414\AppData\Local\Temp\ccHz9kF4.debug.temp.o
 .comment       0x0000004d       0x4e C:\Users\error414\AppData\Local\Temp\ccDy3jmp.debug.temp.o
 .comment       0x0000004d       0x4e C:\Users\error414\AppData\Local\Temp\ccXzYfoK.debug.temp.o
 .comment       0x0000004d       0x4e C:\Users\error414\AppData\Local\Temp\ccFr0OL4.debug.temp.o
 .comment       0x0000004d       0x4e C:\Users\error414\AppData\Local\Temp\ccfBPBso.debug.temp.o
 .comment       0x0000004d       0x4e C:\Users\error414\AppData\Local\Temp\ccVz1HnI.debug.temp.o
 .comment       0x0000004d       0x4e C:\Users\error414\AppData\Local\Temp\ccvrz8g1.debug.temp.o
 .comment       0x0000004d       0x4e C:\Users\error414\AppData\Local\Temp\ccNNjLmk.debug.temp.o
 .comment       0x0000004d       0x4e C:\Users\error414\AppData\Local\Temp\ccdEtWEG.debug.temp.o
 .comment       0x0000004d       0x4e C:\Users\error414\AppData\Local\Temp\ccbyWqk3.debug.temp.o
 .comment       0x0000004d       0x4e C:\Users\error414\AppData\Local\Temp\ccFKQE8p.debug.temp.o
 .comment       0x0000004d       0x4e C:\Users\error414\AppData\Local\Temp\cchN7zfL.debug.temp.o
 .comment       0x0000004d       0x4e C:\Users\error414\AppData\Local\Temp\ccn5yev6.debug.temp.o
 .comment       0x0000004d       0x4e C:\Users\error414\AppData\Local\Temp\ccVtKMSr.debug.temp.o
 .comment       0x0000004d       0x4e C:\Users\error414\AppData\Local\Temp\ccNSI2oN.debug.temp.o
 .comment       0x0000004d       0x4e C:\Users\error414\AppData\Local\Temp\ccVX4N9c.debug.temp.o
 .comment       0x0000004d       0x4e C:\Users\error414\AppData\Local\Temp\ccnfawbC.debug.temp.o
 .comment       0x0000004d       0x4e C:\Users\error414\AppData\Local\Temp\ccFHDQe0.debug.temp.o
 .comment       0x0000004d       0x4e C:\Users\error414\AppData\Local\Temp\ccDHVVqo.debug.temp.o
 .comment       0x0000004d       0x4e C:\Users\error414\AppData\Local\Temp\cc94Y1LM.debug.temp.o
 .comment       0x0000004d       0x4e C:\Users\error414\AppData\Local\Temp\ccJKEzlb.debug.temp.o
 .comment       0x0000004d       0x4e C:\Users\error414\AppData\Local\Temp\ccP8MK9y.debug.temp.o
 .comment       0x0000004d       0x4e C:\Users\error414\AppData\Local\Temp\ccvXXW6W.debug.temp.o
 .comment       0x0000004d       0x4e C:\Users\error414\AppData\Local\Temp\cc1Oo1So.debug.temp.o
 .comment       0x0000004d       0x4e C:\Users\error414\AppData\Local\Temp\ccpWbIVQ.debug.temp.o
 .comment       0x0000004d       0x4e C:\Users\error414\AppData\Local\Temp\cc9e701h.debug.temp.o
 .comment       0x0000004d       0x4e C:\Users\error414\AppData\Local\Temp\ccFgZClJ.debug.temp.o
 .comment       0x0000004d       0x4e C:\Users\error414\AppData\Local\Temp\ccVXghOa.debug.temp.o
 .comment       0x0000004d       0x4e C:\Users\error414\AppData\Local\Temp\ccx8nhrB.debug.temp.o
 .comment       0x0000004d       0x4e C:\Users\error414\AppData\Local\Temp\cc9uzIi2.debug.temp.o
 .comment       0x0000004d       0x4e C:\Users\error414\AppData\Local\Temp\ccJOBd8r.debug.temp.o
 .comment       0x0000004d       0x4e C:\Users\error414\AppData\Local\Temp\cc18m39R.debug.temp.o
 .comment       0x0000004d       0x4e C:\Users\error414\AppData\Local\Temp\ccpUQ34l.debug.temp.o
 .comment       0x0000004d       0x4e C:\Users\error414\AppData\Local\Temp\ccpxuEgQ.debug.temp.o
 .comment       0x0000004d       0x4e C:\Users\error414\AppData\Local\Temp\ccnHfIFk.debug.temp.o
 .comment       0x0000004d       0x4e C:\Users\error414\AppData\Local\Temp\ccNHux8N.debug.temp.o
 .comment       0x0000004d       0x4e C:\Users\error414\AppData\Local\Temp\ccN6I6Jh.debug.temp.o
 .comment       0x0000004d       0x4e C:\Users\error414\AppData\Local\Temp\cc77zsKK.debug.temp.o
 .comment       0x0000004d       0x4e C:\Users\error414\AppData\Local\Temp\cchusgYd.debug.temp.o
 .comment       0x0000004d       0x4e C:\Users\error414\AppData\Local\Temp\cc9gNZ8F.debug.temp.o
 .comment       0x0000004d       0x4e C:\Users\error414\AppData\Local\Temp\cc7MBtB8.debug.temp.o
 .comment       0x0000004d       0x4e C:\Users\error414\AppData\Local\Temp\ccN3K5dB.debug.temp.o
 .comment       0x0000004d       0x4e C:\Users\error414\AppData\Local\Temp\ccDF6rv7.debug.temp.o
 .comment       0x0000004d       0x4e C:\Users\error414\AppData\Local\Temp\cc7N2PVD.debug.temp.o
 .comment       0x0000004d       0x4e C:\Users\error414\AppData\Local\Temp\ccDn6Mta.debug.temp.o
 .comment       0x0000004d       0x4e C:\Users\error414\AppData\Local\Temp\cc1WZX9F.debug.temp.o
 .comment       0x0000004d       0x4e C:\Users\error414\AppData\Local\Temp\cc9FM2Yb.debug.temp.o
 .comment       0x0000004d       0x4e C:\Users\error414\AppData\Local\Temp\ccJ9hw1H.debug.temp.o
 .comment       0x0000004d       0x4e C:\Users\error414\AppData\Local\Temp\ccB8GOyc.debug.temp.o
 .comment       0x0000004d       0x4e C:\Users\error414\AppData\Local\Temp\ccLMcotH.debug.temp.o
 .comment       0x0000004d       0x4e C:\Users\error414\AppData\Local\Temp\ccjx3Fwc.debug.temp.o
 .comment       0x0000004d       0x4e C:\Users\error414\AppData\Local\Temp\ccVFLvMK.debug.temp.o
 .comment       0x0000004d       0x4e C:\Users\error414\AppData\Local\Temp\ccdgpxej.debug.temp.o
 .comment       0x0000004d       0x4e C:\Users\error414\AppData\Local\Temp\ccLMclJQ.debug.temp.o
 .comment       0x0000004d       0x4e C:\Users\error414\AppData\Local\Temp\ccxQZBso.debug.temp.o
 .comment       0x0000004d       0x4e C:\Users\error414\AppData\Local\Temp\ccdLDvzV.debug.temp.o
 .comment       0x0000004d       0x4e C:\Users\error414\AppData\Local\Temp\ccvP4SLw.debug.temp.o
 .comment       0x0000004d       0x4e C:\Users\error414\AppData\Local\Temp\ccfidah8.debug.temp.o
 .comment       0x0000004d       0x4e C:\Users\error414\AppData\Local\Temp\ccrrS89I.debug.temp.o
 .comment       0x0000004d       0x4e C:\Users\error414\AppData\Local\Temp\ccZLFJ6i.debug.temp.o

.ARM.attributes
                0x00000000       0x30
 .ARM.attributes
                0x00000000       0x2c C:\Users\error414\AppData\Local\Temp\stm32-chibios.0UTc6U.ltrans0.ltrans.o
 .ARM.attributes
                0x0000002c       0x2c C:\Users\error414\AppData\Local\Temp\stm32-chibios.0UTc6U.ltrans1.ltrans.o
 .ARM.attributes
                0x00000058       0x2c C:\Users\error414\AppData\Local\Temp\stm32-chibios.0UTc6U.ltrans2.ltrans.o
 .ARM.attributes
                0x00000084       0x2c C:\Users\error414\AppData\Local\Temp\stm32-chibios.0UTc6U.ltrans3.ltrans.o
 .ARM.attributes
                0x000000b0       0x25 CMakeFiles/stm32-chibios.dir/C_/Users/error414/Documents/STM32/meteo-F4/ChibiOS/os/common/startup/ARMCMx/compilers/GCC/crt0_v7m.S.obj
 .ARM.attributes
                0x000000d5       0x25 CMakeFiles/stm32-chibios.dir/C_/Users/error414/Documents/STM32/meteo-F4/ChibiOS/os/common/startup/ARMCMx/compilers/GCC/vectors.S.obj
 .ARM.attributes
                0x000000fa       0x25 CMakeFiles/stm32-chibios.dir/C_/Users/error414/Documents/STM32/meteo-F4/ChibiOS/os/common/ports/ARMv7-M/compilers/GCC/chcoreasm.S.obj
 .ARM.attributes
                0x0000011f       0x2e c:/users/error414/documents/stm32-tools/gcc-arm-none-eabi-10-2020-q4-major/bin/../lib/gcc/arm-none-eabi/10.2.1/../../../../arm-none-eabi/lib/thumb/v7e-m/nofp\libg.a(lib_a-ctype_.o)
 .ARM.attributes
                0x0000014d       0x2e c:/users/error414/documents/stm32-tools/gcc-arm-none-eabi-10-2020-q4-major/bin/../lib/gcc/arm-none-eabi/10.2.1/../../../../arm-none-eabi/lib/thumb/v7e-m/nofp\libg.a(lib_a-memcmp.o)
 .ARM.attributes
                0x0000017b       0x1c c:/users/error414/documents/stm32-tools/gcc-arm-none-eabi-10-2020-q4-major/bin/../lib/gcc/arm-none-eabi/10.2.1/../../../../arm-none-eabi/lib/thumb/v7e-m/nofp\libg.a(lib_a-memcpy.o)
 .ARM.attributes
                0x00000197       0x2e c:/users/error414/documents/stm32-tools/gcc-arm-none-eabi-10-2020-q4-major/bin/../lib/gcc/arm-none-eabi/10.2.1/../../../../arm-none-eabi/lib/thumb/v7e-m/nofp\libg.a(lib_a-strchr.o)
 .ARM.attributes
                0x000001c5       0x1c c:/users/error414/documents/stm32-tools/gcc-arm-none-eabi-10-2020-q4-major/bin/../lib/gcc/arm-none-eabi/10.2.1/../../../../arm-none-eabi/lib/thumb/v7e-m/nofp\libg.a(lib_a-strcmp.o)
 .ARM.attributes
                0x000001e1       0x2e c:/users/error414/documents/stm32-tools/gcc-arm-none-eabi-10-2020-q4-major/bin/../lib/gcc/arm-none-eabi/10.2.1/../../../../arm-none-eabi/lib/thumb/v7e-m/nofp\libg.a(lib_a-strcpy.o)
 .ARM.attributes
                0x0000020f       0x1c c:/users/error414/documents/stm32-tools/gcc-arm-none-eabi-10-2020-q4-major/bin/../lib/gcc/arm-none-eabi/10.2.1/../../../../arm-none-eabi/lib/thumb/v7e-m/nofp\libg.a(lib_a-strlen.o)
 .ARM.attributes
                0x0000022b       0x2e c:/users/error414/documents/stm32-tools/gcc-arm-none-eabi-10-2020-q4-major/bin/../lib/gcc/arm-none-eabi/10.2.1/../../../../arm-none-eabi/lib/thumb/v7e-m/nofp\libg.a(lib_a-strncpy.o)
 .ARM.attributes
                0x00000259       0x2e c:/users/error414/documents/stm32-tools/gcc-arm-none-eabi-10-2020-q4-major/bin/../lib/gcc/arm-none-eabi/10.2.1/../../../../arm-none-eabi/lib/thumb/v7e-m/nofp\libg.a(lib_a-strpbrk.o)
 .ARM.attributes
                0x00000287       0x2e c:/users/error414/documents/stm32-tools/gcc-arm-none-eabi-10-2020-q4-major/bin/../lib/gcc/arm-none-eabi/10.2.1/../../../../arm-none-eabi/lib/thumb/v7e-m/nofp\libg.a(lib_a-strspn.o)
 .ARM.attributes
                0x000002b5       0x1e c:/users/error414/documents/stm32-tools/gcc-arm-none-eabi-10-2020-q4-major/bin/../lib/gcc/arm-none-eabi/10.2.1/thumb/v7e-m/nofp\libgcc.a(_arm_muldf3.o)
 .ARM.attributes
                0x000002d3       0x1e c:/users/error414/documents/stm32-tools/gcc-arm-none-eabi-10-2020-q4-major/bin/../lib/gcc/arm-none-eabi/10.2.1/thumb/v7e-m/nofp\libgcc.a(_arm_mulsf3.o)
 .ARM.attributes
                0x000002f1       0x1e c:/users/error414/documents/stm32-tools/gcc-arm-none-eabi-10-2020-q4-major/bin/../lib/gcc/arm-none-eabi/10.2.1/thumb/v7e-m/nofp\libgcc.a(_arm_addsubdf3.o)
 .ARM.attributes
                0x0000030f       0x1e c:/users/error414/documents/stm32-tools/gcc-arm-none-eabi-10-2020-q4-major/bin/../lib/gcc/arm-none-eabi/10.2.1/thumb/v7e-m/nofp\libgcc.a(_arm_fixdfsi.o)
 .ARM.attributes
                0x0000032d       0x1e c:/users/error414/documents/stm32-tools/gcc-arm-none-eabi-10-2020-q4-major/bin/../lib/gcc/arm-none-eabi/10.2.1/thumb/v7e-m/nofp\libgcc.a(_arm_truncdfsf2.o)
 .ARM.attributes
                0x0000034b       0x1e c:/users/error414/documents/stm32-tools/gcc-arm-none-eabi-10-2020-q4-major/bin/../lib/gcc/arm-none-eabi/10.2.1/thumb/v7e-m/nofp\libgcc.a(_arm_addsubsf3.o)
 .ARM.attributes
                0x00000369       0x1e c:/users/error414/documents/stm32-tools/gcc-arm-none-eabi-10-2020-q4-major/bin/../lib/gcc/arm-none-eabi/10.2.1/thumb/v7e-m/nofp\libgcc.a(_arm_muldivsf3.o)
 .ARM.attributes
                0x00000387       0x1e c:/users/error414/documents/stm32-tools/gcc-arm-none-eabi-10-2020-q4-major/bin/../lib/gcc/arm-none-eabi/10.2.1/thumb/v7e-m/nofp\libgcc.a(_arm_cmpsf2.o)
 .ARM.attributes
                0x000003a5       0x1e c:/users/error414/documents/stm32-tools/gcc-arm-none-eabi-10-2020-q4-major/bin/../lib/gcc/arm-none-eabi/10.2.1/thumb/v7e-m/nofp\libgcc.a(_arm_fixunssfsi.o)
 .ARM.attributes
                0x000003c3       0x1e c:/users/error414/documents/stm32-tools/gcc-arm-none-eabi-10-2020-q4-major/bin/../lib/gcc/arm-none-eabi/10.2.1/thumb/v7e-m/nofp\libgcc.a(_aeabi_ldivmod.o)
 .ARM.attributes
                0x000003e1       0x2e c:/users/error414/documents/stm32-tools/gcc-arm-none-eabi-10-2020-q4-major/bin/../lib/gcc/arm-none-eabi/10.2.1/thumb/v7e-m/nofp\libgcc.a(_udivmoddi4.o)
 .ARM.attributes
                0x0000040f       0x1e c:/users/error414/documents/stm32-tools/gcc-arm-none-eabi-10-2020-q4-major/bin/../lib/gcc/arm-none-eabi/10.2.1/thumb/v7e-m/nofp\libgcc.a(_dvmd_tls.o)

.debug_frame    0x00000000     0x520c
 .debug_frame   0x00000000     0x20f4 C:\Users\error414\AppData\Local\Temp\stm32-chibios.0UTc6U.ltrans0.ltrans.o
 .debug_frame   0x000020f4     0x1000 C:\Users\error414\AppData\Local\Temp\stm32-chibios.0UTc6U.ltrans1.ltrans.o
 .debug_frame   0x000030f4      0xf40 C:\Users\error414\AppData\Local\Temp\stm32-chibios.0UTc6U.ltrans2.ltrans.o
 .debug_frame   0x00004034      0xd44 C:\Users\error414\AppData\Local\Temp\stm32-chibios.0UTc6U.ltrans3.ltrans.o
 .debug_frame   0x00004d78       0x28 c:/users/error414/documents/stm32-tools/gcc-arm-none-eabi-10-2020-q4-major/bin/../lib/gcc/arm-none-eabi/10.2.1/../../../../arm-none-eabi/lib/thumb/v7e-m/nofp\libg.a(lib_a-memcmp.o)
 .debug_frame   0x00004da0       0x34 c:/users/error414/documents/stm32-tools/gcc-arm-none-eabi-10-2020-q4-major/bin/../lib/gcc/arm-none-eabi/10.2.1/../../../../arm-none-eabi/lib/thumb/v7e-m/nofp\libg.a(lib_a-strchr.o)
 .debug_frame   0x00004dd4       0x68 c:/users/error414/documents/stm32-tools/gcc-arm-none-eabi-10-2020-q4-major/bin/../lib/gcc/arm-none-eabi/10.2.1/../../../../arm-none-eabi/lib/thumb/v7e-m/nofp\libg.a(lib_a-strcmp.o)
 .debug_frame   0x00004e3c       0x20 c:/users/error414/documents/stm32-tools/gcc-arm-none-eabi-10-2020-q4-major/bin/../lib/gcc/arm-none-eabi/10.2.1/../../../../arm-none-eabi/lib/thumb/v7e-m/nofp\libg.a(lib_a-strcpy.o)
 .debug_frame   0x00004e5c       0x2c c:/users/error414/documents/stm32-tools/gcc-arm-none-eabi-10-2020-q4-major/bin/../lib/gcc/arm-none-eabi/10.2.1/../../../../arm-none-eabi/lib/thumb/v7e-m/nofp\libg.a(lib_a-strncpy.o)
 .debug_frame   0x00004e88       0x2c c:/users/error414/documents/stm32-tools/gcc-arm-none-eabi-10-2020-q4-major/bin/../lib/gcc/arm-none-eabi/10.2.1/../../../../arm-none-eabi/lib/thumb/v7e-m/nofp\libg.a(lib_a-strpbrk.o)
 .debug_frame   0x00004eb4       0x28 c:/users/error414/documents/stm32-tools/gcc-arm-none-eabi-10-2020-q4-major/bin/../lib/gcc/arm-none-eabi/10.2.1/../../../../arm-none-eabi/lib/thumb/v7e-m/nofp\libg.a(lib_a-strspn.o)
 .debug_frame   0x00004edc       0x30 c:/users/error414/documents/stm32-tools/gcc-arm-none-eabi-10-2020-q4-major/bin/../lib/gcc/arm-none-eabi/10.2.1/thumb/v7e-m/nofp\libgcc.a(_arm_muldf3.o)
 .debug_frame   0x00004f0c       0x24 c:/users/error414/documents/stm32-tools/gcc-arm-none-eabi-10-2020-q4-major/bin/../lib/gcc/arm-none-eabi/10.2.1/thumb/v7e-m/nofp\libgcc.a(_arm_mulsf3.o)
 .debug_frame   0x00004f30       0xac c:/users/error414/documents/stm32-tools/gcc-arm-none-eabi-10-2020-q4-major/bin/../lib/gcc/arm-none-eabi/10.2.1/thumb/v7e-m/nofp\libgcc.a(_arm_addsubdf3.o)
 .debug_frame   0x00004fdc       0x24 c:/users/error414/documents/stm32-tools/gcc-arm-none-eabi-10-2020-q4-major/bin/../lib/gcc/arm-none-eabi/10.2.1/thumb/v7e-m/nofp\libgcc.a(_arm_fixdfsi.o)
 .debug_frame   0x00005000       0x24 c:/users/error414/documents/stm32-tools/gcc-arm-none-eabi-10-2020-q4-major/bin/../lib/gcc/arm-none-eabi/10.2.1/thumb/v7e-m/nofp\libgcc.a(_arm_truncdfsf2.o)
 .debug_frame   0x00005024       0x4c c:/users/error414/documents/stm32-tools/gcc-arm-none-eabi-10-2020-q4-major/bin/../lib/gcc/arm-none-eabi/10.2.1/thumb/v7e-m/nofp\libgcc.a(_arm_addsubsf3.o)
 .debug_frame   0x00005070       0x38 c:/users/error414/documents/stm32-tools/gcc-arm-none-eabi-10-2020-q4-major/bin/../lib/gcc/arm-none-eabi/10.2.1/thumb/v7e-m/nofp\libgcc.a(_arm_muldivsf3.o)
 .debug_frame   0x000050a8       0xc8 c:/users/error414/documents/stm32-tools/gcc-arm-none-eabi-10-2020-q4-major/bin/../lib/gcc/arm-none-eabi/10.2.1/thumb/v7e-m/nofp\libgcc.a(_arm_cmpsf2.o)
 .debug_frame   0x00005170       0x24 c:/users/error414/documents/stm32-tools/gcc-arm-none-eabi-10-2020-q4-major/bin/../lib/gcc/arm-none-eabi/10.2.1/thumb/v7e-m/nofp\libgcc.a(_arm_fixunssfsi.o)
 .debug_frame   0x00005194       0x44 c:/users/error414/documents/stm32-tools/gcc-arm-none-eabi-10-2020-q4-major/bin/../lib/gcc/arm-none-eabi/10.2.1/thumb/v7e-m/nofp\libgcc.a(_aeabi_ldivmod.o)
 .debug_frame   0x000051d8       0x34 c:/users/error414/documents/stm32-tools/gcc-arm-none-eabi-10-2020-q4-major/bin/../lib/gcc/arm-none-eabi/10.2.1/thumb/v7e-m/nofp\libgcc.a(_udivmoddi4.o)
